EXPORTS
	?ImplementationGroupProxy@@YAPBUTImplementationProxy@@AAH@Z @ 1 NONAME ; struct TImplementationProxy const * ImplementationGroupProxy(int &)
	?send_challenge_request_message@eap_type_aka_c@@AAE?AW4eap_status_e@@E@Z @ 2 NONAME ; enum eap_status_e eap_type_aka_c::send_challenge_request_message(unsigned char)
	?complete_re_syncronization_query@eap_type_aka_c@@EAE?AW4eap_status_e@@EPBVeap_type_aka_authentication_vector_c@@@Z @ 3 NONAME ; enum eap_status_e eap_type_aka_c::complete_re_syncronization_query(unsigned char, class eap_type_aka_authentication_vector_c const *)
	?add_pseudonym_or_imsi_payload@eap_type_aka_c@@AAE?AW4eap_status_e@@PAVaka_header_c@@KKPAK111PBVeap_variable_data_c@@W4aka_payload_AT_type_e@@@Z @ 4 NONAME ; enum eap_status_e eap_type_aka_c::add_pseudonym_or_imsi_payload(class aka_header_c *, unsigned long, unsigned long, unsigned long *, unsigned long *, unsigned long *, unsigned long *, class eap_variable_data_c const *, enum aka_payload_AT_type_e)
	??1eap_type_aka_authentication_vector_c@@UAE@XZ @ 5 NONAME ; eap_type_aka_authentication_vector_c::~eap_type_aka_authentication_vector_c(void)
	??1aka_variable_data_c@@UAE@XZ @ 6 NONAME ; aka_variable_data_c::~aka_variable_data_c(void)
	?finish_successful_authentication@eap_type_aka_c@@AAE?AW4eap_status_e@@PBVeap_am_network_id_c@@@Z @ 7 NONAME ; enum eap_status_e eap_type_aka_c::finish_successful_authentication(class eap_am_network_id_c const *)
	?cancel_timer@eap_type_aka_c@@QAE?AW4eap_status_e@@PAVabs_eap_base_timer_c@@K@Z @ 8 NONAME ; enum eap_status_e eap_type_aka_c::cancel_timer(class abs_eap_base_timer_c *, unsigned long)
	?NewL@eap_am_type_aka_symbian_c@@SAPAV1@PAVabs_eap_am_tools_c@@PAVabs_eap_base_type_c@@W4TIndexType@@HVeap_expanded_type_c@@_NPBVeap_am_network_id_c@@@Z @ 9 NONAME ; class eap_am_type_aka_symbian_c * eap_am_type_aka_symbian_c::NewL(class abs_eap_am_tools_c *, class abs_eap_base_type_c *, enum TIndexType, int, class eap_expanded_type_c, bool, class eap_am_network_id_c const *)
	??1eap_type_aka_state_notification_c@@UAE@XZ @ 10 NONAME ; eap_type_aka_state_notification_c::~eap_type_aka_state_notification_c(void)
	??0aka_payload_AT_header_c@@QAE@PAVabs_eap_am_tools_c@@PAXK@Z @ 11 NONAME ; aka_payload_AT_header_c::aka_payload_AT_header_c(class abs_eap_am_tools_c *, void *, unsigned long)
	?get_data_offset@aka_header_c@@QBEPAEKK@Z @ 12 NONAME ; unsigned char * aka_header_c::get_data_offset(unsigned long, unsigned long) const
	?get_payload_AT_string@aka_payload_AT_header_c@@QBEPBDXZ @ 13 NONAME ; char const * aka_payload_AT_header_c::get_payload_AT_string(void) const
	?set_reserved@aka_payload_AT_header_c@@QAEXG@Z @ 14 NONAME ; void aka_payload_AT_header_c::set_reserved(unsigned short)
	?get_header_length@aka_header_c@@QBEKXZ @ 15 NONAME ; unsigned long aka_header_c::get_header_length(void) const
	?get_state_variable@eap_type_aka_c@@AAEPBVeap_type_aka_state_variable_parameters_c@@XZ @ 16 NONAME ; class eap_type_aka_state_variable_parameters_c const * eap_type_aka_c::get_state_variable(void)
	?check_initiator@eap_type_aka_state_variable_parameters_c@@QBE_N_N@Z @ 17 NONAME ; bool eap_type_aka_state_variable_parameters_c::check_initiator(bool) const
	?get_is_valid@eap_am_type_aka_symbian_c@@QAE_NXZ @ 18 NONAME ; bool eap_am_type_aka_symbian_c::get_is_valid(void)
	?get_header_length@aka_payload_AT_header_c@@SAGXZ @ 19 NONAME ; unsigned short aka_payload_AT_header_c::get_header_length(void)
	??0eap_type_aka_c@@QAE@PAVabs_eap_am_tools_c@@PAVabs_eap_base_type_c@@PAVeap_am_type_aka_c@@_N3PBVeap_am_network_id_c@@@Z @ 20 NONAME ; eap_type_aka_c::eap_type_aka_c(class abs_eap_am_tools_c *, class abs_eap_base_type_c *, class eap_am_type_aka_c *, bool, bool, class eap_am_network_id_c const *)
	?handle_client_error_response_message@eap_type_aka_c@@AAE?AW4eap_status_e@@PBVeap_am_network_id_c@@PAVaka_header_c@@KPAVaka_payloads_c@@@Z @ 21 NONAME ; enum eap_status_e eap_type_aka_c::handle_client_error_response_message(class eap_am_network_id_c const *, class aka_header_c *, unsigned long, class aka_payloads_c *)
	??0aka_header_c@@QAE@PAVabs_eap_am_tools_c@@PAEK@Z @ 22 NONAME ; aka_header_c::aka_header_c(class abs_eap_am_tools_c *, unsigned char *, unsigned long)
	?query_AKA_authentication_vector@eap_type_aka_c@@AAE?AW4eap_status_e@@EPAW4eap_type_aka_identity_type@@@Z @ 23 NONAME ; enum eap_status_e eap_type_aka_c::query_AKA_authentication_vector(unsigned char, enum eap_type_aka_identity_type *)
	?increase_reauth_counter@eap_am_type_aka_symbian_c@@UAE?AW4eap_status_e@@XZ @ 24 NONAME ; enum eap_status_e eap_am_type_aka_symbian_c::increase_reauth_counter(void)
	?cancel_error_message_delay_timer@eap_type_aka_c@@AAE?AW4eap_status_e@@XZ @ 25 NONAME ; enum eap_status_e eap_type_aka_c::cancel_error_message_delay_timer(void)
	?delete_unused_keys@eap_type_aka_c@@AAEXXZ @ 26 NONAME ; void eap_type_aka_c::delete_unused_keys(void)
	??1aka_payload_AT_header_c@@UAE@XZ @ 27 NONAME ; aka_payload_AT_header_c::~aka_payload_AT_header_c(void)
	?get_data_length@aka_payload_AT_header_c@@QBEKXZ @ 28 NONAME ; unsigned long aka_payload_AT_header_c::get_data_length(void) const
	?get_reserved_pointer@aka_payload_AT_header_c@@QBEPAEK@Z @ 29 NONAME ; unsigned char * aka_payload_AT_header_c::get_reserved_pointer(unsigned long) const
	?get_AUTN@eap_type_aka_authentication_vector_c@@QBEPAVeap_variable_data_c@@XZ @ 30 NONAME ; class eap_variable_data_c * eap_type_aka_authentication_vector_c::get_AUTN(void) const
	?cancel_imsi_from_username_query@eap_am_type_aka_symbian_c@@UAE?AW4eap_status_e@@XZ @ 31 NONAME ; enum eap_status_e eap_am_type_aka_symbian_c::cancel_imsi_from_username_query(void)
	??0aka_fixed_data_c@@QAE@PAVabs_eap_am_tools_c@@@Z @ 32 NONAME ; aka_fixed_data_c::aka_fixed_data_c(class abs_eap_am_tools_c *)
	?add_AUTS_payload@eap_type_aka_c@@AAE?AW4eap_status_e@@PAVaka_header_c@@KKPAK111PBVeap_variable_data_c@@W4aka_payload_AT_type_e@@@Z @ 33 NONAME ; enum eap_status_e eap_type_aka_c::add_AUTS_payload(class aka_header_c *, unsigned long, unsigned long, unsigned long *, unsigned long *, unsigned long *, unsigned long *, class eap_variable_data_c const *, enum aka_payload_AT_type_e)
	?set_vector_status@eap_type_aka_authentication_vector_c@@QAEXW4eap_status_e@@@Z @ 34 NONAME ; void eap_type_aka_authentication_vector_c::set_vector_status(enum eap_status_e)
	?handle_synchronization_failure_response_message@eap_type_aka_c@@AAE?AW4eap_status_e@@PBVeap_am_network_id_c@@PAVaka_header_c@@KPAVaka_payloads_c@@@Z @ 35 NONAME ; enum eap_status_e eap_type_aka_c::handle_synchronization_failure_response_message(class eap_am_network_id_c const *, class aka_header_c *, unsigned long, class aka_payloads_c *)
	?get_eap_type_string@aka_header_c@@QBEPBDXZ @ 36 NONAME ; char const * aka_header_c::get_eap_type_string(void) const
	?check_challenge_response_message@eap_type_aka_c@@AAE?AW4eap_status_e@@PBVeap_am_network_id_c@@PAVaka_header_c@@KPAVaka_payloads_c@@@Z @ 37 NONAME ; enum eap_status_e eap_type_aka_c::check_challenge_response_message(class eap_am_network_id_c const *, class aka_header_c *, unsigned long, class aka_payloads_c *)
	?cancel_AKA_authentication_vector_query@eap_am_type_aka_symbian_c@@UAE?AW4eap_status_e@@XZ @ 38 NONAME ; enum eap_status_e eap_am_type_aka_symbian_c::cancel_AKA_authentication_vector_query(void)
	?get_saved_previous_state_string@eap_type_aka_c@@ABEPBDXZ @ 39 NONAME ; char const * eap_type_aka_c::get_saved_previous_state_string(void) const
	?send_challenge_response_message@eap_type_aka_c@@AAE?AW4eap_status_e@@PAVeap_variable_data_c@@@Z @ 40 NONAME ; enum eap_status_e eap_type_aka_c::send_challenge_response_message(class eap_variable_data_c *)
	?send_aka_notification_request@eap_type_aka_c@@AAE?AW4eap_status_e@@W4eap_aka_notification_codes_e@@_N@Z @ 41 NONAME ; enum eap_status_e eap_type_aka_c::send_aka_notification_request(enum eap_aka_notification_codes_e, bool)
	?set_error_message_delay_timer@eap_type_aka_c@@AAE?AW4eap_status_e@@XZ @ 42 NONAME ; enum eap_status_e eap_type_aka_c::set_error_message_delay_timer(void)
	?configure@eap_type_aka_c@@UAE?AW4eap_status_e@@XZ @ 43 NONAME ; enum eap_status_e eap_type_aka_c::configure(void)
	?set_timer@eap_type_aka_c@@QAE?AW4eap_status_e@@PAVabs_eap_base_timer_c@@KPAXK@Z @ 44 NONAME ; enum eap_status_e eap_type_aka_c::set_timer(class abs_eap_base_timer_c *, unsigned long, void *, unsigned long)
	?get_payload_included@aka_variable_data_c@@QBE_NXZ @ 45 NONAME ; bool aka_variable_data_c::get_payload_included(void) const
	?reset_header@aka_header_c@@QAEXK_N@Z @ 46 NONAME ; void aka_header_c::reset_header(unsigned long, bool)
	?get_data@aka_variable_data_c@@QBEPAEK@Z @ 47 NONAME ; unsigned char * aka_variable_data_c::get_data(unsigned long) const
	?generate_reauth_shared_secred_keys@eap_type_aka_c@@AAE?AW4eap_status_e@@KPBVeap_variable_data_c@@K00PAV3@@Z @ 48 NONAME ; enum eap_status_e eap_type_aka_c::generate_reauth_shared_secred_keys(unsigned long, class eap_variable_data_c const *, unsigned long, class eap_variable_data_c const *, class eap_variable_data_c const *, class eap_variable_data_c *)
	?add_variable_payload@eap_type_aka_c@@AAE?AW4eap_status_e@@PAVaka_header_c@@KKPAK111PBVeap_variable_data_c@@W4aka_payload_AT_type_e@@@Z @ 49 NONAME ; enum eap_status_e eap_type_aka_c::add_variable_payload(class aka_header_c *, unsigned long, unsigned long, unsigned long *, unsigned long *, unsigned long *, unsigned long *, class eap_variable_data_c const *, enum aka_payload_AT_type_e)
	?query_AKA_RES@eap_type_aka_c@@AAE?AW4eap_status_e@@PAVeap_type_aka_authentication_vector_c@@@Z @ 50 NONAME ; enum eap_status_e eap_type_aka_c::query_AKA_RES(class eap_type_aka_authentication_vector_c *)
	?handle_reauthentication_request_message@eap_type_aka_c@@AAE?AW4eap_status_e@@PBVeap_am_network_id_c@@PAVaka_header_c@@KPAVaka_payloads_c@@@Z @ 51 NONAME ; enum eap_status_e eap_type_aka_c::handle_reauthentication_request_message(class eap_am_network_id_c const *, class aka_header_c *, unsigned long, class aka_payloads_c *)
	?get_state_string@eap_type_aka_c@@ABEPBDXZ @ 52 NONAME ; char const * eap_type_aka_c::get_state_string(void) const
	?add_padding_payload@eap_type_aka_c@@AAE?AW4eap_status_e@@PAVaka_header_c@@KKPAK111K@Z @ 53 NONAME ; enum eap_status_e eap_type_aka_c::add_padding_payload(class aka_header_c *, unsigned long, unsigned long, unsigned long *, unsigned long *, unsigned long *, unsigned long *, unsigned long)
	?initialize_notification_message@eap_type_aka_c@@AAE?AW4eap_status_e@@XZ @ 54 NONAME ; enum eap_status_e eap_type_aka_c::initialize_notification_message(void)
	?handle_error_packet@eap_type_aka_c@@AAE?AW4eap_status_e@@XZ @ 55 NONAME ; enum eap_status_e eap_type_aka_c::handle_error_packet(void)
	?check_valid_state@eap_type_aka_c@@AAE?AW4eap_status_e@@W4aka_subtype_e@@@Z @ 56 NONAME ; enum eap_status_e eap_type_aka_c::check_valid_state(enum aka_subtype_e)
	?update_payload_indexes@eap_type_aka_c@@AAEXKKKPAK000@Z @ 57 NONAME ; void eap_type_aka_c::update_payload_indexes(unsigned long, unsigned long, unsigned long, unsigned long *, unsigned long *, unsigned long *, unsigned long *)
	?set_data_length@aka_header_c@@QAEXK_N@Z @ 58 NONAME ; void aka_header_c::set_data_length(unsigned long, bool)
	?get_reserved@aka_header_c@@QBEGXZ @ 59 NONAME ; unsigned short aka_header_c::get_reserved(void) const
	?generate_encryption_IV@eap_am_type_aka_symbian_c@@UAE?AW4eap_status_e@@PAVeap_variable_data_c@@K@Z @ 60 NONAME ; enum eap_status_e eap_am_type_aka_symbian_c::generate_encryption_IV(class eap_variable_data_c *, unsigned long)
	?store_reauthentication_id@eap_am_type_aka_symbian_c@@UAE?AW4eap_status_e@@PBVeap_am_network_id_c@@PBVeap_variable_data_c@@@Z @ 61 NONAME ; enum eap_status_e eap_am_type_aka_symbian_c::store_reauthentication_id(class eap_am_network_id_c const *, class eap_variable_data_c const *)
	?send_aka_notification_response@eap_type_aka_c@@AAE?AW4eap_status_e@@W4eap_aka_notification_codes_e@@_N@Z @ 62 NONAME ; enum eap_status_e eap_type_aka_c::send_aka_notification_response(enum eap_aka_notification_codes_e, bool)
	?get_includes_other_version_than_1@aka_payloads_c@@QAE_NXZ @ 63 NONAME ; bool aka_payloads_c::get_includes_other_version_than_1(void)
	?get_reserved@aka_payload_AT_header_c@@QBEGXZ @ 64 NONAME ; unsigned short aka_payload_AT_header_c::get_reserved(void) const
	??0aka_variable_data_c@@QAE@PAVabs_eap_am_tools_c@@@Z @ 65 NONAME ; aka_variable_data_c::aka_variable_data_c(class abs_eap_am_tools_c *)
	?generate_shared_secred_keys@eap_type_aka_c@@AAE?AW4eap_status_e@@KPBVeap_variable_data_c@@0PAV3@111@Z @ 66 NONAME ; enum eap_status_e eap_type_aka_c::generate_shared_secred_keys(unsigned long, class eap_variable_data_c const *, class eap_variable_data_c const *, class eap_variable_data_c *, class eap_variable_data_c *, class eap_variable_data_c *, class eap_variable_data_c *)
	?cancel_AKA_RES_query@eap_am_type_aka_symbian_c@@UAE?AW4eap_status_e@@XZ @ 67 NONAME ; enum eap_status_e eap_am_type_aka_symbian_c::cancel_AKA_RES_query(void)
	?query_AKA_IMSI_or_pseudonym_or_reauthentication_id@eap_type_aka_c@@AAE?AW4eap_status_e@@PAVeap_variable_data_c@@000PAK_NW4aka_payload_AT_type_e@@W4eap_type_aka_complete_e@@E@Z @ 68 NONAME ; enum eap_status_e eap_type_aka_c::query_AKA_IMSI_or_pseudonym_or_reauthentication_id(class eap_variable_data_c *, class eap_variable_data_c *, class eap_variable_data_c *, class eap_variable_data_c *, unsigned long *, bool, enum aka_payload_AT_type_e, enum eap_type_aka_complete_e, unsigned char)
	?handle_eap_identity_query@eap_type_aka_c@@AAE?AW4eap_status_e@@PBVeap_am_network_id_c@@PAVeap_variable_data_c@@EPBV4@222K_N@Z @ 69 NONAME ; enum eap_status_e eap_type_aka_c::handle_eap_identity_query(class eap_am_network_id_c const *, class eap_variable_data_c *, unsigned char, class eap_variable_data_c const *, class eap_variable_data_c const *, class eap_variable_data_c const *, class eap_variable_data_c const *, unsigned long, bool)
	?complete_AKA_imsi_L@eap_am_type_aka_symbian_c@@QAE?AW4eap_status_e@@PBVeap_variable_data_c@@W42@@Z @ 70 NONAME ; enum eap_status_e eap_am_type_aka_symbian_c::complete_AKA_imsi_L(class eap_variable_data_c const *, enum eap_status_e)
	?set_data_length@aka_payload_AT_header_c@@QAEXG@Z @ 71 NONAME ; void aka_payload_AT_header_c::set_data_length(unsigned short)
	?get_RES@eap_type_aka_authentication_vector_c@@QBEPAVeap_variable_data_c@@XZ @ 72 NONAME ; class eap_variable_data_c * eap_type_aka_authentication_vector_c::get_RES(void) const
	?send_aka_client_error_response@eap_type_aka_c@@AAE?AW4eap_status_e@@XZ @ 73 NONAME ; enum eap_status_e eap_type_aka_c::send_aka_client_error_response(void)
	?get_data_length@aka_header_c@@QBEGXZ @ 74 NONAME ; unsigned short aka_header_c::get_data_length(void) const
	?eap_acknowledge@eap_type_aka_c@@UAE?AW4eap_status_e@@PBVeap_am_network_id_c@@@Z @ 75 NONAME ; enum eap_status_e eap_type_aka_c::eap_acknowledge(class eap_am_network_id_c const *)
	?check_payloads@aka_payloads_c@@QAE_NW4eap_aka_payload_status_e@1@00000000000000000000@Z @ 76 NONAME ; bool aka_payloads_c::check_payloads(enum aka_payloads_c::eap_aka_payload_status_e, enum aka_payloads_c::eap_aka_payload_status_e, enum aka_payloads_c::eap_aka_payload_status_e, enum aka_payloads_c::eap_aka_payload_status_e, enum aka_payloads_c::eap_aka_payload_status_e, enum aka_payloads_c::eap_aka_payload_status_e, enum aka_payloads_c::eap_aka_payload_status_e, enum aka_payloads_c::eap_aka_payload_status_e, enum aka_payloads_c::eap_aka_payload_status_e, enum aka_payloads_c::eap_aka_payload_status_e, enum aka_payloads_c::eap_aka_payload_status_e, enum aka_payloads_c::eap_aka_payload_status_e, enum aka_payloads_c::eap_aka_payload_status_e, enum aka_payloads_c::eap_aka_payload_status_e, enum aka_payloads_c::eap_aka_payload_status_e, enum aka_payloads_c::eap_aka_payload_status_e, enum aka_payloads_c::eap_aka_payload_status_e, enum aka_payloads_c::eap_aka_payload_status_e, enum aka_payloads_c::eap_aka_payload_status_e, enum aka_payloads_c::eap_aka_payload_status_e, enum aka_payloads_c::eap_aka_payload_status_e)
	?handle_aka_identity_response_message_completion@eap_type_aka_c@@AAE?AW4eap_status_e@@EW42@W4eap_type_aka_identity_type@@_N@Z @ 77 NONAME ; enum eap_status_e eap_type_aka_c::handle_aka_identity_response_message_completion(unsigned char, enum eap_status_e, enum eap_type_aka_identity_type, bool)
	?set_data@aka_fixed_data_c@@QAEXPBVaka_payload_AT_header_c@@GG@Z @ 78 NONAME ; void aka_fixed_data_c::set_data(class aka_payload_AT_header_c const *, unsigned short, unsigned short)
	?get_RAND@eap_type_aka_authentication_vector_c@@QBEPAVeap_variable_data_c@@XZ @ 79 NONAME ; class eap_variable_data_c * eap_type_aka_authentication_vector_c::get_RAND(void) const
	?complete_imsi_from_username@eap_type_aka_c@@UAE?AW4eap_status_e@@EPBVeap_am_network_id_c@@PBVeap_variable_data_c@@1W4eap_type_aka_identity_type@@W42@W4eap_type_aka_complete_e@@@Z @ 80 NONAME ; enum eap_status_e eap_type_aka_c::complete_imsi_from_username(unsigned char, class eap_am_network_id_c const *, class eap_variable_data_c const *, class eap_variable_data_c const *, enum eap_type_aka_identity_type, enum eap_status_e, enum eap_type_aka_complete_e)
	?query_AKA_RES@eap_am_type_aka_symbian_c@@UAE?AW4eap_status_e@@PAVeap_type_aka_authentication_vector_c@@@Z @ 81 NONAME ; enum eap_status_e eap_am_type_aka_symbian_c::query_AKA_RES(class eap_type_aka_authentication_vector_c *)
	?checkcode_save_message_server@eap_type_aka_c@@AAE?AW4eap_status_e@@PBXK@Z @ 82 NONAME ; enum eap_status_e eap_type_aka_c::checkcode_save_message_server(void const *, unsigned long)
	?send_reauthentication_request_message@eap_type_aka_c@@AAE?AW4eap_status_e@@PBVeap_variable_data_c@@_NE@Z @ 83 NONAME ; enum eap_status_e eap_type_aka_c::send_reauthentication_request_message(class eap_variable_data_c const *, bool, unsigned char)
	?add_mac_payload@eap_type_aka_c@@AAE?AW4eap_status_e@@PAVaka_header_c@@KKPAK111PAPAE1@Z @ 84 NONAME ; enum eap_status_e eap_type_aka_c::add_mac_payload(class aka_header_c *, unsigned long, unsigned long, unsigned long *, unsigned long *, unsigned long *, unsigned long *, unsigned char * *, unsigned long *)
	?cancel_notification_message_delay_timer@eap_type_aka_c@@AAE?AW4eap_status_e@@XZ @ 85 NONAME ; enum eap_status_e eap_type_aka_c::cancel_notification_message_delay_timer(void)
	?check_message_authentication_code@eap_type_aka_c@@AAE?AW4eap_status_e@@PBVeap_variable_data_c@@PAVaka_payloads_c@@PBVaka_header_c@@K@Z @ 86 NONAME ; enum eap_status_e eap_type_aka_c::check_message_authentication_code(class eap_variable_data_c const *, class aka_payloads_c *, class aka_header_c const *, unsigned long)
	?check_valid_types@eap_type_aka_state_variable_parameters_c@@QBE_NW4aka_subtype_e@@@Z @ 87 NONAME ; bool eap_type_aka_state_variable_parameters_c::check_valid_types(enum aka_subtype_e) const
	??0eap_type_aka_authentication_vector_c@@QAE@PAVabs_eap_am_tools_c@@@Z @ 88 NONAME ; eap_type_aka_authentication_vector_c::eap_type_aka_authentication_vector_c(class abs_eap_am_tools_c *)
	?get_sub_type_offset@aka_header_c@@QBEKXZ @ 89 NONAME ; unsigned long aka_header_c::get_sub_type_offset(void) const
	?generate_reauthentication_id@eap_am_type_aka_symbian_c@@UAE?AW4eap_status_e@@PBVeap_am_network_id_c@@PBVeap_variable_data_c@@PAV4@K@Z @ 90 NONAME ; enum eap_status_e eap_am_type_aka_symbian_c::generate_reauthentication_id(class eap_am_network_id_c const *, class eap_variable_data_c const *, class eap_variable_data_c *, unsigned long)
	?reset@eap_type_aka_authentication_vector_c@@QAEXXZ @ 91 NONAME ; void eap_type_aka_authentication_vector_c::reset(void)
	?handle_identity_response_message@eap_type_aka_c@@AAE?AW4eap_status_e@@PAVeap_header_rd_c@@K@Z @ 92 NONAME ; enum eap_status_e eap_type_aka_c::handle_identity_response_message(class eap_header_rd_c *, unsigned long)
	?get_data_length@aka_variable_data_c@@QBEKXZ @ 93 NONAME ; unsigned long aka_variable_data_c::get_data_length(void) const
	??0eap_type_aka_state_notification_c@@QAE@PAVabs_eap_am_tools_c@@PBVeap_am_network_id_c@@_NW4eap_state_notification_generic_e@@W4eap_protocol_layer_e@@KKKE2@Z @ 94 NONAME ; eap_type_aka_state_notification_c::eap_type_aka_state_notification_c(class abs_eap_am_tools_c *, class eap_am_network_id_c const *, bool, enum eap_state_notification_generic_e, enum eap_protocol_layer_e, unsigned long, unsigned long, unsigned long, unsigned char, bool)
	?get_data_offset@aka_payload_AT_header_c@@QBEPAEKK@Z @ 95 NONAME ; unsigned char * aka_payload_AT_header_c::get_data_offset(unsigned long, unsigned long) const
	?get_data@aka_payload_AT_header_c@@QBEPAEK@Z @ 96 NONAME ; unsigned char * aka_payload_AT_header_c::get_data(unsigned long) const
	?get_original_header@aka_fixed_data_c@@QAEPBVaka_payload_AT_header_c@@XZ @ 97 NONAME ; class aka_payload_AT_header_c const * aka_fixed_data_c::get_original_header(void)
	?store_identity@eap_type_aka_c@@AAE?AW4eap_status_e@@PBVeap_variable_data_c@@_N@Z @ 98 NONAME ; enum eap_status_e eap_type_aka_c::store_identity(class eap_variable_data_c const *, bool)
	?set_is_valid@eap_type_aka_c@@UAEXXZ @ 99 NONAME ; void eap_type_aka_c::set_is_valid(void)
	?cancel_AKA_IMSI_or_pseudonym_or_reauthentication_id_query@eap_am_type_aka_symbian_c@@UAE?AW4eap_status_e@@XZ @ 100 NONAME ; enum eap_status_e eap_am_type_aka_symbian_c::cancel_AKA_IMSI_or_pseudonym_or_reauthentication_id_query(void)
	?configure@eap_am_type_aka_symbian_c@@UAE?AW4eap_status_e@@XZ @ 101 NONAME ; enum eap_status_e eap_am_type_aka_symbian_c::configure(void)
	?authentication_finished@eap_am_type_aka_symbian_c@@UAE?AW4eap_status_e@@_NW4eap_aka_authentication_type_e@@W4eap_type_aka_identity_type@@@Z @ 102 NONAME ; enum eap_status_e eap_am_type_aka_symbian_c::authentication_finished(bool, enum eap_aka_authentication_type_e, enum eap_type_aka_identity_type)
	?create_message_authentication_code@eap_type_aka_c@@QAE?AW4eap_status_e@@PAVeap_type_aka_MAC_attributes_c@@W4aka_subtype_e@@W4eap_code_value_e@@PBVeap_variable_data_c@@@Z @ 103 NONAME ; enum eap_status_e eap_type_aka_c::create_message_authentication_code(class eap_type_aka_MAC_attributes_c *, enum aka_subtype_e, enum eap_code_value_e, class eap_variable_data_c const *)
	?get_max_payload_data_length@aka_payload_AT_header_c@@SAGXZ @ 104 NONAME ; unsigned short aka_payload_AT_header_c::get_max_payload_data_length(void)
	?initialize_state@eap_type_aka_c@@AAEXW4eap_type_aka_state_variable_e@@_N1W4aka_subtype_e@@2222@Z @ 105 NONAME ; void eap_type_aka_c::initialize_state(enum eap_type_aka_state_variable_e, bool, bool, enum aka_subtype_e, enum aka_subtype_e, enum aka_subtype_e, enum aka_subtype_e, enum aka_subtype_e)
	?add_simple_payload@eap_type_aka_c@@AAE?AW4eap_status_e@@PAVaka_header_c@@KKPAK111W4aka_payload_AT_type_e@@@Z @ 106 NONAME ; enum eap_status_e eap_type_aka_c::add_simple_payload(class aka_header_c *, unsigned long, unsigned long, unsigned long *, unsigned long *, unsigned long *, unsigned long *, enum aka_payload_AT_type_e)
	?send_aka_synchronization_failure_response_message@eap_type_aka_c@@AAE?AW4eap_status_e@@PBVeap_type_aka_authentication_vector_c@@@Z @ 107 NONAME ; enum eap_status_e eap_type_aka_c::send_aka_synchronization_failure_response_message(class eap_type_aka_authentication_vector_c const *)
	?complete_AKA_authentication_vector_query@eap_type_aka_c@@UAE?AW4eap_status_e@@PAVeap_type_aka_authentication_vector_c@@PBVeap_variable_data_c@@W4eap_aka_authentication_vector_status_e@@W4eap_type_aka_identity_type@@W42@E@Z @ 108 NONAME ; enum eap_status_e eap_type_aka_c::complete_AKA_authentication_vector_query(class eap_type_aka_authentication_vector_c *, class eap_variable_data_c const *, enum eap_aka_authentication_vector_status_e, enum eap_type_aka_identity_type, enum eap_status_e, unsigned char)
	?set_notification_message_delay_timer@eap_type_aka_c@@AAE?AW4eap_status_e@@XZ @ 109 NONAME ; enum eap_status_e eap_type_aka_c::set_notification_message_delay_timer(void)
	?get_is_valid@aka_fixed_data_c@@QBE_NXZ @ 110 NONAME ; bool aka_fixed_data_c::get_is_valid(void) const
	?get_code_string@aka_header_c@@QBEPBDXZ @ 111 NONAME ; char const * aka_header_c::get_code_string(void) const
	?handle_notification_response_message_reauthentication@eap_type_aka_c@@AAE?AW4eap_status_e@@PBVeap_am_network_id_c@@PAVaka_header_c@@KPAVaka_payloads_c@@@Z @ 112 NONAME ; enum eap_status_e eap_type_aka_c::handle_notification_response_message_reauthentication(class eap_am_network_id_c const *, class aka_header_c *, unsigned long, class aka_payloads_c *)
	?init_state@eap_type_aka_state_variable_parameters_c@@QAEX_N0W4aka_subtype_e@@1111@Z @ 113 NONAME ; void eap_type_aka_state_variable_parameters_c::init_state(bool, bool, enum aka_subtype_e, enum aka_subtype_e, enum aka_subtype_e, enum aka_subtype_e, enum aka_subtype_e)
	?add_client_error_payload@eap_type_aka_c@@AAE?AW4eap_status_e@@PAVaka_header_c@@KKPAK111W4eap_aka_client_error_code_e@@@Z @ 114 NONAME ; enum eap_status_e eap_type_aka_c::add_client_error_payload(class aka_header_c *, unsigned long, unsigned long, unsigned long *, unsigned long *, unsigned long *, unsigned long *, enum eap_aka_client_error_code_e)
	?get_type@aka_fixed_data_c@@QBEGPAVabs_eap_am_tools_c@@@Z @ 115 NONAME ; unsigned short aka_fixed_data_c::get_type(class abs_eap_am_tools_c *) const
	?store_pseudonym_id@eap_am_type_aka_symbian_c@@UAE?AW4eap_status_e@@PBVeap_am_network_id_c@@PBVeap_variable_data_c@@@Z @ 116 NONAME ; enum eap_status_e eap_am_type_aka_symbian_c::store_pseudonym_id(class eap_am_network_id_c const *, class eap_variable_data_c const *)
	?set_is_valid@eap_am_type_aka_symbian_c@@QAEXXZ @ 117 NONAME ; void eap_am_type_aka_symbian_c::set_is_valid(void)
	?send_aka_identity_request_message@eap_type_aka_c@@AAE?AW4eap_status_e@@_NE@Z @ 118 NONAME ; enum eap_status_e eap_type_aka_c::send_aka_identity_request_message(bool, unsigned char)
	?handle_aka_packet@eap_type_aka_c@@AAE?AW4eap_status_e@@PBVeap_am_network_id_c@@PAVaka_header_c@@KPAVaka_payloads_c@@@Z @ 119 NONAME ; enum eap_status_e eap_type_aka_c::handle_aka_packet(class eap_am_network_id_c const *, class aka_header_c *, unsigned long, class aka_payloads_c *)
	?analyse_aka_packet@eap_type_aka_c@@AAE?AW4eap_status_e@@PBVeap_am_network_id_c@@PAVaka_header_c@@KPAVaka_payloads_c@@@Z @ 120 NONAME ; enum eap_status_e eap_type_aka_c::analyse_aka_packet(class eap_am_network_id_c const *, class aka_header_c *, unsigned long, class aka_payloads_c *)
	?update_buffer_indexes@eap_type_aka_c@@AAEXKKPAK0@Z @ 121 NONAME ; void eap_type_aka_c::update_buffer_indexes(unsigned long, unsigned long, unsigned long *, unsigned long *)
	?handle_reauthentication_response_message@eap_type_aka_c@@AAE?AW4eap_status_e@@PBVeap_am_network_id_c@@PAVaka_header_c@@KPAVaka_payloads_c@@@Z @ 122 NONAME ; enum eap_status_e eap_type_aka_c::handle_reauthentication_response_message(class eap_am_network_id_c const *, class aka_header_c *, unsigned long, class aka_payloads_c *)
	?get_is_valid@eap_type_aka_authentication_vector_c@@QBE_NXZ @ 123 NONAME ; bool eap_type_aka_authentication_vector_c::get_is_valid(void) const
	?get_nai_realm@eap_type_aka_c@@AAEPAVeap_variable_data_c@@XZ @ 124 NONAME ; class eap_variable_data_c * eap_type_aka_c::get_nai_realm(void)
	??1aka_header_c@@UAE@XZ @ 125 NONAME ; aka_header_c::~aka_header_c(void)
	?checkcode_verify@eap_type_aka_c@@AAE?AW4eap_status_e@@PBVeap_variable_data_c@@@Z @ 126 NONAME ; enum eap_status_e eap_type_aka_c::checkcode_verify(class eap_variable_data_c const *)
	?timer_delete_data@eap_type_aka_c@@UAE?AW4eap_status_e@@KPAX@Z @ 127 NONAME ; enum eap_status_e eap_type_aka_c::timer_delete_data(unsigned long, void *)
	?checkcode_verify_payloads@eap_type_aka_c@@AAE?AW4eap_status_e@@PAVaka_payloads_c@@@Z @ 128 NONAME ; enum eap_status_e eap_type_aka_c::checkcode_verify_payloads(class aka_payloads_c *)
	?reset_header@aka_payload_AT_header_c@@QAEXG@Z @ 129 NONAME ; void aka_payload_AT_header_c::reset_header(unsigned short)
	?check_header@aka_header_c@@UBE?AW4eap_status_e@@XZ @ 130 NONAME ; enum eap_status_e aka_header_c::check_header(void) const
	?checkcode_init@eap_type_aka_c@@AAE?AW4eap_status_e@@XZ @ 131 NONAME ; enum eap_status_e eap_type_aka_c::checkcode_init(void)
	?compare_payload_first_is_less@eap_type_aka_c@@CA_NPBW4aka_payload_AT_type_e@@0PAVabs_eap_am_tools_c@@@Z @ 132 NONAME ; bool eap_type_aka_c::compare_payload_first_is_less(enum aka_payload_AT_type_e const *, enum aka_payload_AT_type_e const *, class abs_eap_am_tools_c *)
	?set_reserved@aka_header_c@@QAEXG@Z @ 133 NONAME ; void aka_header_c::set_reserved(unsigned short)
	?set_includes_unknown_attribute@aka_payloads_c@@QAEXW4aka_payload_AT_type_e@@@Z @ 134 NONAME ; void aka_payloads_c::set_includes_unknown_attribute(enum aka_payload_AT_type_e)
	?send_aka_identity_response_message@eap_type_aka_c@@AAE?AW4eap_status_e@@PBVeap_am_network_id_c@@EW4aka_payload_AT_type_e@@PBVeap_variable_data_c@@@Z @ 135 NONAME ; enum eap_status_e eap_type_aka_c::send_aka_identity_response_message(class eap_am_network_id_c const *, unsigned char, enum aka_payload_AT_type_e, class eap_variable_data_c const *)
	?get_data@aka_header_c@@QBEPAEK@Z @ 136 NONAME ; unsigned char * aka_header_c::get_data(unsigned long) const
	?get_includes_unknown_attribute@aka_payloads_c@@QAE?AW4aka_payload_AT_type_e@@XZ @ 137 NONAME ; enum aka_payload_AT_type_e aka_payloads_c::get_includes_unknown_attribute(void)
	?reset@eap_am_type_aka_symbian_c@@UAE?AW4eap_status_e@@XZ @ 138 NONAME ; enum eap_status_e eap_am_type_aka_symbian_c::reset(void)
	??1eap_type_aka_state_variable_parameters_c@@UAE@XZ @ 139 NONAME ; eap_type_aka_state_variable_parameters_c::~eap_type_aka_state_variable_parameters_c(void)
	?add_counter_payload@eap_type_aka_c@@AAE?AW4eap_status_e@@PAVaka_header_c@@KKPAK111G@Z @ 140 NONAME ; enum eap_status_e eap_type_aka_c::add_counter_payload(class aka_header_c *, unsigned long, unsigned long, unsigned long *, unsigned long *, unsigned long *, unsigned long *, unsigned short)
	?check_NAI@eap_type_aka_c@@AAE?AW4eap_status_e@@PBEK0@Z @ 141 NONAME ; enum eap_status_e eap_type_aka_c::check_NAI(unsigned char const *, unsigned long, unsigned char const *)
	?store_reauth_parameters@eap_am_type_aka_symbian_c@@UAE?AW4eap_status_e@@PBVeap_variable_data_c@@00K@Z @ 142 NONAME ; enum eap_status_e eap_am_type_aka_symbian_c::store_reauth_parameters(class eap_variable_data_c const *, class eap_variable_data_c const *, class eap_variable_data_c const *, unsigned long)
	?get_is_client@eap_type_aka_c@@UAE_NXZ @ 143 NONAME ; bool eap_type_aka_c::get_is_client(void)
	?aka_packet_process@eap_type_aka_c@@AAE?AW4eap_status_e@@PBVeap_am_network_id_c@@PAVaka_header_c@@K_N@Z @ 144 NONAME ; enum eap_status_e eap_type_aka_c::aka_packet_process(class eap_am_network_id_c const *, class aka_header_c *, unsigned long, bool)
	?random_selection@eap_type_aka_c@@AAE_NXZ @ 145 NONAME ; bool eap_type_aka_c::random_selection(void)
	?shutdown@eap_am_type_aka_symbian_c@@UAE?AW4eap_status_e@@XZ @ 146 NONAME ; enum eap_status_e eap_am_type_aka_symbian_c::shutdown(void)
	?check_synchronization_failure_response_message@eap_type_aka_c@@AAE?AW4eap_status_e@@PBVeap_am_network_id_c@@PAVaka_header_c@@KPAVaka_payloads_c@@@Z @ 147 NONAME ; enum eap_status_e eap_type_aka_c::check_synchronization_failure_response_message(class eap_am_network_id_c const *, class aka_header_c *, unsigned long, class aka_payloads_c *)
	?get_payload_buffer@aka_variable_data_c@@QAEPAVeap_variable_data_c@@XZ @ 148 NONAME ; class eap_variable_data_c * aka_variable_data_c::get_payload_buffer(void)
	?get_is_valid@aka_variable_data_c@@QBE_NXZ @ 149 NONAME ; bool aka_variable_data_c::get_is_valid(void) const
	?handle_notification_response_message@eap_type_aka_c@@AAE?AW4eap_status_e@@PBVeap_am_network_id_c@@PAVaka_header_c@@KPAVaka_payloads_c@@@Z @ 150 NONAME ; enum eap_status_e eap_type_aka_c::handle_notification_response_message(class eap_am_network_id_c const *, class aka_header_c *, unsigned long, class aka_payloads_c *)
	?type_configure_write@eap_am_type_aka_symbian_c@@UAE?AW4eap_status_e@@PBVeap_configuration_field_c@@PAVeap_variable_data_c@@@Z @ 151 NONAME ; enum eap_status_e eap_am_type_aka_symbian_c::type_configure_write(class eap_configuration_field_c const *, class eap_variable_data_c *)
	?get_subtype_string@aka_header_c@@QBEPBDXZ @ 152 NONAME ; char const * aka_header_c::get_subtype_string(void) const
	?read_configure@eap_type_aka_c@@UAE?AW4eap_status_e@@PBVeap_configuration_field_c@@PAVeap_variable_data_c@@@Z @ 153 NONAME ; enum eap_status_e eap_type_aka_c::read_configure(class eap_configuration_field_c const *, class eap_variable_data_c *)
	?new_handler@eap_type_aka_c@@AAE?AW4eap_status_e@@PBVeap_am_network_id_c@@_N@Z @ 154 NONAME ; enum eap_status_e eap_type_aka_c::new_handler(class eap_am_network_id_c const *, bool)
	?add_RES_payload@eap_type_aka_c@@AAE?AW4eap_status_e@@PAVaka_header_c@@KKPAK111PBVeap_variable_data_c@@W4aka_payload_AT_type_e@@@Z @ 155 NONAME ; enum eap_status_e eap_type_aka_c::add_RES_payload(class aka_header_c *, unsigned long, unsigned long, unsigned long *, unsigned long *, unsigned long *, unsigned long *, class eap_variable_data_c const *, enum aka_payload_AT_type_e)
	?decrypt_DATA_payload@eap_type_aka_c@@AAE?AW4eap_status_e@@PAVaka_payloads_c@@PBVeap_variable_data_c@@@Z @ 156 NONAME ; enum eap_status_e eap_type_aka_c::decrypt_DATA_payload(class aka_payloads_c *, class eap_variable_data_c const *)
	?query_AKA_IMSI_or_pseudonym_or_reauthentication_id@eap_am_type_aka_symbian_c@@UAE?AW4eap_status_e@@PAVeap_variable_data_c@@000PAKW4aka_payload_AT_type_e@@W4eap_type_aka_complete_e@@E@Z @ 157 NONAME ; enum eap_status_e eap_am_type_aka_symbian_c::query_AKA_IMSI_or_pseudonym_or_reauthentication_id(class eap_variable_data_c *, class eap_variable_data_c *, class eap_variable_data_c *, class eap_variable_data_c *, unsigned long *, enum aka_payload_AT_type_e, enum eap_type_aka_complete_e, unsigned char)
	?set_initial_eap_identifier@eap_type_aka_c@@UAE?AW4eap_status_e@@PBVeap_am_network_id_c@@E@Z @ 158 NONAME ; enum eap_status_e eap_type_aka_c::set_initial_eap_identifier(class eap_am_network_id_c const *, unsigned char)
	?reset@eap_type_aka_c@@UAE?AW4eap_status_e@@XZ @ 159 NONAME ; enum eap_status_e eap_type_aka_c::reset(void)
	?parse_generic_payload@eap_type_aka_c@@AAE?AW4eap_status_e@@W4aka_payload_AT_type_e@@PBVaka_payload_AT_header_c@@PAVaka_payloads_c@@W4aka_subtype_e@@@Z @ 160 NONAME ; enum eap_status_e eap_type_aka_c::parse_generic_payload(enum aka_payload_AT_type_e, class aka_payload_AT_header_c const *, class aka_payloads_c *, enum aka_subtype_e)
	?checkcode_update_saved_message@eap_type_aka_c@@AAE?AW4eap_status_e@@XZ @ 161 NONAME ; enum eap_status_e eap_type_aka_c::checkcode_update_saved_message(void)
	?complete_AKA_IMSI_or_pseudonym_or_reauthentication_id_query@eap_type_aka_c@@UAE?AW4eap_status_e@@PBVeap_variable_data_c@@000KW4eap_type_aka_complete_e@@EW42@@Z @ 162 NONAME ; enum eap_status_e eap_type_aka_c::complete_AKA_IMSI_or_pseudonym_or_reauthentication_id_query(class eap_variable_data_c const *, class eap_variable_data_c const *, class eap_variable_data_c const *, class eap_variable_data_c const *, unsigned long, enum eap_type_aka_complete_e, unsigned char, enum eap_status_e)
	?type_configure_read@eap_am_type_aka_symbian_c@@UAE?AW4eap_status_e@@PBVeap_configuration_field_c@@PAVeap_variable_data_c@@@Z @ 163 NONAME ; enum eap_status_e eap_am_type_aka_symbian_c::type_configure_read(class eap_configuration_field_c const *, class eap_variable_data_c *)
	?send_aka_authentication_reject_response_message@eap_type_aka_c@@AAE?AW4eap_status_e@@PBVeap_type_aka_authentication_vector_c@@@Z @ 164 NONAME ; enum eap_status_e eap_type_aka_c::send_aka_authentication_reject_response_message(class eap_type_aka_authentication_vector_c const *)
	?checkcode_update@eap_type_aka_c@@AAE?AW4eap_status_e@@PBXK@Z @ 165 NONAME ; enum eap_status_e eap_type_aka_c::checkcode_update(void const *, unsigned long)
	?get_is_valid@eap_type_aka_c@@UAE_NXZ @ 166 NONAME ; bool eap_type_aka_c::get_is_valid(void)
	?handle_aka_identity_response_message@eap_type_aka_c@@AAE?AW4eap_status_e@@PAVaka_header_c@@KPAVaka_payloads_c@@@Z @ 167 NONAME ; enum eap_status_e eap_type_aka_c::handle_aka_identity_response_message(class aka_header_c *, unsigned long, class aka_payloads_c *)
	?checkcode_save_message_client@eap_type_aka_c@@AAE?AW4eap_status_e@@PBXKPAVaka_payloads_c@@@Z @ 168 NONAME ; enum eap_status_e eap_type_aka_c::checkcode_save_message_client(void const *, unsigned long, class aka_payloads_c *)
	?reset@aka_variable_data_c@@QAE?AW4eap_status_e@@XZ @ 169 NONAME ; enum eap_status_e aka_variable_data_c::reset(void)
	?handle_aka_notification_request_message_full_authentication@eap_type_aka_c@@AAE?AW4eap_status_e@@PBVeap_am_network_id_c@@PAVaka_header_c@@KPAVaka_payloads_c@@@Z @ 170 NONAME ; enum eap_status_e eap_type_aka_c::handle_aka_notification_request_message_full_authentication(class eap_am_network_id_c const *, class aka_header_c *, unsigned long, class aka_payloads_c *)
	?parse_aka_packet@eap_type_aka_c@@AAE?AW4eap_status_e@@PAVaka_header_c@@KPAVaka_payloads_c@@@Z @ 171 NONAME ; enum eap_status_e eap_type_aka_c::parse_aka_packet(class aka_header_c *, unsigned long, class aka_payloads_c *)
	?extra_message_authentication_code_bytes@eap_type_aka_c@@QAE?AW4eap_status_e@@W4aka_subtype_e@@W4eap_code_value_e@@PAVcrypto_hmac_c@@@Z @ 172 NONAME ; enum eap_status_e eap_type_aka_c::extra_message_authentication_code_bytes(enum aka_subtype_e, enum eap_code_value_e, class crypto_hmac_c *)
	?handle_aka_identity_request_message@eap_type_aka_c@@AAE?AW4eap_status_e@@PBVeap_am_network_id_c@@PAVaka_header_c@@KPAVaka_payloads_c@@@Z @ 173 NONAME ; enum eap_status_e eap_type_aka_c::handle_aka_identity_request_message(class eap_am_network_id_c const *, class aka_header_c *, unsigned long, class aka_payloads_c *)
	?set_includes_other_version_than_1@aka_payloads_c@@QAEX_N@Z @ 174 NONAME ; void aka_payloads_c::set_includes_other_version_than_1(bool)
	?get_IK@eap_type_aka_authentication_vector_c@@QBEPAVeap_variable_data_c@@XZ @ 175 NONAME ; class eap_variable_data_c * eap_type_aka_authentication_vector_c::get_IK(void) const
	??0eap_type_aka_state_notification_c@@QAE@PAVabs_eap_am_tools_c@@PBVeap_am_network_id_c@@_NW4eap_state_notification_eap_e@@W4eap_protocol_layer_e@@Veap_expanded_type_c@@KKE2@Z @ 176 NONAME ; eap_type_aka_state_notification_c::eap_type_aka_state_notification_c(class abs_eap_am_tools_c *, class eap_am_network_id_c const *, bool, enum eap_state_notification_eap_e, enum eap_protocol_layer_e, class eap_expanded_type_c, unsigned long, unsigned long, unsigned char, bool)
	?query_eap_identity@eap_type_aka_c@@UAE?AW4eap_status_e@@_NPAVeap_variable_data_c@@PBVeap_am_network_id_c@@E@Z @ 177 NONAME ; enum eap_status_e eap_type_aka_c::query_eap_identity(bool, class eap_variable_data_c *, class eap_am_network_id_c const *, unsigned char)
	?get_AUTS@eap_type_aka_authentication_vector_c@@QBEPAVeap_variable_data_c@@XZ @ 178 NONAME ; class eap_variable_data_c * eap_type_aka_authentication_vector_c::get_AUTS(void) const
	?get_vector_status@eap_type_aka_authentication_vector_c@@QBE?AW4eap_status_e@@XZ @ 179 NONAME ; enum eap_status_e eap_type_aka_authentication_vector_c::get_vector_status(void) const
	?get_original_header@aka_variable_data_c@@QBEPBVaka_payload_AT_header_c@@XZ @ 180 NONAME ; class aka_payload_AT_header_c const * aka_variable_data_c::get_original_header(void) const
	?set_subtype@aka_header_c@@QAEXW4aka_subtype_e@@@Z @ 181 NONAME ; void aka_header_c::set_subtype(enum aka_subtype_e)
	?handle_aka_notification@eap_am_type_aka_symbian_c@@UAE?AW4eap_status_e@@W4eap_aka_notification_codes_e@@@Z @ 182 NONAME ; enum eap_status_e eap_am_type_aka_symbian_c::handle_aka_notification(enum eap_aka_notification_codes_e)
	?handle_notification_packet@eap_type_aka_c@@AAE?AW4eap_status_e@@XZ @ 183 NONAME ; enum eap_status_e eap_type_aka_c::handle_notification_packet(void)
	??1aka_payloads_c@@UAE@XZ @ 184 NONAME ; aka_payloads_c::~aka_payloads_c(void)
	?handle_aka_notification_request_message_reauthentication@eap_type_aka_c@@AAE?AW4eap_status_e@@PBVeap_am_network_id_c@@PAVaka_header_c@@KPAVaka_payloads_c@@@Z @ 185 NONAME ; enum eap_status_e eap_type_aka_c::handle_aka_notification_request_message_reauthentication(class eap_am_network_id_c const *, class aka_header_c *, unsigned long, class aka_payloads_c *)
	?data_exp@eap_type_aka_c@@AAE?AW4eap_status_e@@KPAVeap_variable_data_c@@PBV3@1@Z @ 186 NONAME ; enum eap_status_e eap_type_aka_c::data_exp(unsigned long, class eap_variable_data_c *, class eap_variable_data_c const *, class eap_variable_data_c const *)
	?query_reauth_parameters@eap_am_type_aka_symbian_c@@UAE?AW4eap_status_e@@PAVeap_variable_data_c@@00PAK@Z @ 187 NONAME ; enum eap_status_e eap_am_type_aka_symbian_c::query_reauth_parameters(class eap_variable_data_c *, class eap_variable_data_c *, class eap_variable_data_c *, unsigned long *)
	?get_state_string@eap_type_aka_c@@SAPBDW4eap_type_aka_state_variable_e@@@Z @ 188 NONAME ; char const * eap_type_aka_c::get_state_string(enum eap_type_aka_state_variable_e)
	??0eap_type_aka_state_variable_parameters_c@@QAE@XZ @ 189 NONAME ; eap_type_aka_state_variable_parameters_c::eap_type_aka_state_variable_parameters_c(void)
	?get_identity_string@eap_type_aka_c@@SAPBDW4eap_type_aka_identity_type@@@Z @ 190 NONAME ; char const * eap_type_aka_c::get_identity_string(enum eap_type_aka_identity_type)
	?get_header_offset@eap_type_aka_c@@QAEKPAK0@Z @ 191 NONAME ; unsigned long eap_type_aka_c::get_header_offset(unsigned long *, unsigned long *)
	?handle_DATA_payload@eap_type_aka_c@@AAE?AW4eap_status_e@@W4aka_subtype_e@@PAVaka_payloads_c@@@Z @ 192 NONAME ; enum eap_status_e eap_type_aka_c::handle_DATA_payload(enum aka_subtype_e, class aka_payloads_c *)
	?copy@eap_type_aka_authentication_vector_c@@QBEPAV1@XZ @ 193 NONAME ; class eap_type_aka_authentication_vector_c * eap_type_aka_authentication_vector_c::copy(void) const
	?check_one_payload@aka_payloads_c@@QAE_NW4eap_aka_payload_status_e@1@PBVaka_variable_data_c@@@Z @ 194 NONAME ; bool aka_payloads_c::check_one_payload(enum aka_payloads_c::eap_aka_payload_status_e, class aka_variable_data_c const *)
	?timer_expired@eap_type_aka_c@@UAE?AW4eap_status_e@@KPAX@Z @ 195 NONAME ; enum eap_status_e eap_type_aka_c::timer_expired(unsigned long, void *)
	?send_reauthentication_response_message@eap_type_aka_c@@AAE?AW4eap_status_e@@PBVeap_variable_data_c@@0000GE_N@Z @ 196 NONAME ; enum eap_status_e eap_type_aka_c::send_reauthentication_response_message(class eap_variable_data_c const *, class eap_variable_data_c const *, class eap_variable_data_c const *, class eap_variable_data_c const *, class eap_variable_data_c const *, unsigned short, unsigned char, bool)
	?get_next_header@aka_payload_AT_header_c@@QBEPAEXZ @ 197 NONAME ; unsigned char * aka_payload_AT_header_c::get_next_header(void) const
	?get_CK@eap_type_aka_authentication_vector_c@@QBEPAVeap_variable_data_c@@XZ @ 198 NONAME ; class eap_variable_data_c * eap_type_aka_authentication_vector_c::get_CK(void) const
	?get_subtype@aka_header_c@@QBE?AW4aka_subtype_e@@XZ @ 199 NONAME ; enum aka_subtype_e aka_header_c::get_subtype(void) const
	?complete_AKA_RES_L@eap_am_type_aka_symbian_c@@QAE?AW4eap_status_e@@PAVeap_variable_data_c@@000W42@1@Z @ 200 NONAME ; enum eap_status_e eap_am_type_aka_symbian_c::complete_AKA_RES_L(class eap_variable_data_c *, class eap_variable_data_c *, class eap_variable_data_c *, class eap_variable_data_c *, enum eap_status_e, enum eap_status_e)
	??0eap_type_aka_state_notification_c@@QAE@PAVabs_eap_am_tools_c@@PBVeap_am_network_id_c@@_NW4eap_state_notification_eap_e@@W4eap_protocol_layer_e@@W4eap_type_ietf_values_e@@KKE2@Z @ 201 NONAME ; eap_type_aka_state_notification_c::eap_type_aka_state_notification_c(class abs_eap_am_tools_c *, class eap_am_network_id_c const *, bool, enum eap_state_notification_eap_e, enum eap_protocol_layer_e, enum eap_type_ietf_values_e, unsigned long, unsigned long, unsigned char, bool)
	?randomly_refuse_eap_identity@eap_type_aka_c@@AAE_NXZ @ 202 NONAME ; bool eap_type_aka_c::randomly_refuse_eap_identity(void)
	?add_notification_payload@eap_type_aka_c@@AAE?AW4eap_status_e@@PAVaka_header_c@@KKPAK111W4eap_aka_notification_codes_e@@@Z @ 203 NONAME ; enum eap_status_e eap_type_aka_c::add_notification_payload(class aka_header_c *, unsigned long, unsigned long, unsigned long *, unsigned long *, unsigned long *, unsigned long *, enum eap_aka_notification_codes_e)
	?query_SIM_imsi@eap_am_type_aka_symbian_c@@QAE?AW4eap_status_e@@PAEKPAK@Z @ 204 NONAME ; enum eap_status_e eap_am_type_aka_symbian_c::query_SIM_imsi(unsigned char *, unsigned long, unsigned long *)
	?complete_AKA_RES_query@eap_type_aka_c@@UAE?AW4eap_status_e@@PBVeap_type_aka_authentication_vector_c@@W42@@Z @ 205 NONAME ; enum eap_status_e eap_type_aka_c::complete_AKA_RES_query(class eap_type_aka_authentication_vector_c const *, enum eap_status_e)
	?shutdown@eap_type_aka_c@@UAE?AW4eap_status_e@@XZ @ 206 NONAME ; enum eap_status_e eap_type_aka_c::shutdown(void)
	?handle_imsi_from_username@eap_type_aka_c@@QAE?AW4eap_status_e@@EPBVeap_am_network_id_c@@PBVeap_variable_data_c@@1W4eap_type_aka_identity_type@@@Z @ 207 NONAME ; enum eap_status_e eap_type_aka_c::handle_imsi_from_username(unsigned char, class eap_am_network_id_c const *, class eap_variable_data_c const *, class eap_variable_data_c const *, enum eap_type_aka_identity_type)
	?query_imsi_from_username@eap_am_type_aka_symbian_c@@UAE?AW4eap_status_e@@EPBVeap_am_network_id_c@@PBVeap_variable_data_c@@PAV4@PAW4eap_type_aka_identity_type@@W4eap_type_aka_complete_e@@@Z @ 208 NONAME ; enum eap_status_e eap_am_type_aka_symbian_c::query_imsi_from_username(unsigned char, class eap_am_network_id_c const *, class eap_variable_data_c const *, class eap_variable_data_c *, enum eap_type_aka_identity_type *, enum eap_type_aka_complete_e)
	?get_payload_length@aka_payload_AT_header_c@@QBEGXZ @ 209 NONAME ; unsigned short aka_payload_AT_header_c::get_payload_length(void) const
	?generate_nai@eap_type_aka_c@@AAE?AW4eap_status_e@@PAVeap_variable_data_c@@_NPBV3@2122K@Z @ 210 NONAME ; enum eap_status_e eap_type_aka_c::generate_nai(class eap_variable_data_c *, bool, class eap_variable_data_c const *, class eap_variable_data_c const *, bool, class eap_variable_data_c const *, class eap_variable_data_c const *, unsigned long)
	??1aka_fixed_data_c@@UAE@XZ @ 211 NONAME ; aka_fixed_data_c::~aka_fixed_data_c(void)
	?process_AKA_kc_sres@eap_type_aka_c@@AAE?AW4eap_status_e@@PBVeap_type_aka_authentication_vector_c@@@Z @ 212 NONAME ; enum eap_status_e eap_type_aka_c::process_AKA_kc_sres(class eap_type_aka_authentication_vector_c const *)
	?get_payload_AT_string@aka_payload_AT_header_c@@SAPBDW4aka_payload_AT_type_e@@@Z @ 213 NONAME ; char const * aka_payload_AT_header_c::get_payload_AT_string(enum aka_payload_AT_type_e)
	?set_current_payload@aka_payload_AT_header_c@@QAEXW4aka_payload_AT_type_e@@@Z @ 214 NONAME ; void aka_payload_AT_header_c::set_current_payload(enum aka_payload_AT_type_e)
	?send_final_notification@eap_type_aka_c@@AAE?AW4eap_status_e@@XZ @ 215 NONAME ; enum eap_status_e eap_type_aka_c::send_final_notification(void)
	?checkcode_final@eap_type_aka_c@@AAE?AW4eap_status_e@@PAVeap_variable_data_c@@@Z @ 216 NONAME ; enum eap_status_e eap_type_aka_c::checkcode_final(class eap_variable_data_c *)
	?check_header@aka_payload_AT_header_c@@UBE?AW4eap_status_e@@XZ @ 217 NONAME ; enum eap_status_e aka_payload_AT_header_c::check_header(void) const
	?set_buffer@aka_variable_data_c@@QAE?AW4eap_status_e@@PBVaka_payload_AT_header_c@@PAEK_N2@Z @ 218 NONAME ; enum eap_status_e aka_variable_data_c::set_buffer(class aka_payload_AT_header_c const *, unsigned char *, unsigned long, bool, bool)
	?handle_notification_response_message_full_authentication@eap_type_aka_c@@AAE?AW4eap_status_e@@PBVeap_am_network_id_c@@PAVaka_header_c@@KPAVaka_payloads_c@@@Z @ 219 NONAME ; enum eap_status_e eap_type_aka_c::handle_notification_response_message_full_authentication(class eap_am_network_id_c const *, class aka_header_c *, unsigned long, class aka_payloads_c *)
	?handle_aka_notification_request_message@eap_type_aka_c@@AAE?AW4eap_status_e@@PBVeap_am_network_id_c@@PAVaka_header_c@@KPAVaka_payloads_c@@@Z @ 220 NONAME ; enum eap_status_e eap_type_aka_c::handle_aka_notification_request_message(class eap_am_network_id_c const *, class aka_header_c *, unsigned long, class aka_payloads_c *)
	??1eap_type_aka_c@@UAE@XZ @ 221 NONAME ; eap_type_aka_c::~eap_type_aka_c(void)
	?handle_challenge_response_message@eap_type_aka_c@@AAE?AW4eap_status_e@@PBVeap_am_network_id_c@@PAVaka_header_c@@KPAVaka_payloads_c@@@Z @ 222 NONAME ; enum eap_status_e eap_type_aka_c::handle_challenge_response_message(class eap_am_network_id_c const *, class aka_header_c *, unsigned long, class aka_payloads_c *)
	?state_notification@eap_type_aka_c@@QAEXPBVabs_eap_state_notification_c@@@Z @ 223 NONAME ; void eap_type_aka_c::state_notification(class abs_eap_state_notification_c const *)
	??0aka_payloads_c@@QAE@PAVabs_eap_am_tools_c@@@Z @ 224 NONAME ; aka_payloads_c::aka_payloads_c(class abs_eap_am_tools_c *)
	?get_data@aka_fixed_data_c@@QBEGPAVabs_eap_am_tools_c@@@Z @ 225 NONAME ; unsigned short aka_fixed_data_c::get_data(class abs_eap_am_tools_c *) const
	?query_AKA_authentication_vector@eap_am_type_aka_symbian_c@@UAE?AW4eap_status_e@@PBVeap_variable_data_c@@EPAV3@PAVeap_type_aka_authentication_vector_c@@PAW4eap_type_aka_identity_type@@@Z @ 226 NONAME ; enum eap_status_e eap_am_type_aka_symbian_c::query_AKA_authentication_vector(class eap_variable_data_c const *, unsigned char, class eap_variable_data_c *, class eap_type_aka_authentication_vector_c *, enum eap_type_aka_identity_type *)
	??1eap_am_type_aka_symbian_c@@UAE@XZ @ 227 NONAME ; eap_am_type_aka_symbian_c::~eap_am_type_aka_symbian_c(void)
	?get_is_valid@aka_payloads_c@@QBE_NXZ @ 228 NONAME ; bool aka_payloads_c::get_is_valid(void) const
	?parse_identity@eap_type_aka_c@@AAE?AW4eap_status_e@@PBEK@Z @ 229 NONAME ; enum eap_status_e eap_type_aka_c::parse_identity(unsigned char const *, unsigned long)
	?initialize_error_message@eap_type_aka_c@@AAE?AW4eap_status_e@@W42@@Z @ 230 NONAME ; enum eap_status_e eap_type_aka_c::initialize_error_message(enum eap_status_e)
	?generate_pseudonym_id@eap_am_type_aka_symbian_c@@UAE?AW4eap_status_e@@PBVeap_am_network_id_c@@PBVeap_variable_data_c@@PAV4@K@Z @ 231 NONAME ; enum eap_status_e eap_am_type_aka_symbian_c::generate_pseudonym_id(class eap_am_network_id_c const *, class eap_variable_data_c const *, class eap_variable_data_c *, unsigned long)
	?get_current_payload@aka_payload_AT_header_c@@QBE?AW4aka_payload_AT_type_e@@XZ @ 232 NONAME ; enum aka_payload_AT_type_e aka_payload_AT_header_c::get_current_payload(void) const
	?handle_challenge_request_message@eap_type_aka_c@@AAE?AW4eap_status_e@@PBVeap_am_network_id_c@@PAVaka_header_c@@KPAVaka_payloads_c@@@Z @ 233 NONAME ; enum eap_status_e eap_type_aka_c::handle_challenge_request_message(class eap_am_network_id_c const *, class aka_header_c *, unsigned long, class aka_payloads_c *)
	?generate_nonce@eap_type_aka_c@@AAE?AW4eap_status_e@@KPAVeap_variable_data_c@@@Z @ 234 NONAME ; enum eap_status_e eap_type_aka_c::generate_nonce(unsigned long, class eap_variable_data_c *)
	?encrypt_DATA_payload@eap_type_aka_c@@AAE?AW4eap_status_e@@PAEKPBVeap_variable_data_c@@1@Z @ 235 NONAME ; enum eap_status_e eap_type_aka_c::encrypt_DATA_payload(unsigned char *, unsigned long, class eap_variable_data_c const *, class eap_variable_data_c const *)
	?process_re_syncronization@eap_type_aka_c@@AAE?AW4eap_status_e@@EPBVeap_type_aka_authentication_vector_c@@@Z @ 236 NONAME ; enum eap_status_e eap_type_aka_c::process_re_syncronization(unsigned char, class eap_type_aka_authentication_vector_c const *)
	?packet_send@eap_type_aka_c@@AAE?AW4eap_status_e@@PBVeap_am_network_id_c@@PAVeap_buf_chain_wr_c@@KKK@Z @ 237 NONAME ; enum eap_status_e eap_type_aka_c::packet_send(class eap_am_network_id_c const *, class eap_buf_chain_wr_c *, unsigned long, unsigned long, unsigned long)
	?query_re_syncronization@eap_am_type_aka_symbian_c@@UAE?AW4eap_status_e@@EPAVeap_type_aka_authentication_vector_c@@@Z @ 238 NONAME ; enum eap_status_e eap_am_type_aka_symbian_c::query_re_syncronization(unsigned char, class eap_type_aka_authentication_vector_c *)
	?write_configure@eap_type_aka_c@@UAE?AW4eap_status_e@@PBVeap_configuration_field_c@@PAVeap_variable_data_c@@@Z @ 239 NONAME ; enum eap_status_e eap_type_aka_c::write_configure(class eap_configuration_field_c const *, class eap_variable_data_c *)
	?packet_process@eap_type_aka_c@@UAE?AW4eap_status_e@@PBVeap_am_network_id_c@@PAVeap_header_wr_c@@K@Z @ 240 NONAME ; enum eap_status_e eap_type_aka_c::packet_process(class eap_am_network_id_c const *, class eap_header_wr_c *, unsigned long)
	?is_session_valid@eap_am_type_aka_symbian_c@@QAE_NXZ @ 241 NONAME ; bool eap_am_type_aka_symbian_c::is_session_valid(void)
	?parse_aka_payload@eap_type_aka_c@@AAE?AW4eap_status_e@@PBVaka_payload_AT_header_c@@PAKPAVaka_payloads_c@@W4aka_subtype_e@@@Z @ 242 NONAME ; enum eap_status_e eap_type_aka_c::parse_aka_payload(class aka_payload_AT_header_c const *, unsigned long *, class aka_payloads_c *, enum aka_subtype_e)
	?packet_trace@eap_type_aka_c@@AAEXPBDPBVeap_am_network_id_c@@PAVeap_header_wr_c@@K@Z @ 243 NONAME ; void eap_type_aka_c::packet_trace(char const *, class eap_am_network_id_c const *, class eap_header_wr_c *, unsigned long)

