EXPORTS
	?ImplementationGroupProxy@@YAPBUTImplementationProxy@@AAH@Z @ 1 NONAME ; struct TImplementationProxy const * ImplementationGroupProxy(int &)
	?copy_all_eap_settings@eap_general_settings_client_message_if_c@@UAE?AW4eap_status_e@@PBVeap_method_settings_c@@@Z @ 2 NONAME ; enum eap_status_e eap_general_settings_client_message_if_c::copy_all_eap_settings(class eap_method_settings_c const *)
	??1eap_general_settings_message_c@@UAE@XZ @ 3 NONAME ; eap_general_settings_message_c::~eap_general_settings_message_c(void)
	??1eap_general_settings_client_message_if_c@@UAE@XZ @ 4 NONAME ; eap_general_settings_client_message_if_c::~eap_general_settings_client_message_if_c(void)
	??0eap_general_settings_message_c@@QAE@XZ @ 5 NONAME ; eap_general_settings_message_c::eap_general_settings_message_c(void)
	?shutdown@eap_am_message_if_symbian_c@@UAE?AW4eap_status_e@@XZ @ 6 NONAME ; enum eap_status_e eap_am_message_if_symbian_c::shutdown(void)
	?set_partner@eap_am_message_if_symbian_c@@UAEXPAVabs_eap_am_message_if_c@@@Z @ 7 NONAME ; void eap_am_message_if_symbian_c::set_partner(class abs_eap_am_message_if_c *)
	?process_message@eap_general_settings_client_message_if_c@@AAE?AW4eap_status_e@@PAVeap_process_tlv_message_data_c@@@Z @ 8 NONAME ; enum eap_status_e eap_general_settings_client_message_if_c::process_message(class eap_process_tlv_message_data_c *)
	?delete_all_eap_settings@eap_general_settings_client_message_if_c@@UAE?AW4eap_status_e@@PBVeap_method_settings_c@@@Z @ 9 NONAME ; enum eap_status_e eap_general_settings_client_message_if_c::delete_all_eap_settings(class eap_method_settings_c const *)
	?configure@eap_general_settings_client_message_if_c@@UAE?AW4eap_status_e@@XZ @ 10 NONAME ; enum eap_status_e eap_general_settings_client_message_if_c::configure(void)
	?configure@eap_am_message_if_symbian_c@@UAE?AW4eap_status_e@@PBVeap_variable_data_c@@@Z @ 11 NONAME ; enum eap_status_e eap_am_message_if_symbian_c::configure(class eap_variable_data_c const *)
	?process_data@eap_am_message_if_symbian_c@@UAE?AW4eap_status_e@@PBXK@Z @ 12 NONAME ; enum eap_status_e eap_am_message_if_symbian_c::process_data(void const *, unsigned long)
	?get_is_valid@eap_am_message_if_symbian_c@@UAE_NXZ @ 13 NONAME ; bool eap_am_message_if_symbian_c::get_is_valid(void)
	?send_data@eap_am_message_if_symbian_c@@UAE?AW4eap_status_e@@ABVTDesC8@@@Z @ 14 NONAME ; enum eap_status_e eap_am_message_if_symbian_c::send_data(class TDesC8 const &)
	?send_data@eap_general_settings_client_message_if_c@@UAE?AW4eap_status_e@@PBXK@Z @ 15 NONAME ; enum eap_status_e eap_general_settings_client_message_if_c::send_data(void const *, unsigned long)
	??0EapClientIf@@QAE@XZ @ 16 NONAME ; EapClientIf::EapClientIf(void)
	??1eap_am_message_if_symbian_c@@UAE@XZ @ 17 NONAME ; eap_am_message_if_symbian_c::~eap_am_message_if_symbian_c(void)
	?get_certificate_lists@eap_general_settings_client_message_if_c@@UAE?AW4eap_status_e@@PBVeap_method_settings_c@@@Z @ 18 NONAME ; enum eap_status_e eap_general_settings_client_message_if_c::get_certificate_lists(class eap_method_settings_c const *)
	?get_is_valid@eap_general_settings_client_message_if_c@@UAE_NXZ @ 19 NONAME ; bool eap_general_settings_client_message_if_c::get_is_valid(void)
	?get_eap_methods@eap_general_settings_client_message_if_c@@UAE?AW4eap_status_e@@PBVeap_method_settings_c@@@Z @ 20 NONAME ; enum eap_status_e eap_general_settings_client_message_if_c::get_eap_methods(class eap_method_settings_c const *)
	??0eap_am_message_if_symbian_c@@QAE@PAVabs_eap_am_tools_c@@W4TEapRequests@@@Z @ 21 NONAME ; eap_am_message_if_symbian_c::eap_am_message_if_symbian_c(class abs_eap_am_tools_c *, enum TEapRequests)
	?shutdown@eap_general_settings_client_message_if_c@@UAE?AW4eap_status_e@@XZ @ 22 NONAME ; enum eap_status_e eap_general_settings_client_message_if_c::shutdown(void)
	?reset@eap_general_settings_client_message_if_c@@UAE?AW4eap_status_e@@XZ @ 23 NONAME ; enum eap_status_e eap_general_settings_client_message_if_c::reset(void)
	??1EapClientIf@@UAE@XZ @ 24 NONAME ; EapClientIf::~EapClientIf(void)
	?set_eap_methods@eap_general_settings_client_message_if_c@@UAE?AW4eap_status_e@@PBVeap_method_settings_c@@@Z @ 25 NONAME ; enum eap_status_e eap_general_settings_client_message_if_c::set_eap_methods(class eap_method_settings_c const *)
	??0eap_general_settings_client_message_if_c@@QAE@PAVabs_eap_am_tools_c@@PAVeap_am_message_if_c@@PAVabs_eap_general_settings_message_c@@@Z @ 26 NONAME ; eap_general_settings_client_message_if_c::eap_general_settings_client_message_if_c(class abs_eap_am_tools_c *, class eap_am_message_if_c *, class abs_eap_general_settings_message_c *)
	?GetServerNameAndExe@EapClientIf@@KAHPAV?$TBuf@$0BI@@@0@Z @ 27 NONAME ; int EapClientIf::GetServerNameAndExe(class TBuf<24> *, class TBuf<24> *)

