EXPORTS
	?ImplementationGroupProxy@@YAPBUTImplementationProxy@@AAH@Z @ 1 NONAME ; struct TImplementationProxy const * ImplementationGroupProxy(int &)
	?get_state_string@eap_simple_config_trace_string_c@@QBEPBDW4simple_config_state_e@@@Z @ 2 NONAME ; char const * eap_simple_config_trace_string_c::get_state_string(enum simple_config_state_e) const
	?reset@simple_config_message_c@@QAE?AW4eap_status_e@@XZ @ 3 NONAME ; enum eap_status_e simple_config_message_c::reset(void)
	?configure@eap_plugin_client_message_if_c@@UAE?AW4eap_status_e@@XZ @ 4 NONAME ; enum eap_status_e eap_plugin_client_message_if_c::configure(void)
	?add_payloads_to_simple_config_authenticator@simple_config_payloads_c@@QBE?AW4eap_status_e@@PAVcrypto_hmac_c@@_N@Z @ 5 NONAME ; enum eap_status_e simple_config_payloads_c::add_payloads_to_simple_config_authenticator(class crypto_hmac_c *, bool) const
	?set_simple_config_message_data@simple_config_message_c@@QAE?AW4eap_status_e@@PAVeap_variable_data_c@@E@Z @ 6 NONAME ; enum eap_status_e simple_config_message_c::set_simple_config_message_data(class eap_variable_data_c *, unsigned char)
	?reset@simple_config_payloads_c@@QAE?AW4eap_status_e@@XZ @ 7 NONAME ; enum eap_status_e simple_config_payloads_c::reset(void)
	?process_data@eap_am_message_if_symbian_c@@UAE?AW4eap_status_e@@PBXK@Z @ 8 NONAME ; enum eap_status_e eap_am_message_if_symbian_c::process_data(void const *, unsigned long)
	?get_is_valid@eap_am_message_if_symbian_c@@UAE_NXZ @ 9 NONAME ; bool eap_am_message_if_symbian_c::get_is_valid(void)
	?copy_attribute_data@simple_config_payloads_c@@QAE?AW4eap_status_e@@W4simple_config_Attribute_Type_e@@_NPBXK@Z @ 10 NONAME ; enum eap_status_e simple_config_payloads_c::copy_attribute_data(enum simple_config_Attribute_Type_e, bool, void const *, unsigned long)
	??0eap_plugin_client_message_if_c@@QAE@PAVabs_eap_am_tools_c@@PAVeap_am_message_if_c@@PAVabs_eap_plugin_message_c@@@Z @ 11 NONAME ; eap_plugin_client_message_if_c::eap_plugin_client_message_if_c(class abs_eap_am_tools_c *, class eap_am_message_if_c *, class abs_eap_plugin_message_c *)
	?get_MAC_address_const@simple_config_credential_c@@QBEPBVeap_variable_data_c@@XZ @ 12 NONAME ; class eap_variable_data_c const * simple_config_credential_c::get_MAC_address_const(void) const
	?get_data@simple_config_variable_data_c@@QBEPAEK@Z @ 13 NONAME ; unsigned char * simple_config_variable_data_c::get_data(unsigned long) const
	?get_attribute_pointer@simple_config_payloads_c@@QBEPAVsimple_config_variable_data_c@@W4simple_config_Attribute_Type_e@@@Z @ 14 NONAME ; class simple_config_variable_data_c * simple_config_payloads_c::get_attribute_pointer(enum simple_config_Attribute_Type_e) const
	?create_simple_config_message@simple_config_payloads_c@@QBE?AW4eap_status_e@@PAVsimple_config_message_c@@_N@Z @ 15 NONAME ; enum eap_status_e simple_config_payloads_c::create_simple_config_message(class simple_config_message_c *, bool) const
	?send_data@eap_am_message_if_symbian_c@@UAE?AW4eap_status_e@@ABVTDesC8@@@Z @ 16 NONAME ; enum eap_status_e eap_am_message_if_symbian_c::send_data(class TDesC8 const &)
	?reset@eap_plugin_client_message_if_c@@UAE?AW4eap_status_e@@XZ @ 17 NONAME ; enum eap_status_e eap_plugin_client_message_if_c::reset(void)
	??1eap_plugin_message_base_c@@UAE@XZ @ 18 NONAME ; eap_plugin_message_base_c::~eap_plugin_message_base_c(void)
	?object_increase_reference_count@simple_config_variable_data_c@@QAEXXZ @ 19 NONAME ; void simple_config_variable_data_c::object_increase_reference_count(void)
	??1eap_am_message_if_symbian_c@@UAE@XZ @ 20 NONAME ; eap_am_message_if_symbian_c::~eap_am_message_if_symbian_c(void)
	?add_attribute@simple_config_payloads_c@@QAE?AW4eap_status_e@@PAVsimple_config_variable_data_c@@@Z @ 21 NONAME ; enum eap_status_e simple_config_payloads_c::add_attribute(class simple_config_variable_data_c *)
	?get_next_payload_with_same_attribute_type@simple_config_variable_data_c@@QAEPAV1@XZ @ 22 NONAME ; class simple_config_variable_data_c * simple_config_variable_data_c::get_next_payload_with_same_attribute_type(void)
	?get_type_info@eap_plugin_client_message_if_c@@UAE?AW4eap_status_e@@PBVeap_method_settings_c@@@Z @ 23 NONAME ; enum eap_status_e eap_plugin_client_message_if_c::get_type_info(class eap_method_settings_c const *)
	?get_is_valid@simple_config_payloads_c@@QBE_NXZ @ 24 NONAME ; bool simple_config_payloads_c::get_is_valid(void) const
	??1simple_config_message_c@@UAE@XZ @ 25 NONAME ; simple_config_message_c::~simple_config_message_c(void)
	?process_message@eap_plugin_client_message_if_c@@QAE?AW4eap_status_e@@PAVeap_process_tlv_message_data_c@@@Z @ 26 NONAME ; enum eap_status_e eap_plugin_client_message_if_c::process_message(class eap_process_tlv_message_data_c *)
	?parse_simple_config_payloads@simple_config_payloads_c@@QAE?AW4eap_status_e@@PAXPAK1@Z @ 27 NONAME ; enum eap_status_e simple_config_payloads_c::parse_simple_config_payloads(void *, unsigned long *, unsigned long *)
	?get_is_valid@simple_config_variable_data_c@@QBE_NXZ @ 28 NONAME ; bool simple_config_variable_data_c::get_is_valid(void) const
	?set_attribute_type@simple_config_variable_data_c@@QAEXW4simple_config_Attribute_Type_e@@@Z @ 29 NONAME ; void simple_config_variable_data_c::set_attribute_type(enum simple_config_Attribute_Type_e)
	??1EapClientIf@@UAE@XZ @ 30 NONAME ; EapClientIf::~EapClientIf(void)
	?delete_configuration@eap_plugin_client_message_if_c@@UAE?AW4eap_status_e@@PBVeap_method_settings_c@@@Z @ 31 NONAME ; enum eap_status_e eap_plugin_client_message_if_c::delete_configuration(class eap_method_settings_c const *)
	?GetServerNameAndExe@EapClientIf@@KAHPAV?$TBuf@$0BI@@@0@Z @ 32 NONAME ; int EapClientIf::GetServerNameAndExe(class TBuf<24> *, class TBuf<24> *)
	?new_eap_plugin_client_message_if_c@eap_plugin_message_base_c@@SAPAV1@PAVabs_eap_am_tools_c@@PAVabs_eap_plugin_message_c@@@Z @ 33 NONAME ; class eap_plugin_message_base_c * eap_plugin_message_base_c::new_eap_plugin_client_message_if_c(class abs_eap_am_tools_c *, class abs_eap_plugin_message_c *)
	?get_network_key_const@network_key_and_index_c@@QBEPBVeap_variable_data_c@@XZ @ 34 NONAME ; class eap_variable_data_c const * network_key_and_index_c::get_network_key_const(void) const
	?add_padding@simple_config_message_c@@QAE?AW4eap_status_e@@K@Z @ 35 NONAME ; enum eap_status_e simple_config_message_c::add_padding(unsigned long)
	?verify_padding@simple_config_payloads_c@@AAE?AW4eap_status_e@@PBEK@Z @ 36 NONAME ; enum eap_status_e simple_config_payloads_c::verify_padding(unsigned char const *, unsigned long)
	?shutdown@eap_am_message_if_symbian_c@@UAE?AW4eap_status_e@@XZ @ 37 NONAME ; enum eap_status_e eap_am_message_if_symbian_c::shutdown(void)
	?get_is_valid_data@network_key_and_index_c@@QAE_NXZ @ 38 NONAME ; bool network_key_and_index_c::get_is_valid_data(void)
	?get_MAC_address@simple_config_credential_c@@QAEPAVeap_variable_data_c@@XZ @ 39 NONAME ; class eap_variable_data_c * simple_config_credential_c::get_MAC_address(void)
	?parse_generic_payload@simple_config_payloads_c@@QAE?AW4eap_status_e@@W4simple_config_Attribute_Type_e@@PBVsimple_config_tlv_header_c@@@Z @ 40 NONAME ; enum eap_status_e simple_config_payloads_c::parse_generic_payload(enum simple_config_Attribute_Type_e, class simple_config_tlv_header_c const *)
	?configure@eap_am_message_if_symbian_c@@UAE?AW4eap_status_e@@PBVeap_variable_data_c@@@Z @ 41 NONAME ; enum eap_status_e eap_am_message_if_symbian_c::configure(class eap_variable_data_c const *)
	?get_header@simple_config_variable_data_c@@QAEPAVsimple_config_tlv_header_c@@XZ @ 42 NONAME ; class simple_config_tlv_header_c * simple_config_variable_data_c::get_header(void)
	?get_attribute_data@simple_config_payloads_c@@QBE?AW4eap_status_e@@W4simple_config_Attribute_Type_e@@PAE@Z @ 43 NONAME ; enum eap_status_e simple_config_payloads_c::get_attribute_data(enum simple_config_Attribute_Type_e, unsigned char *) const
	?get_attribute_count@simple_config_payloads_c@@QBEKXZ @ 44 NONAME ; unsigned long simple_config_payloads_c::get_attribute_count(void) const
	?get_network_index@simple_config_credential_c@@QBEEXZ @ 45 NONAME ; unsigned char simple_config_credential_c::get_network_index(void) const
	?get_configuration@eap_plugin_client_message_if_c@@UAE?AW4eap_status_e@@PBVeap_method_settings_c@@@Z @ 46 NONAME ; enum eap_status_e eap_plugin_client_message_if_c::get_configuration(class eap_method_settings_c const *)
	?add_next_payload_with_same_attribute_type@simple_config_variable_data_c@@QAEXPAV1@@Z @ 47 NONAME ; void simple_config_variable_data_c::add_next_payload_with_same_attribute_type(class simple_config_variable_data_c *)
	?set_network_key_index@network_key_and_index_c@@QAEXE@Z @ 48 NONAME ; void network_key_and_index_c::set_network_key_index(unsigned char)
	?get_data_length@simple_config_variable_data_c@@QBEKXZ @ 49 NONAME ; unsigned long simple_config_variable_data_c::get_data_length(void) const
	?get_attribute_type@simple_config_variable_data_c@@QBE?AW4simple_config_Attribute_Type_e@@XZ @ 50 NONAME ; enum simple_config_Attribute_Type_e simple_config_variable_data_c::get_attribute_type(void) const
	?get_Authentication_Type@simple_config_credential_c@@QAE?AW4simple_config_Authentication_Type_e@@XZ @ 51 NONAME ; enum simple_config_Authentication_Type_e simple_config_credential_c::get_Authentication_Type(void)
	??1simple_config_credential_c@@UAE@XZ @ 52 NONAME ; simple_config_credential_c::~simple_config_credential_c(void)
	??0EapClientIf@@QAE@XZ @ 53 NONAME ; EapClientIf::EapClientIf(void)
	??1simple_config_variable_data_c@@UAE@XZ @ 54 NONAME ; simple_config_variable_data_c::~simple_config_variable_data_c(void)
	??1network_key_and_index_c@@UAE@XZ @ 55 NONAME ; network_key_and_index_c::~network_key_and_index_c(void)
	?copy@simple_config_payloads_c@@QBEPAV1@XZ @ 56 NONAME ; class simple_config_payloads_c * simple_config_payloads_c::copy(void) const
	??0eap_plugin_message_base_c@@QAE@XZ @ 57 NONAME ; eap_plugin_message_base_c::eap_plugin_message_base_c(void)
	?copy_attribute@simple_config_payloads_c@@QAE?AW4eap_status_e@@PBV1@W4simple_config_Attribute_Type_e@@@Z @ 58 NONAME ; enum eap_status_e simple_config_payloads_c::copy_attribute(class simple_config_payloads_c const *, enum simple_config_Attribute_Type_e)
	??0eap_am_message_if_symbian_c@@QAE@PAVabs_eap_am_tools_c@@W4TEapRequests@@@Z @ 59 NONAME ; eap_am_message_if_symbian_c::eap_am_message_if_symbian_c(class abs_eap_am_tools_c *, enum TEapRequests)
	?get_network_keys@simple_config_credential_c@@QAEPAV?$eap_array_c@Vnetwork_key_and_index_c@@@@XZ @ 60 NONAME ; class eap_array_c<class network_key_and_index_c> * simple_config_credential_c::get_network_keys(void)
	??1eap_simple_config_trace_string_c@@UAE@XZ @ 61 NONAME ; eap_simple_config_trace_string_c::~eap_simple_config_trace_string_c(void)
	?get_attribute_pointer@simple_config_payloads_c@@QBEPAVsimple_config_variable_data_c@@W4simple_config_Attribute_Type_e@@K@Z @ 62 NONAME ; class simple_config_variable_data_c * simple_config_payloads_c::get_attribute_pointer(enum simple_config_Attribute_Type_e, unsigned long) const
	?get_is_valid@simple_config_credential_c@@QAE_NXZ @ 63 NONAME ; bool simple_config_credential_c::get_is_valid(void)
	??1eap_plugin_client_message_if_c@@UAE@XZ @ 64 NONAME ; eap_plugin_client_message_if_c::~eap_plugin_client_message_if_c(void)
	?check_mandatory_payloads@simple_config_payloads_c@@QBE?AW4eap_status_e@@PBV?$eap_array_c@W4simple_config_Attribute_Type_e@@@@@Z @ 65 NONAME ; enum eap_status_e simple_config_payloads_c::check_mandatory_payloads(class eap_array_c<enum simple_config_Attribute_Type_e> const *) const
	?set_partner@eap_am_message_if_symbian_c@@UAEXPAVabs_eap_am_message_if_c@@@Z @ 66 NONAME ; void eap_am_message_if_symbian_c::set_partner(class abs_eap_am_message_if_c *)
	?set_copy_of_buffer@simple_config_variable_data_c@@QAE?AW4eap_status_e@@W4simple_config_Attribute_Type_e@@_NPBXK@Z @ 67 NONAME ; enum eap_status_e simple_config_variable_data_c::set_copy_of_buffer(enum simple_config_Attribute_Type_e, bool, void const *, unsigned long)
	?get_network_keys_const@simple_config_credential_c@@QBEPBV?$eap_array_c@Vnetwork_key_and_index_c@@@@XZ @ 68 NONAME ; class eap_array_c<class network_key_and_index_c> const * simple_config_credential_c::get_network_keys_const(void) const
	?set_network_index@simple_config_credential_c@@QAEXE@Z @ 69 NONAME ; void simple_config_credential_c::set_network_index(unsigned char)
	?send_data@eap_plugin_client_message_if_c@@UAE?AW4eap_status_e@@PBXK@Z @ 70 NONAME ; enum eap_status_e eap_plugin_client_message_if_c::send_data(void const *, unsigned long)
	?get_network_key@network_key_and_index_c@@QAEPAVeap_variable_data_c@@XZ @ 71 NONAME ; class eap_variable_data_c * network_key_and_index_c::get_network_key(void)
	?get_simple_config_message_data@simple_config_message_c@@QAEPAVeap_variable_data_c@@XZ @ 72 NONAME ; class eap_variable_data_c * simple_config_message_c::get_simple_config_message_data(void)
	?get_attribute_data@simple_config_payloads_c@@ABE?AW4eap_status_e@@W4simple_config_Attribute_Type_e@@PAXK@Z @ 73 NONAME ; enum eap_status_e simple_config_payloads_c::get_attribute_data(enum simple_config_Attribute_Type_e, void *, unsigned long) const
	?check_payloads_existense@simple_config_payloads_c@@QBE?AW4eap_status_e@@PBW4simple_config_Attribute_Type_e@@K@Z @ 74 NONAME ; enum eap_status_e simple_config_payloads_c::check_payloads_existense(enum simple_config_Attribute_Type_e const *, unsigned long) const
	?get_Encryption_Type@simple_config_credential_c@@QAE?AW4simple_config_Encryption_Type_e@@XZ @ 75 NONAME ; enum simple_config_Encryption_Type_e simple_config_credential_c::get_Encryption_Type(void)
	?get_SSID_const@simple_config_credential_c@@QBEPBVeap_variable_data_c@@XZ @ 76 NONAME ; class eap_variable_data_c const * simple_config_credential_c::get_SSID_const(void) const
	?get_attribute@simple_config_payloads_c@@QBEPAVsimple_config_variable_data_c@@K@Z @ 77 NONAME ; class simple_config_variable_data_c * simple_config_payloads_c::get_attribute(unsigned long) const
	?get_is_mandatory@simple_config_variable_data_c@@QBE_NXZ @ 78 NONAME ; bool simple_config_variable_data_c::get_is_mandatory(void) const
	?set_configuration@eap_plugin_client_message_if_c@@UAE?AW4eap_status_e@@PBVeap_method_settings_c@@@Z @ 79 NONAME ; enum eap_status_e eap_plugin_client_message_if_c::set_configuration(class eap_method_settings_c const *)
	?check_payloads_existense@simple_config_payloads_c@@QBE?AW4eap_status_e@@PBV?$eap_array_c@W4simple_config_Attribute_Type_e@@@@@Z @ 80 NONAME ; enum eap_status_e simple_config_payloads_c::check_payloads_existense(class eap_array_c<enum simple_config_Attribute_Type_e> const *) const
	??1simple_config_payloads_c@@UAE@XZ @ 81 NONAME ; simple_config_payloads_c::~simple_config_payloads_c(void)
	?shutdown@eap_plugin_client_message_if_c@@UAE?AW4eap_status_e@@XZ @ 82 NONAME ; enum eap_status_e eap_plugin_client_message_if_c::shutdown(void)
	??0simple_config_message_c@@QAE@PAVabs_eap_am_tools_c@@_N@Z @ 83 NONAME ; simple_config_message_c::simple_config_message_c(class abs_eap_am_tools_c *, bool)
	?get_attribute_data@simple_config_payloads_c@@QBE?AW4eap_status_e@@W4simple_config_Attribute_Type_e@@PAVeap_variable_data_c@@@Z @ 84 NONAME ; enum eap_status_e simple_config_payloads_c::get_attribute_data(enum simple_config_Attribute_Type_e, class eap_variable_data_c *) const
	?get_SSID@simple_config_credential_c@@QAEPAVeap_variable_data_c@@XZ @ 85 NONAME ; class eap_variable_data_c * simple_config_credential_c::get_SSID(void)
	??0simple_config_variable_data_c@@QAE@PAVabs_eap_am_tools_c@@@Z @ 86 NONAME ; simple_config_variable_data_c::simple_config_variable_data_c(class abs_eap_am_tools_c *)
	?get_network_key_index@network_key_and_index_c@@QBEEXZ @ 87 NONAME ; unsigned char network_key_and_index_c::get_network_key_index(void) const
	?set_Encryption_Type@simple_config_credential_c@@QAEXW4simple_config_Encryption_Type_e@@@Z @ 88 NONAME ; void simple_config_credential_c::set_Encryption_Type(enum simple_config_Encryption_Type_e)
	?get_message_type_string@eap_simple_config_trace_string_c@@QBEPBDW4simple_config_Message_Type_e@@@Z @ 89 NONAME ; char const * eap_simple_config_trace_string_c::get_message_type_string(enum simple_config_Message_Type_e) const
	?add_data@simple_config_variable_data_c@@QAE?AW4eap_status_e@@PBXK@Z @ 90 NONAME ; enum eap_status_e simple_config_variable_data_c::add_data(void const *, unsigned long)
	?set_index@eap_plugin_client_message_if_c@@UAE?AW4eap_status_e@@PBVeap_method_settings_c@@@Z @ 91 NONAME ; enum eap_status_e eap_plugin_client_message_if_c::set_index(class eap_method_settings_c const *)
	?set_Authentication_Type@simple_config_credential_c@@QAEXW4simple_config_Authentication_Type_e@@@Z @ 92 NONAME ; void simple_config_credential_c::set_Authentication_Type(enum simple_config_Authentication_Type_e)
	?set_next_payload_with_same_attribute_type@simple_config_variable_data_c@@QAEXPAV1@@Z @ 93 NONAME ; void simple_config_variable_data_c::set_next_payload_with_same_attribute_type(class simple_config_variable_data_c *)
	?get_is_valid@simple_config_message_c@@QAE_NXZ @ 94 NONAME ; bool simple_config_message_c::get_is_valid(void)
	?get_full_attribute_buffer@simple_config_variable_data_c@@QAEPAVeap_variable_data_c@@XZ @ 95 NONAME ; class eap_variable_data_c * simple_config_variable_data_c::get_full_attribute_buffer(void)
	?copy_configuration@eap_plugin_client_message_if_c@@UAE?AW4eap_status_e@@PBVeap_method_settings_c@@@Z @ 96 NONAME ; enum eap_status_e eap_plugin_client_message_if_c::copy_configuration(class eap_method_settings_c const *)
	?get_attribute_type_string@eap_simple_config_trace_string_c@@QBEPBDW4simple_config_Attribute_Type_e@@@Z @ 97 NONAME ; char const * eap_simple_config_trace_string_c::get_attribute_type_string(enum simple_config_Attribute_Type_e) const
	?copy@simple_config_variable_data_c@@QBEPAV1@XZ @ 98 NONAME ; class simple_config_variable_data_c * simple_config_variable_data_c::copy(void) const
	?get_attribute_data@simple_config_payloads_c@@QBE?AW4eap_status_e@@W4simple_config_Attribute_Type_e@@PAG@Z @ 99 NONAME ; enum eap_status_e simple_config_payloads_c::get_attribute_data(enum simple_config_Attribute_Type_e, unsigned short *) const
	?invoke_ui@eap_plugin_client_message_if_c@@UAE?AW4eap_status_e@@PBVeap_method_settings_c@@@Z @ 100 NONAME ; enum eap_status_e eap_plugin_client_message_if_c::invoke_ui(class eap_method_settings_c const *)
	?get_is_valid@eap_plugin_client_message_if_c@@UAE_NXZ @ 101 NONAME ; bool eap_plugin_client_message_if_c::get_is_valid(void)
	??0network_key_and_index_c@@QAE@PAVabs_eap_am_tools_c@@@Z @ 102 NONAME ; network_key_and_index_c::network_key_and_index_c(class abs_eap_am_tools_c *)
	??0simple_config_payloads_c@@QAE@PAVabs_eap_am_tools_c@@@Z @ 103 NONAME ; simple_config_payloads_c::simple_config_payloads_c(class abs_eap_am_tools_c *)
	?get_attribute_data@simple_config_payloads_c@@QBE?AW4eap_status_e@@W4simple_config_Attribute_Type_e@@PA_K@Z @ 104 NONAME ; enum eap_status_e simple_config_payloads_c::get_attribute_data(enum simple_config_Attribute_Type_e, unsigned long long *) const
	?get_is_valid@network_key_and_index_c@@QAE_NXZ @ 105 NONAME ; bool network_key_and_index_c::get_is_valid(void)
	??0eap_simple_config_trace_string_c@@QAE@XZ @ 106 NONAME ; eap_simple_config_trace_string_c::eap_simple_config_trace_string_c(void)
	?get_attribute_data@simple_config_payloads_c@@QBE?AW4eap_status_e@@W4simple_config_Attribute_Type_e@@PAK@Z @ 107 NONAME ; enum eap_status_e simple_config_payloads_c::get_attribute_data(enum simple_config_Attribute_Type_e, unsigned long *) const
	?copy@network_key_and_index_c@@QAEPAV1@XZ @ 108 NONAME ; class network_key_and_index_c * network_key_and_index_c::copy(void)
	??0simple_config_credential_c@@QAE@PAVabs_eap_am_tools_c@@@Z @ 109 NONAME ; simple_config_credential_c::simple_config_credential_c(class abs_eap_am_tools_c *)
	?get_header_length@simple_config_tlv_header_c@@SAKXZ @ 110 NONAME ; unsigned long simple_config_tlv_header_c::get_header_length(void)

