EXPORTS
	?ImplementationGroupProxy@@YAPBUTImplementationProxy@@AAH@Z @ 1 NONAME ; struct TImplementationProxy const * ImplementationGroupProxy(int &)
	?set_type_partner@simple_config_base_record_c@@QAEXPAVabs_simple_config_base_record_c@@@Z @ 2 NONAME ; void simple_config_base_record_c::set_type_partner(class abs_simple_config_base_record_c *)
	?set_simple_config_message_data@simple_config_message_c@@QAE?AW4eap_status_e@@PAVeap_variable_data_c@@E@Z @ 3 NONAME ; enum eap_status_e simple_config_message_c::set_simple_config_message_data(class eap_variable_data_c *, unsigned char)
	?eap_simple_config_fragment_send@eap_type_simple_config_c@@AAE?AW4eap_status_e@@XZ @ 4 NONAME ; enum eap_status_e eap_type_simple_config_c::eap_simple_config_fragment_send(void)
	?verify_nonces_and_authenticator@simple_config_record_c@@AAE?AW4eap_status_e@@PBVeap_variable_data_c@@00PBVsimple_config_payloads_c@@_N22@Z @ 5 NONAME ; enum eap_status_e simple_config_record_c::verify_nonces_and_authenticator(class eap_variable_data_c const *, class eap_variable_data_c const *, class eap_variable_data_c const *, class simple_config_payloads_c const *, bool, bool, bool)
	?copy_attribute_data@simple_config_payloads_c@@QAE?AW4eap_status_e@@W4simple_config_Attribute_Type_e@@_NPBXK@Z @ 6 NONAME ; enum eap_status_e simple_config_payloads_c::copy_attribute_data(enum simple_config_Attribute_Type_e, bool, void const *, unsigned long)
	?get_is_valid@eap_type_simple_config_c@@UAE_NXZ @ 7 NONAME ; bool eap_type_simple_config_c::get_is_valid(void)
	?get_failure_message_received@eap_type_simple_config_c@@ABE_NXZ @ 8 NONAME ; bool eap_type_simple_config_c::get_failure_message_received(void) const
	?get_reassembly_state_string@eap_type_simple_config_c@@ABEPBDXZ @ 9 NONAME ; char const * eap_type_simple_config_c::get_reassembly_state_string(void) const
	?restart_authentication@eap_type_simple_config_c@@UAE?AW4eap_status_e@@PBVeap_am_network_id_c@@_N11@Z @ 10 NONAME ; enum eap_status_e eap_type_simple_config_c::restart_authentication(class eap_am_network_id_c const *, bool, bool, bool)
	?get_next_payload_with_same_attribute_type@simple_config_variable_data_c@@QAEPAV1@XZ @ 11 NONAME ; class simple_config_variable_data_c * simple_config_variable_data_c::get_next_payload_with_same_attribute_type(void)
	?set_simple_config_flag_value@eap_simple_config_header_c@@QBEXEKK@Z @ 12 NONAME ; void eap_simple_config_header_c::set_simple_config_flag_value(unsigned char, unsigned long, unsigned long) const
	?send_M3@simple_config_record_c@@AAE?AW4eap_status_e@@XZ @ 13 NONAME ; enum eap_status_e simple_config_record_c::send_M3(void)
	??1simple_config_message_c@@UAE@XZ @ 14 NONAME ; simple_config_message_c::~simple_config_message_c(void)
	?save_current_reassembly_state@eap_type_simple_config_c@@AAEXXZ @ 15 NONAME ; void eap_type_simple_config_c::save_current_reassembly_state(void)
	?cancel_M2D_received_timeout@simple_config_record_c@@AAE?AW4eap_status_e@@XZ @ 16 NONAME ; enum eap_status_e simple_config_record_c::cancel_M2D_received_timeout(void)
	?timer_delete_data@eap_type_simple_config_c@@UAE?AW4eap_status_e@@KPAX@Z @ 17 NONAME ; enum eap_status_e eap_type_simple_config_c::timer_delete_data(unsigned long, void *)
	?packet_process@eap_type_simple_config_c@@UAE?AW4eap_status_e@@PBVeap_am_network_id_c@@PAVeap_header_wr_c@@K@Z @ 18 NONAME ; enum eap_status_e eap_type_simple_config_c::packet_process(class eap_am_network_id_c const *, class eap_header_wr_c *, unsigned long)
	?get_network_key_const@network_key_and_index_c@@QBEPBVeap_variable_data_c@@XZ @ 19 NONAME ; class eap_variable_data_c const * network_key_and_index_c::get_network_key_const(void) const
	?get_NAI@eap_type_simple_config_c@@AAEPAVeap_variable_data_c@@XZ @ 20 NONAME ; class eap_variable_data_c * eap_type_simple_config_c::get_NAI(void)
	?set_data_length@eap_simple_config_header_c@@QAEXK_N@Z @ 21 NONAME ; void eap_simple_config_header_c::set_data_length(unsigned long, bool)
	?get_MAC_address@simple_config_credential_c@@QAEPAVeap_variable_data_c@@XZ @ 22 NONAME ; class eap_variable_data_c * simple_config_credential_c::get_MAC_address(void)
	??1CEapAmProtectedSetupSymbian@@UAE@XZ @ 23 NONAME ; CEapAmProtectedSetupSymbian::~CEapAmProtectedSetupSymbian(void)
	?get_attribute_data@simple_config_payloads_c@@QBE?AW4eap_status_e@@W4simple_config_Attribute_Type_e@@PAE@Z @ 24 NONAME ; enum eap_status_e simple_config_payloads_c::get_attribute_data(enum simple_config_Attribute_Type_e, unsigned char *) const
	??1eap_type_simple_config_state_notification_c@@UAE@XZ @ 25 NONAME ; eap_type_simple_config_state_notification_c::~eap_type_simple_config_state_notification_c(void)
	?packet_process@simple_config_record_c@@UAE?AW4eap_status_e@@PAVeap_variable_data_c@@E@Z @ 26 NONAME ; enum eap_status_e simple_config_record_c::packet_process(class eap_variable_data_c *, unsigned char)
	??0simple_config_completion_c@@QAE@PAVabs_eap_am_tools_c@@W4simple_config_completion_action_e@@@Z @ 27 NONAME ; simple_config_completion_c::simple_config_completion_c(class abs_eap_am_tools_c *, enum simple_config_completion_action_e)
	??1simple_config_variable_data_c@@UAE@XZ @ 28 NONAME ; simple_config_variable_data_c::~simple_config_variable_data_c(void)
	?get_simple_config_message_length@eap_simple_config_header_c@@QBE?AW4eap_status_e@@PAK@Z @ 29 NONAME ; enum eap_status_e eap_simple_config_header_c::get_simple_config_message_length(unsigned long *) const
	?save_current_state@eap_type_simple_config_c@@AAEXXZ @ 30 NONAME ; void eap_type_simple_config_c::save_current_state(void)
	?unload_module@eap_type_simple_config_c@@UAE?AW4eap_status_e@@Veap_expanded_type_c@@@Z @ 31 NONAME ; enum eap_status_e eap_type_simple_config_c::unload_module(class eap_expanded_type_c)
	?copy@simple_config_payloads_c@@QBEPAV1@XZ @ 32 NONAME ; class simple_config_payloads_c * simple_config_payloads_c::copy(void) const
	?set_eap_code@eap_simple_config_header_c@@QAEXW4eap_code_value_e@@@Z @ 33 NONAME ; void eap_simple_config_header_c::set_eap_code(enum eap_code_value_e)
	?restore_saved_reassembly_state@eap_type_simple_config_c@@AAEXXZ @ 34 NONAME ; void eap_type_simple_config_c::restore_saved_reassembly_state(void)
	?get_state_string@eap_type_simple_config_c@@SAPBDW4eap_type_simple_config_state_variable_e@@@Z @ 35 NONAME ; char const * eap_type_simple_config_c::get_state_string(enum eap_type_simple_config_state_variable_e)
	?get_eap_type_string@eap_simple_config_header_c@@QBEPBDXZ @ 36 NONAME ; char const * eap_simple_config_header_c::get_eap_type_string(void) const
	?check_NAI@eap_type_simple_config_c@@AAE?AW4eap_status_e@@PBEK0@Z @ 37 NONAME ; enum eap_status_e eap_type_simple_config_c::check_NAI(unsigned char const *, unsigned long, unsigned char const *)
	??1eap_simple_config_trace_string_c@@UAE@XZ @ 38 NONAME ; eap_simple_config_trace_string_c::~eap_simple_config_trace_string_c(void)
	?get_attribute_pointer@simple_config_payloads_c@@QBEPAVsimple_config_variable_data_c@@W4simple_config_Attribute_Type_e@@K@Z @ 39 NONAME ; class simple_config_variable_data_c * simple_config_payloads_c::get_attribute_pointer(enum simple_config_Attribute_Type_e, unsigned long) const
	?parse_identity@eap_type_simple_config_c@@AAE?AW4eap_status_e@@PBEK@Z @ 40 NONAME ; enum eap_status_e eap_type_simple_config_c::parse_identity(unsigned char const *, unsigned long)
	?set_copy_of_buffer@simple_config_variable_data_c@@QAE?AW4eap_status_e@@W4simple_config_Attribute_Type_e@@_NPBXK@Z @ 41 NONAME ; enum eap_status_e simple_config_variable_data_c::set_copy_of_buffer(enum simple_config_Attribute_Type_e, bool, void const *, unsigned long)
	?read_configure@eap_type_simple_config_c@@UAE?AW4eap_status_e@@PBVeap_configuration_field_c@@PAVeap_variable_data_c@@@Z @ 42 NONAME ; enum eap_status_e eap_type_simple_config_c::read_configure(class eap_configuration_field_c const *, class eap_variable_data_c *)
	?packet_data_crypto_keys@eap_type_simple_config_c@@UAE?AW4eap_status_e@@PBVeap_am_network_id_c@@PBVeap_master_session_key_c@@@Z @ 43 NONAME ; enum eap_status_e eap_type_simple_config_c::packet_data_crypto_keys(class eap_am_network_id_c const *, class eap_master_session_key_c const *)
	?get_simple_config_message_data@simple_config_message_c@@QAEPAVeap_variable_data_c@@XZ @ 44 NONAME ; class eap_variable_data_c * simple_config_message_c::get_simple_config_message_data(void)
	?get_state@eap_type_simple_config_c@@ABE?AW4eap_type_simple_config_state_variable_e@@XZ @ 45 NONAME ; enum eap_type_simple_config_state_variable_e eap_type_simple_config_c::get_state(void) const
	?get_completion_action@simple_config_completion_c@@QBE?AW4simple_config_completion_action_e@@XZ @ 46 NONAME ; enum simple_config_completion_action_e simple_config_completion_c::get_completion_action(void) const
	??0CEapAmProtectedSetupSymbian@@IAE@PAVabs_eap_am_tools_c@@PAVabs_eap_base_type_c@@W4TIndexType@@HVeap_expanded_type_c@@3_NPBVeap_am_network_id_c@@PAVabs_eap_configuration_if_c@@@Z @ 47 NONAME ; CEapAmProtectedSetupSymbian::CEapAmProtectedSetupSymbian(class abs_eap_am_tools_c *, class abs_eap_base_type_c *, enum TIndexType, int, class eap_expanded_type_c, class eap_expanded_type_c, bool, class eap_am_network_id_c const *, class abs_eap_configuration_if_c *)
	?get_simple_config_flag_bit@eap_simple_config_header_c@@QBE_NK@Z @ 48 NONAME ; bool eap_simple_config_header_c::get_simple_config_flag_bit(unsigned long) const
	??0simple_config_message_c@@QAE@PAVabs_eap_am_tools_c@@_N@Z @ 49 NONAME ; simple_config_message_c::simple_config_message_c(class abs_eap_am_tools_c *, bool)
	?get_attribute_data@simple_config_payloads_c@@QBE?AW4eap_status_e@@W4simple_config_Attribute_Type_e@@PAVeap_variable_data_c@@@Z @ 50 NONAME ; enum eap_status_e simple_config_payloads_c::get_attribute_data(enum simple_config_Attribute_Type_e, class eap_variable_data_c *) const
	?send_M1@simple_config_record_c@@AAE?AW4eap_status_e@@PBVsimple_config_payloads_c@@@Z @ 51 NONAME ; enum eap_status_e simple_config_record_c::send_M1(class simple_config_payloads_c const *)
	?send_final_notification@eap_type_simple_config_c@@AAE?AW4eap_status_e@@XZ @ 52 NONAME ; enum eap_status_e eap_type_simple_config_c::send_final_notification(void)
	?get_SSID@simple_config_credential_c@@QAEPAVeap_variable_data_c@@XZ @ 53 NONAME ; class eap_variable_data_c * simple_config_credential_c::get_SSID(void)
	?process_M4@simple_config_record_c@@AAE?AW4eap_status_e@@PBVsimple_config_payloads_c@@@Z @ 54 NONAME ; enum eap_status_e simple_config_record_c::process_M4(class simple_config_payloads_c const *)
	?load_module@eap_type_simple_config_c@@UAE?AW4eap_status_e@@Veap_expanded_type_c@@0PAVabs_eap_base_type_c@@PAPAVeap_base_type_c@@_NPBVeap_am_network_id_c@@@Z @ 55 NONAME ; enum eap_status_e eap_type_simple_config_c::load_module(class eap_expanded_type_c, class eap_expanded_type_c, class abs_eap_base_type_c *, class eap_base_type_c * *, bool, class eap_am_network_id_c const *)
	?get_network_key_index@network_key_and_index_c@@QBEEXZ @ 56 NONAME ; unsigned char network_key_and_index_c::get_network_key_index(void) const
	?get_state_string@eap_type_simple_config_c@@ABEPBDXZ @ 57 NONAME ; char const * eap_type_simple_config_c::get_state_string(void) const
	?get_reassembly_state_string@eap_type_simple_config_c@@SAPBDW4eap_type_simple_config_reassembly_state_e@@@Z @ 58 NONAME ; char const * eap_type_simple_config_c::get_reassembly_state_string(enum eap_type_simple_config_reassembly_state_e)
	??0simple_config_base_record_c@@QAE@PAVabs_eap_am_tools_c@@@Z @ 59 NONAME ; simple_config_base_record_c::simple_config_base_record_c(class abs_eap_am_tools_c *)
	?add_data@simple_config_variable_data_c@@QAE?AW4eap_status_e@@PBXK@Z @ 60 NONAME ; enum eap_status_e simple_config_variable_data_c::add_data(void const *, unsigned long)
	?send_WSC_ACK@simple_config_record_c@@AAE?AW4eap_status_e@@XZ @ 61 NONAME ; enum eap_status_e simple_config_record_c::send_WSC_ACK(void)
	?initalize_error_message_timeout@simple_config_record_c@@AAE?AW4eap_status_e@@XZ @ 62 NONAME ; enum eap_status_e simple_config_record_c::initalize_error_message_timeout(void)
	?get_full_attribute_buffer@simple_config_variable_data_c@@QAEPAVeap_variable_data_c@@XZ @ 63 NONAME ; class eap_variable_data_c * simple_config_variable_data_c::get_full_attribute_buffer(void)
	?generate_dhe_keys@simple_config_record_c@@AAE?AW4eap_status_e@@XZ @ 64 NONAME ; enum eap_status_e simple_config_record_c::generate_dhe_keys(void)
	?set_state@simple_config_record_c@@AAEXW4simple_config_state_e@@@Z @ 65 NONAME ; void simple_config_record_c::set_state(enum simple_config_state_e)
	?eap_acknowledge@eap_type_simple_config_c@@UAE?AW4eap_status_e@@PBVeap_am_network_id_c@@@Z @ 66 NONAME ; enum eap_status_e eap_type_simple_config_c::eap_acknowledge(class eap_am_network_id_c const *)
	?set_eap_type@eap_simple_config_header_c@@QAEXVeap_expanded_type_c@@_N@Z @ 67 NONAME ; void eap_simple_config_header_c::set_eap_type(class eap_expanded_type_c, bool)
	?get_attribute_type_string@eap_simple_config_trace_string_c@@QBEPBDW4simple_config_Attribute_Type_e@@@Z @ 68 NONAME ; char const * eap_simple_config_trace_string_c::get_attribute_type_string(enum simple_config_Attribute_Type_e) const
	?copy@simple_config_variable_data_c@@QBEPAV1@XZ @ 69 NONAME ; class simple_config_variable_data_c * simple_config_variable_data_c::copy(void) const
	?set_timer@eap_type_simple_config_c@@UAE?AW4eap_status_e@@PAVabs_eap_base_timer_c@@KPAXK@Z @ 70 NONAME ; enum eap_status_e eap_type_simple_config_c::set_timer(class abs_eap_base_timer_c *, unsigned long, void *, unsigned long)
	?set_flag_reserved@eap_simple_config_header_c@@QAEXE@Z @ 71 NONAME ; void eap_simple_config_header_c::set_flag_reserved(unsigned char)
	??1eap_type_simple_config_c@@UAE@XZ @ 72 NONAME ; eap_type_simple_config_c::~eap_type_simple_config_c(void)
	?get_attribute_data@simple_config_payloads_c@@QBE?AW4eap_status_e@@W4simple_config_Attribute_Type_e@@PA_K@Z @ 73 NONAME ; enum eap_status_e simple_config_payloads_c::get_attribute_data(enum simple_config_Attribute_Type_e, unsigned long long *) const
	??0simple_config_payloads_c@@QAE@PAVabs_eap_am_tools_c@@@Z @ 74 NONAME ; simple_config_payloads_c::simple_config_payloads_c(class abs_eap_am_tools_c *)
	?get_eap_type@eap_simple_config_header_c@@QBE?AVeap_expanded_type_c@@XZ @ 75 NONAME ; class eap_expanded_type_c eap_simple_config_header_c::get_eap_type(void) const
	?send_M5@simple_config_record_c@@AAE?AW4eap_status_e@@XZ @ 76 NONAME ; enum eap_status_e simple_config_record_c::send_M5(void)
	?received_registrar_information@CEapAmProtectedSetupSymbian@@UAE?AW4eap_status_e@@PBV?$eap_array_c@Vsimple_config_payloads_c@@@@@Z @ 77 NONAME ; enum eap_status_e CEapAmProtectedSetupSymbian::received_registrar_information(class eap_array_c<class simple_config_payloads_c> const *)
	?get_attribute_data@simple_config_payloads_c@@QBE?AW4eap_status_e@@W4simple_config_Attribute_Type_e@@PAK@Z @ 78 NONAME ; enum eap_status_e simple_config_payloads_c::get_attribute_data(enum simple_config_Attribute_Type_e, unsigned long *) const
	?initialize_M2D_received_timeout@simple_config_record_c@@AAE?AW4eap_status_e@@XZ @ 79 NONAME ; enum eap_status_e simple_config_record_c::initialize_M2D_received_timeout(void)
	?reset@simple_config_message_c@@QAE?AW4eap_status_e@@XZ @ 80 NONAME ; enum eap_status_e simple_config_message_c::reset(void)
	??0eap_type_simple_config_state_notification_c@@QAE@PAVabs_eap_am_tools_c@@PBVeap_am_network_id_c@@_NW4eap_state_notification_eap_e@@W4eap_protocol_layer_e@@W4eap_type_ietf_values_e@@KKE2@Z @ 81 NONAME ; eap_type_simple_config_state_notification_c::eap_type_simple_config_state_notification_c(class abs_eap_am_tools_c *, class eap_am_network_id_c const *, bool, enum eap_state_notification_eap_e, enum eap_protocol_layer_e, enum eap_type_ietf_values_e, unsigned long, unsigned long, unsigned char, bool)
	?check_sent_simple_config_message@simple_config_record_c@@AAE?AW4eap_status_e@@XZ @ 82 NONAME ; enum eap_status_e simple_config_record_c::check_sent_simple_config_message(void)
	?create_simple_config_message@simple_config_payloads_c@@QBE?AW4eap_status_e@@PAVsimple_config_message_c@@_N@Z @ 83 NONAME ; enum eap_status_e simple_config_payloads_c::create_simple_config_message(class simple_config_message_c *, bool) const
	?object_increase_reference_count@simple_config_variable_data_c@@QAEXXZ @ 84 NONAME ; void simple_config_variable_data_c::object_increase_reference_count(void)
	?simple_config_packet_send@eap_type_simple_config_c@@UAE?AW4eap_status_e@@PAVeap_buf_chain_wr_c@@W4simple_config_Message_Type_e@@@Z @ 85 NONAME ; enum eap_status_e eap_type_simple_config_c::simple_config_packet_send(class eap_buf_chain_wr_c *, enum simple_config_Message_Type_e)
	?packet_send@eap_type_simple_config_c@@QAE?AW4eap_status_e@@PBVeap_am_network_id_c@@PAVeap_buf_chain_wr_c@@KKK@Z @ 86 NONAME ; enum eap_status_e eap_type_simple_config_c::packet_send(class eap_am_network_id_c const *, class eap_buf_chain_wr_c *, unsigned long, unsigned long, unsigned long)
	?get_is_valid@simple_config_payloads_c@@QBE_NXZ @ 87 NONAME ; bool simple_config_payloads_c::get_is_valid(void) const
	?set_attribute_type@simple_config_variable_data_c@@QAEXW4simple_config_Attribute_Type_e@@@Z @ 88 NONAME ; void simple_config_variable_data_c::set_attribute_type(enum simple_config_Attribute_Type_e)
	?simple_config_message_process@eap_type_simple_config_c@@AAE?AW4eap_status_e@@PBVeap_am_network_id_c@@PAVeap_simple_config_header_c@@K@Z @ 89 NONAME ; enum eap_status_e eap_type_simple_config_c::simple_config_message_process(class eap_am_network_id_c const *, class eap_simple_config_header_c *, unsigned long)
	??0eap_type_simple_config_state_notification_c@@QAE@PAVabs_eap_am_tools_c@@PBVeap_am_network_id_c@@_NW4eap_state_notification_generic_e@@W4eap_protocol_layer_e@@KKKE2@Z @ 90 NONAME ; eap_type_simple_config_state_notification_c::eap_type_simple_config_state_notification_c(class abs_eap_am_tools_c *, class eap_am_network_id_c const *, bool, enum eap_state_notification_generic_e, enum eap_protocol_layer_e, unsigned long, unsigned long, unsigned long, unsigned char, bool)
	??1eap_simple_config_header_c@@UAE@XZ @ 91 NONAME ; eap_simple_config_header_c::~eap_simple_config_header_c(void)
	?update_buffer_indexes@eap_type_simple_config_c@@AAEXKKPAK0@Z @ 92 NONAME ; void eap_type_simple_config_c::update_buffer_indexes(unsigned long, unsigned long, unsigned long *, unsigned long *)
	?add_padding@simple_config_message_c@@QAE?AW4eap_status_e@@K@Z @ 93 NONAME ; enum eap_status_e simple_config_message_c::add_padding(unsigned long)
	?verify_padding@simple_config_payloads_c@@AAE?AW4eap_status_e@@PBEK@Z @ 94 NONAME ; enum eap_status_e simple_config_payloads_c::verify_padding(unsigned char const *, unsigned long)
	?query_eap_identity@CEapAmProtectedSetupSymbian@@UAE?AW4eap_status_e@@PBVeap_am_network_id_c@@EPA_NPAVeap_variable_data_c@@12@Z @ 95 NONAME ; enum eap_status_e CEapAmProtectedSetupSymbian::query_eap_identity(class eap_am_network_id_c const *, unsigned char, bool *, class eap_variable_data_c *, bool *, class eap_variable_data_c *)
	??0eap_type_simple_config_state_notification_c@@QAE@PAVabs_eap_am_tools_c@@PBVeap_am_network_id_c@@_NW4eap_state_notification_eap_e@@W4eap_protocol_layer_e@@Veap_expanded_type_c@@KKE2@Z @ 96 NONAME ; eap_type_simple_config_state_notification_c::eap_type_simple_config_state_notification_c(class abs_eap_am_tools_c *, class eap_am_network_id_c const *, bool, enum eap_state_notification_eap_e, enum eap_protocol_layer_e, class eap_expanded_type_c, unsigned long, unsigned long, unsigned char, bool)
	?reset@simple_config_record_c@@UAE?AW4eap_status_e@@XZ @ 97 NONAME ; enum eap_status_e simple_config_record_c::reset(void)
	?parse_generic_payload@simple_config_payloads_c@@QAE?AW4eap_status_e@@W4simple_config_Attribute_Type_e@@PBVsimple_config_tlv_header_c@@@Z @ 98 NONAME ; enum eap_status_e simple_config_payloads_c::parse_generic_payload(enum simple_config_Attribute_Type_e, class simple_config_tlv_header_c const *)
	?decrypt_payloads@simple_config_record_c@@AAE?AW4eap_status_e@@PBVeap_variable_data_c@@0PAVsimple_config_variable_data_c@@PAVsimple_config_payloads_c@@@Z @ 99 NONAME ; enum eap_status_e simple_config_record_c::decrypt_payloads(class eap_variable_data_c const *, class eap_variable_data_c const *, class simple_config_variable_data_c *, class simple_config_payloads_c *)
	?reset@CEapAmProtectedSetupSymbian@@UAE?AW4eap_status_e@@XZ @ 100 NONAME ; enum eap_status_e CEapAmProtectedSetupSymbian::reset(void)
	?query_network_and_device_parameters@CEapAmProtectedSetupSymbian@@UAE?AW4eap_status_e@@W4simple_config_state_e@@@Z @ 101 NONAME ; enum eap_status_e CEapAmProtectedSetupSymbian::query_network_and_device_parameters(enum simple_config_state_e)
	?get_is_valid@CEapAmProtectedSetupSymbian@@UAE_NXZ @ 102 NONAME ; bool CEapAmProtectedSetupSymbian::get_is_valid(void)
	?get_attribute_count@simple_config_payloads_c@@QBEKXZ @ 103 NONAME ; unsigned long simple_config_payloads_c::get_attribute_count(void) const
	?add_next_payload_with_same_attribute_type@simple_config_variable_data_c@@QAEXPAV1@@Z @ 104 NONAME ; void simple_config_variable_data_c::add_next_payload_with_same_attribute_type(class simple_config_variable_data_c *)
	?get_data_length@simple_config_variable_data_c@@QBEKXZ @ 105 NONAME ; unsigned long simple_config_variable_data_c::get_data_length(void) const
	?state_notification@eap_type_simple_config_c@@UAEXPBVabs_eap_state_notification_c@@@Z @ 106 NONAME ; void eap_type_simple_config_c::state_notification(class abs_eap_state_notification_c const *)
	?completion_action_check@simple_config_record_c@@AAE?AW4eap_status_e@@XZ @ 107 NONAME ; enum eap_status_e simple_config_record_c::completion_action_check(void)
	?generate_er_hashs@simple_config_record_c@@AAE?AW4eap_status_e@@_NPBVeap_variable_data_c@@11PAV3@22222@Z @ 108 NONAME ; enum eap_status_e simple_config_record_c::generate_er_hashs(bool, class eap_variable_data_c const *, class eap_variable_data_c const *, class eap_variable_data_c const *, class eap_variable_data_c *, class eap_variable_data_c *, class eap_variable_data_c *, class eap_variable_data_c *, class eap_variable_data_c *, class eap_variable_data_c *)
	?complete_protected_setup_device_paramsL@CEapAmProtectedSetupSymbian@@QAE?AW4eap_status_e@@ABVTMobilePhoneIdentityV1@RMobilePhone@@W42@@Z @ 109 NONAME ; enum eap_status_e CEapAmProtectedSetupSymbian::complete_protected_setup_device_paramsL(class RMobilePhone::TMobilePhoneIdentityV1 const &, enum eap_status_e)
	?cancel_identity_query@CEapAmProtectedSetupSymbian@@UAE?AW4eap_status_e@@XZ @ 110 NONAME ; enum eap_status_e CEapAmProtectedSetupSymbian::cancel_identity_query(void)
	?read_configure@simple_config_record_c@@QAE?AW4eap_status_e@@PBVeap_configuration_field_c@@PAVeap_variable_data_c@@@Z @ 111 NONAME ; enum eap_status_e simple_config_record_c::read_configure(class eap_configuration_field_c const *, class eap_variable_data_c *)
	?set_initial_eap_identifier@eap_type_simple_config_c@@UAE?AW4eap_status_e@@PBVeap_am_network_id_c@@E@Z @ 112 NONAME ; enum eap_status_e eap_type_simple_config_c::set_initial_eap_identifier(class eap_am_network_id_c const *, unsigned char)
	?cancel_timer@eap_type_simple_config_c@@UAE?AW4eap_status_e@@PAVabs_eap_base_timer_c@@K@Z @ 113 NONAME ; enum eap_status_e eap_type_simple_config_c::cancel_timer(class abs_eap_base_timer_c *, unsigned long)
	?get_network_keys@simple_config_credential_c@@QAEPAV?$eap_array_c@Vnetwork_key_and_index_c@@@@XZ @ 114 NONAME ; class eap_array_c<class network_key_and_index_c> * simple_config_credential_c::get_network_keys(void)
	?timer_expired@eap_type_simple_config_c@@UAE?AW4eap_status_e@@KPAX@Z @ 115 NONAME ; enum eap_status_e eap_type_simple_config_c::timer_expired(unsigned long, void *)
	?reset@eap_type_simple_config_c@@UAE?AW4eap_status_e@@XZ @ 116 NONAME ; enum eap_status_e eap_type_simple_config_c::reset(void)
	?NewL@CEapAmProtectedSetupSymbian@@SAPAV1@PAVabs_eap_am_tools_c@@PAVabs_eap_base_type_c@@W4TIndexType@@HVeap_expanded_type_c@@3_NPBVeap_am_network_id_c@@PAVabs_eap_configuration_if_c@@@Z @ 117 NONAME ; class CEapAmProtectedSetupSymbian * CEapAmProtectedSetupSymbian::NewL(class abs_eap_am_tools_c *, class abs_eap_base_type_c *, enum TIndexType, int, class eap_expanded_type_c, class eap_expanded_type_c, bool, class eap_am_network_id_c const *, class abs_eap_configuration_if_c *)
	?get_code_string@eap_simple_config_header_c@@QBEPBDXZ @ 118 NONAME ; char const * eap_simple_config_header_c::get_code_string(void) const
	?check_mandatory_payloads@simple_config_payloads_c@@QBE?AW4eap_status_e@@PBV?$eap_array_c@W4simple_config_Attribute_Type_e@@@@@Z @ 119 NONAME ; enum eap_status_e simple_config_payloads_c::check_mandatory_payloads(class eap_array_c<enum simple_config_Attribute_Type_e> const *) const
	?add_authenticator_attribute@simple_config_record_c@@AAE?AW4eap_status_e@@PAVsimple_config_message_c@@0@Z @ 120 NONAME ; enum eap_status_e simple_config_record_c::add_authenticator_attribute(class simple_config_message_c *, class simple_config_message_c *)
	?get_is_valid@simple_config_record_c@@UAE_NXZ @ 121 NONAME ; bool simple_config_record_c::get_is_valid(void)
	?set_network_index@simple_config_credential_c@@QAEXE@Z @ 122 NONAME ; void simple_config_credential_c::set_network_index(unsigned char)
	?add_rogue_ap@eap_type_simple_config_c@@UAE?AW4eap_status_e@@AAV?$eap_array_c@Veap_rogue_ap_entry_c@@@@@Z @ 123 NONAME ; enum eap_status_e eap_type_simple_config_c::add_rogue_ap(class eap_array_c<class eap_rogue_ap_entry_c> &)
	?generate_nonce@simple_config_record_c@@AAE?AW4eap_status_e@@PAVeap_variable_data_c@@K@Z @ 124 NONAME ; enum eap_status_e simple_config_record_c::generate_nonce(class eap_variable_data_c *, unsigned long)
	?get_Encryption_Type@simple_config_credential_c@@QAE?AW4simple_config_Encryption_Type_e@@XZ @ 125 NONAME ; enum simple_config_Encryption_Type_e simple_config_credential_c::get_Encryption_Type(void)
	?get_attribute@simple_config_payloads_c@@QBEPAVsimple_config_variable_data_c@@K@Z @ 126 NONAME ; class simple_config_variable_data_c * simple_config_payloads_c::get_attribute(unsigned long) const
	?get_is_mandatory@simple_config_variable_data_c@@QBE_NXZ @ 127 NONAME ; bool simple_config_variable_data_c::get_is_mandatory(void) const
	?indicate_messages_processed@simple_config_record_c@@AAE?AW4eap_status_e@@XZ @ 128 NONAME ; enum eap_status_e simple_config_record_c::indicate_messages_processed(void)
	?check_payloads_existense@simple_config_payloads_c@@QBE?AW4eap_status_e@@PBV?$eap_array_c@W4simple_config_Attribute_Type_e@@@@@Z @ 129 NONAME ; enum eap_status_e simple_config_payloads_c::check_payloads_existense(class eap_array_c<enum simple_config_Attribute_Type_e> const *) const
	?send_WSC_NACK@simple_config_record_c@@AAE?AW4eap_status_e@@XZ @ 130 NONAME ; enum eap_status_e simple_config_record_c::send_WSC_NACK(void)
	?indicate_state_to_lower_layer@simple_config_record_c@@AAE?AW4eap_status_e@@W4simple_config_state_e@@@Z @ 131 NONAME ; enum eap_status_e simple_config_record_c::indicate_state_to_lower_layer(enum simple_config_state_e)
	?send_sc_frag_ack@eap_type_simple_config_c@@AAE?AW4eap_status_e@@XZ @ 132 NONAME ; enum eap_status_e eap_type_simple_config_c::send_sc_frag_ack(void)
	?send_M7@simple_config_record_c@@AAE?AW4eap_status_e@@XZ @ 133 NONAME ; enum eap_status_e simple_config_record_c::send_M7(void)
	?write_configure@eap_type_simple_config_c@@UAE?AW4eap_status_e@@PBVeap_configuration_field_c@@PAVeap_variable_data_c@@@Z @ 134 NONAME ; enum eap_status_e eap_type_simple_config_c::write_configure(class eap_configuration_field_c const *, class eap_variable_data_c *)
	?set_sc_op_code@eap_simple_config_header_c@@QAEXW4op_code_e@1@@Z @ 135 NONAME ; void eap_simple_config_header_c::set_sc_op_code(enum eap_simple_config_header_c::op_code_e)
	?set_Authentication_Type@simple_config_credential_c@@QAEXW4simple_config_Authentication_Type_e@@@Z @ 136 NONAME ; void simple_config_credential_c::set_Authentication_Type(enum simple_config_Authentication_Type_e)
	?set_next_payload_with_same_attribute_type@simple_config_variable_data_c@@QAEXPAV1@@Z @ 137 NONAME ; void simple_config_variable_data_c::set_next_payload_with_same_attribute_type(class simple_config_variable_data_c *)
	?load_module@CEapAmProtectedSetupSymbian@@UAE?AW4eap_status_e@@Veap_expanded_type_c@@0PAVabs_eap_base_type_c@@PAPAVeap_base_type_c@@_NPBVeap_am_network_id_c@@@Z @ 138 NONAME ; enum eap_status_e CEapAmProtectedSetupSymbian::load_module(class eap_expanded_type_c, class eap_expanded_type_c, class abs_eap_base_type_c *, class eap_base_type_c * *, bool, class eap_am_network_id_c const *)
	?get_attribute_data@simple_config_payloads_c@@QBE?AW4eap_status_e@@W4simple_config_Attribute_Type_e@@PAG@Z @ 139 NONAME ; enum eap_status_e simple_config_payloads_c::get_attribute_data(enum simple_config_Attribute_Type_e, unsigned short *) const
	?update_payload_indexes@eap_type_simple_config_c@@AAEXKKKPAK000@Z @ 140 NONAME ; void eap_type_simple_config_c::update_payload_indexes(unsigned long, unsigned long, unsigned long, unsigned long *, unsigned long *, unsigned long *, unsigned long *)
	?eap_identity_response_packet_process@eap_type_simple_config_c@@QAE?AW4eap_status_e@@PBVeap_am_network_id_c@@PAVeap_header_wr_c@@K@Z @ 141 NONAME ; enum eap_status_e eap_type_simple_config_c::eap_identity_response_packet_process(class eap_am_network_id_c const *, class eap_header_wr_c *, unsigned long)
	?get_eap_code@eap_simple_config_header_c@@QBE?AW4eap_code_value_e@@XZ @ 142 NONAME ; enum eap_code_value_e eap_simple_config_header_c::get_eap_code(void) const
	?cancel_error_message_timeout@simple_config_record_c@@AAE?AW4eap_status_e@@XZ @ 143 NONAME ; enum eap_status_e simple_config_record_c::cancel_error_message_timeout(void)
	?set_state@eap_type_simple_config_c@@AAEXW4eap_type_simple_config_state_variable_e@@@Z @ 144 NONAME ; void eap_type_simple_config_c::set_state(enum eap_type_simple_config_state_variable_e)
	?get_simple_config_flags@eap_simple_config_header_c@@QBEPAEXZ @ 145 NONAME ; unsigned char * eap_simple_config_header_c::get_simple_config_flags(void) const
	?generate_kdk@simple_config_record_c@@AAE?AW4eap_status_e@@PBVeap_variable_data_c@@000PAV3@@Z @ 146 NONAME ; enum eap_status_e simple_config_record_c::generate_kdk(class eap_variable_data_c const *, class eap_variable_data_c const *, class eap_variable_data_c const *, class eap_variable_data_c const *, class eap_variable_data_c *)
	?get_flag_simple_config_length_included@eap_simple_config_header_c@@QBE_NXZ @ 147 NONAME ; bool eap_simple_config_header_c::get_flag_simple_config_length_included(void) const
	?process_M2@simple_config_record_c@@AAE?AW4eap_status_e@@PBVsimple_config_payloads_c@@@Z @ 148 NONAME ; enum eap_status_e simple_config_record_c::process_M2(class simple_config_payloads_c const *)
	??0simple_config_credential_c@@QAE@PAVabs_eap_am_tools_c@@@Z @ 149 NONAME ; simple_config_credential_c::simple_config_credential_c(class abs_eap_am_tools_c *)
	?type_configure_write@CEapAmProtectedSetupSymbian@@UAE?AW4eap_status_e@@PBVeap_configuration_field_c@@PAVeap_variable_data_c@@@Z @ 150 NONAME ; enum eap_status_e CEapAmProtectedSetupSymbian::type_configure_write(class eap_configuration_field_c const *, class eap_variable_data_c *)
	?timer_delete_data@simple_config_record_c@@EAE?AW4eap_status_e@@KPAX@Z @ 151 NONAME ; enum eap_status_e simple_config_record_c::timer_delete_data(unsigned long, void *)
	?shutdown@CEapAmProtectedSetupSymbian@@UAE?AW4eap_status_e@@XZ @ 152 NONAME ; enum eap_status_e CEapAmProtectedSetupSymbian::shutdown(void)
	?set_am_partner@CEapAmProtectedSetupSymbian@@UAEXPAVabs_eap_am_type_simple_config_c@@@Z @ 153 NONAME ; void CEapAmProtectedSetupSymbian::set_am_partner(class abs_eap_am_type_simple_config_c *)
	?get_sc_flags_offset@eap_simple_config_header_c@@QBEKXZ @ 154 NONAME ; unsigned long eap_simple_config_header_c::get_sc_flags_offset(void) const
	?encrypt_payloads@simple_config_record_c@@AAE?AW4eap_status_e@@PBVeap_variable_data_c@@0PAVsimple_config_payloads_c@@PAVsimple_config_variable_data_c@@@Z @ 155 NONAME ; enum eap_status_e simple_config_record_c::encrypt_payloads(class eap_variable_data_c const *, class eap_variable_data_c const *, class simple_config_payloads_c *, class simple_config_variable_data_c *)
	?are_pending_queries_completed@simple_config_record_c@@AAE?AW4eap_status_e@@XZ @ 156 NONAME ; enum eap_status_e simple_config_record_c::are_pending_queries_completed(void)
	?write_configure@simple_config_record_c@@QAE?AW4eap_status_e@@PBVeap_configuration_field_c@@PAVeap_variable_data_c@@@Z @ 157 NONAME ; enum eap_status_e simple_config_record_c::write_configure(class eap_configuration_field_c const *, class eap_variable_data_c *)
	?set_simple_config_am_partner@CEapAmProtectedSetupSymbian@@UAEXPAVabs_simple_config_am_services_c@@@Z @ 158 NONAME ; void CEapAmProtectedSetupSymbian::set_simple_config_am_partner(class abs_simple_config_am_services_c *)
	?process_M8@simple_config_record_c@@AAE?AW4eap_status_e@@PBVsimple_config_payloads_c@@@Z @ 159 NONAME ; enum eap_status_e simple_config_record_c::process_M8(class simple_config_payloads_c const *)
	?set_failure_message_received@eap_type_simple_config_c@@AAEXXZ @ 160 NONAME ; void eap_type_simple_config_c::set_failure_message_received(void)
	?set_flag_simple_config_length_included@eap_simple_config_header_c@@QAEX_N@Z @ 161 NONAME ; void eap_simple_config_header_c::set_flag_simple_config_length_included(bool)
	?get_is_valid@simple_config_variable_data_c@@QBE_NXZ @ 162 NONAME ; bool simple_config_variable_data_c::get_is_valid(void) const
	?configure@eap_type_simple_config_c@@UAE?AW4eap_status_e@@XZ @ 163 NONAME ; enum eap_status_e eap_type_simple_config_c::configure(void)
	?start_simple_config_authentication@eap_type_simple_config_c@@AAE?AW4eap_status_e@@PBVeap_am_network_id_c@@PBVeap_variable_data_c@@@Z @ 164 NONAME ; enum eap_status_e eap_type_simple_config_c::start_simple_config_authentication(class eap_am_network_id_c const *, class eap_variable_data_c const *)
	?get_completion_action_string@simple_config_completion_c@@QBEPBDXZ @ 165 NONAME ; char const * simple_config_completion_c::get_completion_action_string(void) const
	?process_simple_config_attributes@simple_config_record_c@@AAE?AW4eap_status_e@@PBVsimple_config_payloads_c@@@Z @ 166 NONAME ; enum eap_status_e simple_config_record_c::process_simple_config_attributes(class simple_config_payloads_c const *)
	?get_data_offset@eap_simple_config_header_c@@QBEPAEPAVabs_eap_am_tools_c@@KK@Z @ 167 NONAME ; unsigned char * eap_simple_config_header_c::get_data_offset(class abs_eap_am_tools_c *, unsigned long, unsigned long) const
	?configure@CEapAmProtectedSetupSymbian@@UAE?AW4eap_status_e@@XZ @ 168 NONAME ; enum eap_status_e CEapAmProtectedSetupSymbian::configure(void)
	?keyed_hmac@simple_config_record_c@@AAE?AW4eap_status_e@@PBVeap_variable_data_c@@0PAV3@@Z @ 169 NONAME ; enum eap_status_e simple_config_record_c::keyed_hmac(class eap_variable_data_c const *, class eap_variable_data_c const *, class eap_variable_data_c *)
	?shutdown@simple_config_record_c@@UAE?AW4eap_status_e@@XZ @ 170 NONAME ; enum eap_status_e simple_config_record_c::shutdown(void)
	?generate_dhe_shared_secret@simple_config_record_c@@AAE?AW4eap_status_e@@PBVeap_variable_data_c@@PAV3@@Z @ 171 NONAME ; enum eap_status_e simple_config_record_c::generate_dhe_shared_secret(class eap_variable_data_c const *, class eap_variable_data_c *)
	?get_is_valid_data@network_key_and_index_c@@QAE_NXZ @ 172 NONAME ; bool network_key_and_index_c::get_is_valid_data(void)
	?set_reassembly_state@eap_type_simple_config_c@@AAEXW4eap_type_simple_config_reassembly_state_e@@@Z @ 173 NONAME ; void eap_type_simple_config_c::set_reassembly_state(enum eap_type_simple_config_reassembly_state_e)
	?restore_saved_previous_state@eap_type_simple_config_c@@AAEXXZ @ 174 NONAME ; void eap_type_simple_config_c::restore_saved_previous_state(void)
	?get_header@simple_config_variable_data_c@@QAEPAVsimple_config_tlv_header_c@@XZ @ 175 NONAME ; class simple_config_tlv_header_c * simple_config_variable_data_c::get_header(void)
	??0simple_config_record_c@@QAE@PAVabs_eap_am_tools_c@@PAVsimple_config_am_services_c@@_N2PBVeap_am_network_id_c@@@Z @ 176 NONAME ; simple_config_record_c::simple_config_record_c(class abs_eap_am_tools_c *, class simple_config_am_services_c *, bool, bool, class eap_am_network_id_c const *)
	?get_is_client@eap_type_simple_config_c@@UAE_NXZ @ 177 NONAME ; bool eap_type_simple_config_c::get_is_client(void)
	?get_last_eap_identifier@eap_type_simple_config_c@@ABEEXZ @ 178 NONAME ; unsigned char eap_type_simple_config_c::get_last_eap_identifier(void) const
	??1simple_config_credential_c@@UAE@XZ @ 179 NONAME ; simple_config_credential_c::~simple_config_credential_c(void)
	?get_attribute_type@simple_config_variable_data_c@@QBE?AW4simple_config_Attribute_Type_e@@XZ @ 180 NONAME ; enum simple_config_Attribute_Type_e simple_config_variable_data_c::get_attribute_type(void) const
	?set_network_key_index@network_key_and_index_c@@QAEXE@Z @ 181 NONAME ; void network_key_and_index_c::set_network_key_index(unsigned char)
	?get_header_length@eap_simple_config_header_c@@QBEKXZ @ 182 NONAME ; unsigned long eap_simple_config_header_c::get_header_length(void) const
	?copy_attribute@simple_config_payloads_c@@QAE?AW4eap_status_e@@PBV1@W4simple_config_Attribute_Type_e@@@Z @ 183 NONAME ; enum eap_status_e simple_config_payloads_c::copy_attribute(class simple_config_payloads_c const *, enum simple_config_Attribute_Type_e)
	??0eap_type_simple_config_c@@QAE@PAVabs_eap_am_tools_c@@PAVabs_eap_base_type_c@@PAVeap_am_type_simple_config_c@@_NPAVsimple_config_base_record_c@@33Veap_expanded_type_c@@PBVeap_am_network_id_c@@@Z @ 184 NONAME ; eap_type_simple_config_c::eap_type_simple_config_c(class abs_eap_am_tools_c *, class abs_eap_base_type_c *, class eap_am_type_simple_config_c *, bool, class simple_config_base_record_c *, bool, bool, class eap_expanded_type_c, class eap_am_network_id_c const *)
	?generate_erhash@simple_config_record_c@@AAE?AW4eap_status_e@@_NPBVeap_variable_data_c@@11PAV3@22@Z @ 185 NONAME ; enum eap_status_e simple_config_record_c::generate_erhash(bool, class eap_variable_data_c const *, class eap_variable_data_c const *, class eap_variable_data_c const *, class eap_variable_data_c *, class eap_variable_data_c *, class eap_variable_data_c *)
	?get_start_offset_of_data@eap_simple_config_header_c@@QBEKXZ @ 186 NONAME ; unsigned long eap_simple_config_header_c::get_start_offset_of_data(void) const
	?get_flag_reserved@eap_simple_config_header_c@@QBEEXZ @ 187 NONAME ; unsigned char eap_simple_config_header_c::get_flag_reserved(void) const
	?send_error_notification@simple_config_record_c@@AAEXW4eap_status_e@@@Z @ 188 NONAME ; void simple_config_record_c::send_error_notification(enum eap_status_e)
	?get_type_partner@simple_config_base_record_c@@QAEPAVabs_simple_config_base_record_c@@XZ @ 189 NONAME ; class abs_simple_config_base_record_c * simple_config_base_record_c::get_type_partner(void)
	?key_derivation_function@simple_config_record_c@@AAE?AW4eap_status_e@@PBVeap_variable_data_c@@0KPAV3@@Z @ 190 NONAME ; enum eap_status_e simple_config_record_c::key_derivation_function(class eap_variable_data_c const *, class eap_variable_data_c const *, unsigned long, class eap_variable_data_c *)
	?unload_module@CEapAmProtectedSetupSymbian@@UAE?AW4eap_status_e@@Veap_expanded_type_c@@@Z @ 191 NONAME ; enum eap_status_e CEapAmProtectedSetupSymbian::unload_module(class eap_expanded_type_c)
	?finish_successful_authentication@eap_type_simple_config_c@@AAE?AW4eap_status_e@@XZ @ 192 NONAME ; enum eap_status_e eap_type_simple_config_c::finish_successful_authentication(void)
	?process_simple_config_message@simple_config_record_c@@AAE?AW4eap_status_e@@XZ @ 193 NONAME ; enum eap_status_e simple_config_record_c::process_simple_config_message(void)
	?set_is_valid@simple_config_record_c@@EAEXXZ @ 194 NONAME ; void simple_config_record_c::set_is_valid(void)
	?get_sc_op_code_offset@eap_simple_config_header_c@@QBEKXZ @ 195 NONAME ; unsigned long eap_simple_config_header_c::get_sc_op_code_offset(void) const
	?process_WSC_NACK@simple_config_record_c@@AAE?AW4eap_status_e@@PBVsimple_config_payloads_c@@@Z @ 196 NONAME ; enum eap_status_e simple_config_record_c::process_WSC_NACK(class simple_config_payloads_c const *)
	?get_attribute_data@simple_config_payloads_c@@ABE?AW4eap_status_e@@W4simple_config_Attribute_Type_e@@PAXK@Z @ 197 NONAME ; enum eap_status_e simple_config_payloads_c::get_attribute_data(enum simple_config_Attribute_Type_e, void *, unsigned long) const
	?unset_failure_message_received@eap_type_simple_config_c@@AAEXXZ @ 198 NONAME ; void eap_type_simple_config_c::unset_failure_message_received(void)
	?get_send_network_id@eap_type_simple_config_c@@AAEPAVeap_am_network_id_c@@XZ @ 199 NONAME ; class eap_am_network_id_c * eap_type_simple_config_c::get_send_network_id(void)
	?get_eap_length@eap_simple_config_header_c@@QBEGXZ @ 200 NONAME ; unsigned short eap_simple_config_header_c::get_eap_length(void) const
	?set_simple_config_flag_bit@eap_simple_config_header_c@@QBEX_NK@Z @ 201 NONAME ; void eap_simple_config_header_c::set_simple_config_flag_bit(bool, unsigned long) const
	?generate_authenticator@simple_config_record_c@@AAE?AW4eap_status_e@@PBVeap_variable_data_c@@0PAV3@@Z @ 202 NONAME ; enum eap_status_e simple_config_record_c::generate_authenticator(class eap_variable_data_c const *, class eap_variable_data_c const *, class eap_variable_data_c *)
	?derive_additional_keys@simple_config_record_c@@AAE?AW4eap_status_e@@PBVeap_variable_data_c@@PAV3@11@Z @ 203 NONAME ; enum eap_status_e simple_config_record_c::derive_additional_keys(class eap_variable_data_c const *, class eap_variable_data_c *, class eap_variable_data_c *, class eap_variable_data_c *)
	?packet_trace@eap_type_simple_config_c@@AAEXPBDPBVeap_am_network_id_c@@PAVeap_header_wr_c@@K@Z @ 204 NONAME ; void eap_type_simple_config_c::packet_trace(char const *, class eap_am_network_id_c const *, class eap_header_wr_c *, unsigned long)
	?handle_eap_identity_query@eap_type_simple_config_c@@AAE?AW4eap_status_e@@PBVeap_am_network_id_c@@E_NPBVeap_variable_data_c@@12@Z @ 205 NONAME ; enum eap_status_e eap_type_simple_config_c::handle_eap_identity_query(class eap_am_network_id_c const *, unsigned char, bool, class eap_variable_data_c const *, bool, class eap_variable_data_c const *)
	??0simple_config_variable_data_c@@QAE@PAVabs_eap_am_tools_c@@@Z @ 206 NONAME ; simple_config_variable_data_c::simple_config_variable_data_c(class abs_eap_am_tools_c *)
	?check_header@eap_simple_config_header_c@@QBE?AW4eap_status_e@@PAVabs_eap_am_tools_c@@_N@Z @ 207 NONAME ; enum eap_status_e eap_simple_config_header_c::check_header(class abs_eap_am_tools_c *, bool) const
	?get_message_type_string@eap_simple_config_trace_string_c@@QBEPBDW4simple_config_Message_Type_e@@@Z @ 208 NONAME ; char const * eap_simple_config_trace_string_c::get_message_type_string(enum simple_config_Message_Type_e) const
	?reset_header@eap_simple_config_header_c@@QAEXPAVabs_eap_am_tools_c@@K_N@Z @ 209 NONAME ; void eap_simple_config_header_c::reset_header(class abs_eap_am_tools_c *, unsigned long, bool)
	?set_eap_identifier@eap_simple_config_header_c@@QAEXE@Z @ 210 NONAME ; void eap_simple_config_header_c::set_eap_identifier(unsigned char)
	?get_reassembly_state@eap_type_simple_config_c@@ABE?AW4eap_type_simple_config_reassembly_state_e@@XZ @ 211 NONAME ; enum eap_type_simple_config_reassembly_state_e eap_type_simple_config_c::get_reassembly_state(void) const
	?save_simple_config_session@CEapAmProtectedSetupSymbian@@UAE?AW4eap_status_e@@W4simple_config_state_e@@PBV?$eap_array_c@Vsimple_config_credential_c@@@@PBVeap_variable_data_c@@W4simple_config_Device_Password_ID_e@@PBVsimple_config_payloads_c@@@Z @ 212 NONAME ; enum eap_status_e CEapAmProtectedSetupSymbian::save_simple_config_session(enum simple_config_state_e, class eap_array_c<class simple_config_credential_c> const *, class eap_variable_data_c const *, enum simple_config_Device_Password_ID_e, class simple_config_payloads_c const *)
	?get_is_valid@simple_config_message_c@@QAE_NXZ @ 213 NONAME ; bool simple_config_message_c::get_is_valid(void)
	?set_last_eap_identifier@eap_type_simple_config_c@@AAEXE@Z @ 214 NONAME ; void eap_type_simple_config_c::set_last_eap_identifier(unsigned char)
	??0network_key_and_index_c@@QAE@PAVabs_eap_am_tools_c@@@Z @ 215 NONAME ; network_key_and_index_c::network_key_and_index_c(class abs_eap_am_tools_c *)
	?send_WSC_Done@simple_config_record_c@@AAE?AW4eap_status_e@@XZ @ 216 NONAME ; enum eap_status_e simple_config_record_c::send_WSC_Done(void)
	?verify_state@simple_config_record_c@@AAE_NW4simple_config_state_e@@@Z @ 217 NONAME ; bool simple_config_record_c::verify_state(enum simple_config_state_e)
	?simple_config_packet_process@eap_type_simple_config_c@@QAE?AW4eap_status_e@@PBVeap_am_network_id_c@@PAVeap_simple_config_header_c@@K@Z @ 218 NONAME ; enum eap_status_e eap_type_simple_config_c::simple_config_packet_process(class eap_am_network_id_c const *, class eap_simple_config_header_c *, unsigned long)
	?start_simple_config_authentication@simple_config_record_c@@UAE?AW4eap_status_e@@PBVeap_variable_data_c@@@Z @ 219 NONAME ; enum eap_status_e simple_config_record_c::start_simple_config_authentication(class eap_variable_data_c const *)
	?copy@network_key_and_index_c@@QAEPAV1@XZ @ 220 NONAME ; class network_key_and_index_c * network_key_and_index_c::copy(void)
	?check_is_valid_eap_type@CEapAmProtectedSetupSymbian@@UAE?AW4eap_status_e@@Veap_expanded_type_c@@@Z @ 221 NONAME ; enum eap_status_e CEapAmProtectedSetupSymbian::check_is_valid_eap_type(class eap_expanded_type_c)
	?send_simple_config_message@simple_config_record_c@@AAE?AW4eap_status_e@@XZ @ 222 NONAME ; enum eap_status_e simple_config_record_c::send_simple_config_message(void)
	?get_sc_op_code_string@eap_simple_config_header_c@@QBEPBDXZ @ 223 NONAME ; char const * eap_simple_config_header_c::get_sc_op_code_string(void) const
	?get_simple_config_flag_value@eap_simple_config_header_c@@QBEEKK@Z @ 224 NONAME ; unsigned char eap_simple_config_header_c::get_simple_config_flag_value(unsigned long, unsigned long) const
	?get_state_string@eap_simple_config_trace_string_c@@QBEPBDW4simple_config_state_e@@@Z @ 225 NONAME ; char const * eap_simple_config_trace_string_c::get_state_string(enum simple_config_state_e) const
	?add_payloads_to_simple_config_authenticator@simple_config_payloads_c@@QBE?AW4eap_status_e@@PAVcrypto_hmac_c@@_N@Z @ 226 NONAME ; enum eap_status_e simple_config_payloads_c::add_payloads_to_simple_config_authenticator(class crypto_hmac_c *, bool) const
	?reset@simple_config_payloads_c@@QAE?AW4eap_status_e@@XZ @ 227 NONAME ; enum eap_status_e simple_config_payloads_c::reset(void)
	?get_MAC_address_const@simple_config_credential_c@@QBEPBVeap_variable_data_c@@XZ @ 228 NONAME ; class eap_variable_data_c const * simple_config_credential_c::get_MAC_address_const(void) const
	?get_data@simple_config_variable_data_c@@QBEPAEK@Z @ 229 NONAME ; unsigned char * simple_config_variable_data_c::get_data(unsigned long) const
	?get_attribute_pointer@simple_config_payloads_c@@QBEPAVsimple_config_variable_data_c@@W4simple_config_Attribute_Type_e@@@Z @ 230 NONAME ; class simple_config_variable_data_c * simple_config_payloads_c::get_attribute_pointer(enum simple_config_Attribute_Type_e) const
	?completion_action_clenup@simple_config_record_c@@AAE?AW4eap_status_e@@XZ @ 231 NONAME ; enum eap_status_e simple_config_record_c::completion_action_clenup(void)
	?type_configure_read@CEapAmProtectedSetupSymbian@@UAE?AW4eap_status_e@@PBVeap_configuration_field_c@@PAVeap_variable_data_c@@@Z @ 232 NONAME ; enum eap_status_e CEapAmProtectedSetupSymbian::type_configure_read(class eap_configuration_field_c const *, class eap_variable_data_c *)
	?set_eap_length@eap_simple_config_header_c@@QAEXG_N@Z @ 233 NONAME ; void eap_simple_config_header_c::set_eap_length(unsigned short, bool)
	?add_attribute@simple_config_payloads_c@@QAE?AW4eap_status_e@@PAVsimple_config_variable_data_c@@@Z @ 234 NONAME ; enum eap_status_e simple_config_payloads_c::add_attribute(class simple_config_variable_data_c *)
	?get_state@simple_config_record_c@@ABE?AW4simple_config_state_e@@XZ @ 235 NONAME ; enum simple_config_state_e simple_config_record_c::get_state(void) const
	?process_M2D@simple_config_record_c@@AAE?AW4eap_status_e@@PBVsimple_config_payloads_c@@@Z @ 236 NONAME ; enum eap_status_e simple_config_record_c::process_M2D(class simple_config_payloads_c const *)
	?parse_simple_config_payloads@simple_config_payloads_c@@QAE?AW4eap_status_e@@PAXPAK1@Z @ 237 NONAME ; enum eap_status_e simple_config_payloads_c::parse_simple_config_payloads(void *, unsigned long *, unsigned long *)
	?set_nai_realm@simple_config_record_c@@UAE?AW4eap_status_e@@PBVeap_variable_data_c@@@Z @ 238 NONAME ; enum eap_status_e simple_config_record_c::set_nai_realm(class eap_variable_data_c const *)
	?configure@simple_config_record_c@@UAE?AW4eap_status_e@@XZ @ 239 NONAME ; enum eap_status_e simple_config_record_c::configure(void)
	?completion_action_add@simple_config_record_c@@AAE?AW4eap_status_e@@W4simple_config_completion_action_e@@@Z @ 240 NONAME ; enum eap_status_e simple_config_record_c::completion_action_add(enum simple_config_completion_action_e)
	?get_network_index@simple_config_credential_c@@QBEEXZ @ 241 NONAME ; unsigned char simple_config_credential_c::get_network_index(void) const
	?set_is_valid@eap_type_simple_config_c@@UAEXXZ @ 242 NONAME ; void eap_type_simple_config_c::set_is_valid(void)
	?get_Authentication_Type@simple_config_credential_c@@QAE?AW4simple_config_Authentication_Type_e@@XZ @ 243 NONAME ; enum simple_config_Authentication_Type_e simple_config_credential_c::get_Authentication_Type(void)
	??1network_key_and_index_c@@UAE@XZ @ 244 NONAME ; network_key_and_index_c::~network_key_and_index_c(void)
	?get_data_length@eap_simple_config_header_c@@QBEGXZ @ 245 NONAME ; unsigned short eap_simple_config_header_c::get_data_length(void) const
	?process_M6@simple_config_record_c@@AAE?AW4eap_status_e@@PBVsimple_config_payloads_c@@@Z @ 246 NONAME ; enum eap_status_e simple_config_record_c::process_M6(class simple_config_payloads_c const *)
	?complete_eap_identity_query@eap_type_simple_config_c@@UAE?AW4eap_status_e@@PBVeap_am_network_id_c@@EW42@_NPBVeap_variable_data_c@@23@Z @ 247 NONAME ; enum eap_status_e eap_type_simple_config_c::complete_eap_identity_query(class eap_am_network_id_c const *, unsigned char, enum eap_status_e, bool, class eap_variable_data_c const *, bool, class eap_variable_data_c const *)
	?set_is_valid@CEapAmProtectedSetupSymbian@@QAEXXZ @ 248 NONAME ; void CEapAmProtectedSetupSymbian::set_is_valid(void)
	?send_simple_config_start_message@eap_type_simple_config_c@@AAE?AW4eap_status_e@@E@Z @ 249 NONAME ; enum eap_status_e eap_type_simple_config_c::send_simple_config_start_message(unsigned char)
	?get_is_valid@simple_config_credential_c@@QAE_NXZ @ 250 NONAME ; bool simple_config_credential_c::get_is_valid(void)
	?set_is_valid@simple_config_completion_c@@AAEXXZ @ 251 NONAME ; void simple_config_completion_c::set_is_valid(void)
	?get_network_keys_const@simple_config_credential_c@@QBEPBV?$eap_array_c@Vnetwork_key_and_index_c@@@@XZ @ 252 NONAME ; class eap_array_c<class network_key_and_index_c> const * simple_config_credential_c::get_network_keys_const(void) const
	?get_simple_config_max_header_length@eap_simple_config_header_c@@SAKXZ @ 253 NONAME ; unsigned long eap_simple_config_header_c::get_simple_config_max_header_length(void)
	?get_network_key@network_key_and_index_c@@QAEPAVeap_variable_data_c@@XZ @ 254 NONAME ; class eap_variable_data_c * network_key_and_index_c::get_network_key(void)
	??0eap_simple_config_header_c@@QAE@PAVabs_eap_am_tools_c@@PAEK@Z @ 255 NONAME ; eap_simple_config_header_c::eap_simple_config_header_c(class abs_eap_am_tools_c *, unsigned char *, unsigned long)
	?check_payloads_existense@simple_config_payloads_c@@QBE?AW4eap_status_e@@PBW4simple_config_Attribute_Type_e@@K@Z @ 256 NONAME ; enum eap_status_e simple_config_payloads_c::check_payloads_existense(enum simple_config_Attribute_Type_e const *, unsigned long) const
	?get_SSID_const@simple_config_credential_c@@QBEPBVeap_variable_data_c@@XZ @ 257 NONAME ; class eap_variable_data_c const * simple_config_credential_c::get_SSID_const(void) const
	?shutdown@eap_type_simple_config_c@@UAE?AW4eap_status_e@@XZ @ 258 NONAME ; enum eap_status_e eap_type_simple_config_c::shutdown(void)
	?check_is_valid_eap_type@eap_type_simple_config_c@@UAE?AW4eap_status_e@@Veap_expanded_type_c@@@Z @ 259 NONAME ; enum eap_status_e eap_type_simple_config_c::check_is_valid_eap_type(class eap_expanded_type_c)
	?set_simple_config_message_length@eap_simple_config_header_c@@QAEXK@Z @ 260 NONAME ; void eap_simple_config_header_c::set_simple_config_message_length(unsigned long)
	??1simple_config_payloads_c@@UAE@XZ @ 261 NONAME ; simple_config_payloads_c::~simple_config_payloads_c(void)
	?add_common_attributes@simple_config_record_c@@AAE?AW4eap_status_e@@PAVsimple_config_payloads_c@@W4simple_config_Message_Type_e@@_N2@Z @ 262 NONAME ; enum eap_status_e simple_config_record_c::add_common_attributes(class simple_config_payloads_c *, enum simple_config_Message_Type_e, bool, bool)
	?get_simple_config_min_header_length@eap_simple_config_header_c@@QBEKXZ @ 263 NONAME ; unsigned long eap_simple_config_header_c::get_simple_config_min_header_length(void) const
	?set_session_timeout@eap_type_simple_config_c@@UAE?AW4eap_status_e@@K@Z @ 264 NONAME ; enum eap_status_e eap_type_simple_config_c::set_session_timeout(unsigned long)
	?get_eap_type_list@eap_type_simple_config_c@@UAE?AW4eap_status_e@@PAV?$eap_array_c@Veap_expanded_type_c@@@@@Z @ 265 NONAME ; enum eap_status_e eap_type_simple_config_c::get_eap_type_list(class eap_array_c<class eap_expanded_type_c> *)
	??1simple_config_base_record_c@@UAE@XZ @ 266 NONAME ; simple_config_base_record_c::~simple_config_base_record_c(void)
	?cancel_query_network_and_device_parameters@CEapAmProtectedSetupSymbian@@UAE?AW4eap_status_e@@XZ @ 267 NONAME ; enum eap_status_e CEapAmProtectedSetupSymbian::cancel_query_network_and_device_parameters(void)
	?get_eap_type_list@CEapAmProtectedSetupSymbian@@UAE?AW4eap_status_e@@PAV?$eap_array_c@Veap_expanded_type_c@@@@@Z @ 268 NONAME ; enum eap_status_e CEapAmProtectedSetupSymbian::get_eap_type_list(class eap_array_c<class eap_expanded_type_c> *)
	?set_Encryption_Type@simple_config_credential_c@@QAEXW4simple_config_Encryption_Type_e@@@Z @ 269 NONAME ; void simple_config_credential_c::set_Encryption_Type(enum simple_config_Encryption_Type_e)
	?get_flag_more_fragments@eap_simple_config_header_c@@QBE_NXZ @ 270 NONAME ; bool eap_simple_config_header_c::get_flag_more_fragments(void) const
	?get_saved_previous_state_string@eap_type_simple_config_c@@ABEPBDXZ @ 271 NONAME ; char const * eap_type_simple_config_c::get_saved_previous_state_string(void) const
	?authentication_finished@CEapAmProtectedSetupSymbian@@UAE?AW4eap_status_e@@_N0@Z @ 272 NONAME ; enum eap_status_e CEapAmProtectedSetupSymbian::authentication_finished(bool, bool)
	?complete_query_network_and_device_parameters@simple_config_record_c@@UAE?AW4eap_status_e@@W4simple_config_state_e@@PAVsimple_config_payloads_c@@W42@@Z @ 273 NONAME ; enum eap_status_e simple_config_record_c::complete_query_network_and_device_parameters(enum simple_config_state_e, class simple_config_payloads_c *, enum eap_status_e)
	?get_eap_identifier@eap_simple_config_header_c@@QBEEXZ @ 274 NONAME ; unsigned char eap_simple_config_header_c::get_eap_identifier(void) const
	?set_completion_action@simple_config_completion_c@@QAEXW4simple_config_completion_action_e@@@Z @ 275 NONAME ; void simple_config_completion_c::set_completion_action(enum simple_config_completion_action_e)
	?get_data@eap_simple_config_header_c@@QBEPAEPAVabs_eap_am_tools_c@@K@Z @ 276 NONAME ; unsigned char * eap_simple_config_header_c::get_data(class abs_eap_am_tools_c *, unsigned long) const
	?get_is_valid@simple_config_completion_c@@QAE_NXZ @ 277 NONAME ; bool simple_config_completion_c::get_is_valid(void)
	?get_nai_realm@eap_type_simple_config_c@@AAEPAVeap_variable_data_c@@XZ @ 278 NONAME ; class eap_variable_data_c * eap_type_simple_config_c::get_nai_realm(void)
	?process_WSC_ACK@simple_config_record_c@@AAE?AW4eap_status_e@@PBVsimple_config_payloads_c@@@Z @ 279 NONAME ; enum eap_status_e simple_config_record_c::process_WSC_ACK(class simple_config_payloads_c const *)
	?get_header_offset@eap_type_simple_config_c@@UAEKPAK0@Z @ 280 NONAME ; unsigned long eap_type_simple_config_c::get_header_offset(unsigned long *, unsigned long *)
	?query_eap_identity@eap_type_simple_config_c@@UAE?AW4eap_status_e@@_NPAVeap_variable_data_c@@PBVeap_am_network_id_c@@E@Z @ 281 NONAME ; enum eap_status_e eap_type_simple_config_c::query_eap_identity(bool, class eap_variable_data_c *, class eap_am_network_id_c const *, unsigned char)
	??1simple_config_completion_c@@UAE@XZ @ 282 NONAME ; simple_config_completion_c::~simple_config_completion_c(void)
	?get_is_valid@network_key_and_index_c@@QAE_NXZ @ 283 NONAME ; bool network_key_and_index_c::get_is_valid(void)
	?set_flag_more_fragments@eap_simple_config_header_c@@QAEX_N@Z @ 284 NONAME ; void eap_simple_config_header_c::set_flag_more_fragments(bool)
	?timer_expired@simple_config_record_c@@EAE?AW4eap_status_e@@KPAX@Z @ 285 NONAME ; enum eap_status_e simple_config_record_c::timer_expired(unsigned long, void *)
	??1simple_config_record_c@@UAE@XZ @ 286 NONAME ; simple_config_record_c::~simple_config_record_c(void)
	??0eap_simple_config_trace_string_c@@QAE@XZ @ 287 NONAME ; eap_simple_config_trace_string_c::eap_simple_config_trace_string_c(void)
	?get_sc_op_code@eap_simple_config_header_c@@QBE?AW4op_code_e@1@XZ @ 288 NONAME ; enum eap_simple_config_header_c::op_code_e eap_simple_config_header_c::get_sc_op_code(void) const
	?get_sc_length_offset@eap_simple_config_header_c@@QBEKXZ @ 289 NONAME ; unsigned long eap_simple_config_header_c::get_sc_length_offset(void) const
	?get_header_length@simple_config_tlv_header_c@@SAKXZ @ 290 NONAME ; unsigned long simple_config_tlv_header_c::get_header_length(void)

