EXPORTS
	?ImplementationGroupProxy@@YAPBUTImplementationProxy@@AAH@Z @ 1 NONAME ; struct TImplementationProxy const * ImplementationGroupProxy(int &)
	?get_is_valid@eap_type_securid_c@@UAE_NXZ @ 2 NONAME ; bool eap_type_securid_c::get_is_valid(void)
	?configure@eap_type_securid_c@@UAE?AW4eap_status_e@@XZ @ 3 NONAME ; enum eap_status_e eap_type_securid_c::configure(void)
	?client_securid_complete_passcode_query@eap_type_securid_c@@EAE?AW4eap_status_e@@PBVeap_variable_data_c@@@Z @ 4 NONAME ; enum eap_status_e eap_type_securid_c::client_securid_complete_passcode_query(class eap_variable_data_c const *)
	?configure@eap_am_type_securid_symbian_c@@UAE?AW4eap_status_e@@XZ @ 5 NONAME ; enum eap_status_e eap_am_type_securid_symbian_c::configure(void)
	?DlgComplete@eap_am_type_securid_symbian_c@@UAEXH@Z @ 6 NONAME ; void eap_am_type_securid_symbian_c::DlgComplete(int)
	??1eap_am_type_securid_symbian_c@@UAE@XZ @ 7 NONAME ; eap_am_type_securid_symbian_c::~eap_am_type_securid_symbian_c(void)
	?read_auth_failure_string@eap_am_type_securid_symbian_c@@UAE?AW4eap_status_e@@PAVeap_variable_data_c@@@Z @ 8 NONAME ; enum eap_status_e eap_am_type_securid_symbian_c::read_auth_failure_string(class eap_variable_data_c *)
	??0eap_type_securid_c@@QAE@PAVabs_eap_am_tools_c@@PAVabs_eap_base_type_c@@PAVeap_am_type_securid_c@@_NVeap_expanded_type_c@@3PBVeap_am_network_id_c@@@Z @ 9 NONAME ; eap_type_securid_c::eap_type_securid_c(class abs_eap_am_tools_c *, class abs_eap_base_type_c *, class eap_am_type_securid_c *, bool, class eap_expanded_type_c, bool, class eap_am_network_id_c const *)
	?eap_acknowledge@eap_type_securid_c@@UAE?AW4eap_status_e@@PBVeap_am_network_id_c@@@Z @ 10 NONAME ; enum eap_status_e eap_type_securid_c::eap_acknowledge(class eap_am_network_id_c const *)
	?client_gtc_complete_user_input_query@eap_type_securid_c@@EAE?AW4eap_status_e@@PBVeap_variable_data_c@@@Z @ 11 NONAME ; enum eap_status_e eap_type_securid_c::client_gtc_complete_user_input_query(class eap_variable_data_c const *)
	?set_is_valid@eap_type_securid_c@@UAEXXZ @ 12 NONAME ; void eap_type_securid_c::set_is_valid(void)
	?reset@eap_am_type_securid_symbian_c@@UAE?AW4eap_status_e@@XZ @ 13 NONAME ; enum eap_status_e eap_am_type_securid_symbian_c::reset(void)
	?timer_expired@eap_am_type_securid_symbian_c@@UAE?AW4eap_status_e@@KPAX@Z @ 14 NONAME ; enum eap_status_e eap_am_type_securid_symbian_c::timer_expired(unsigned long, void *)
	?type_configure_write@eap_am_type_securid_symbian_c@@UAE?AW4eap_status_e@@PBVeap_configuration_field_c@@PAVeap_variable_data_c@@@Z @ 15 NONAME ; enum eap_status_e eap_am_type_securid_symbian_c::type_configure_write(class eap_configuration_field_c const *, class eap_variable_data_c *)
	?get_is_valid@eap_am_type_securid_symbian_c@@QAE_NXZ @ 16 NONAME ; bool eap_am_type_securid_symbian_c::get_is_valid(void)
	?set_initial_eap_identifier@eap_type_securid_c@@UAE?AW4eap_status_e@@PBVeap_am_network_id_c@@E@Z @ 17 NONAME ; enum eap_status_e eap_type_securid_c::set_initial_eap_identifier(class eap_am_network_id_c const *, unsigned char)
	?client_securid_complete_pincode_query@eap_type_securid_c@@EAE?AW4eap_status_e@@PBVeap_variable_data_c@@0@Z @ 18 NONAME ; enum eap_status_e eap_type_securid_c::client_securid_complete_pincode_query(class eap_variable_data_c const *, class eap_variable_data_c const *)
	?remove_username_store@eap_type_securid_c@@AAE?AW4eap_status_e@@XZ @ 19 NONAME ; enum eap_status_e eap_type_securid_c::remove_username_store(void)
	?timer_delete_data@eap_am_type_securid_symbian_c@@UAE?AW4eap_status_e@@KPAX@Z @ 20 NONAME ; enum eap_status_e eap_am_type_securid_symbian_c::timer_delete_data(unsigned long, void *)
	??1eap_type_securid_c@@UAE@XZ @ 21 NONAME ; eap_type_securid_c::~eap_type_securid_c(void)
	?finish_unsuccessful_authentication@eap_type_securid_c@@EAE?AW4eap_status_e@@_N@Z @ 22 NONAME ; enum eap_status_e eap_type_securid_c::finish_unsuccessful_authentication(bool)
	?get_is_client@eap_type_securid_c@@EAE_NXZ @ 23 NONAME ; bool eap_type_securid_c::get_is_client(void)
	?shutdown@eap_type_securid_c@@UAE?AW4eap_status_e@@XZ @ 24 NONAME ; enum eap_status_e eap_type_securid_c::shutdown(void)
	?shutdown@eap_am_type_securid_symbian_c@@UAE?AW4eap_status_e@@XZ @ 25 NONAME ; enum eap_status_e eap_am_type_securid_symbian_c::shutdown(void)
	?complete_eap_identity_query@eap_type_securid_c@@EAE?AW4eap_status_e@@PBVeap_variable_data_c@@@Z @ 26 NONAME ; enum eap_status_e eap_type_securid_c::complete_eap_identity_query(class eap_variable_data_c const *)
	?finish_successful_authentication@eap_type_securid_c@@AAE?AW4eap_status_e@@XZ @ 27 NONAME ; enum eap_status_e eap_type_securid_c::finish_successful_authentication(void)
	?get_memory_store_key@eap_am_type_securid_symbian_c@@UAE?AW4eap_status_e@@PAVeap_variable_data_c@@@Z @ 28 NONAME ; enum eap_status_e eap_am_type_securid_symbian_c::get_memory_store_key(class eap_variable_data_c *)
	?reset@eap_type_securid_c@@UAE?AW4eap_status_e@@XZ @ 29 NONAME ; enum eap_status_e eap_type_securid_c::reset(void)
	?query_eap_identity@eap_type_securid_c@@UAE?AW4eap_status_e@@_NPAVeap_variable_data_c@@PBVeap_am_network_id_c@@E@Z @ 30 NONAME ; enum eap_status_e eap_type_securid_c::query_eap_identity(bool, class eap_variable_data_c *, class eap_am_network_id_c const *, unsigned char)
	?type_configure_read@eap_am_type_securid_symbian_c@@UAE?AW4eap_status_e@@PBVeap_configuration_field_c@@PAVeap_variable_data_c@@@Z @ 31 NONAME ; enum eap_status_e eap_am_type_securid_symbian_c::type_configure_read(class eap_configuration_field_c const *, class eap_variable_data_c *)
	?set_is_valid@eap_am_type_securid_symbian_c@@QAEXXZ @ 32 NONAME ; void eap_am_type_securid_symbian_c::set_is_valid(void)
	?packet_process@eap_type_securid_c@@UAE?AW4eap_status_e@@PBVeap_am_network_id_c@@PAVeap_header_wr_c@@K@Z @ 33 NONAME ; enum eap_status_e eap_type_securid_c::packet_process(class eap_am_network_id_c const *, class eap_header_wr_c *, unsigned long)

