EXPORTS
	?ImplementationGroupProxy@@YAPBUTImplementationProxy@@AAH@Z @ 1 NONAME ; struct TImplementationProxy const * ImplementationGroupProxy(int &)
	?get_payload_AT_string@gsmsim_payload_AT_header_c@@SAPBDW4gsmsim_payload_AT_type_e@@@Z @ 2 NONAME ; char const * gsmsim_payload_AT_header_c::get_payload_AT_string(enum gsmsim_payload_AT_type_e)
	?get_data_offset@gsmsim_payload_AT_header_c@@QBEPAEKK@Z @ 3 NONAME ; unsigned char * gsmsim_payload_AT_header_c::get_data_offset(unsigned long, unsigned long) const
	?restore_saved_previous_state@eap_type_gsmsim_c@@AAEXXZ @ 4 NONAME ; void eap_type_gsmsim_c::restore_saved_previous_state(void)
	?get_is_client@eap_type_gsmsim_c@@UAE_NXZ @ 5 NONAME ; bool eap_type_gsmsim_c::get_is_client(void)
	?set_data@gsmsim_fixed_data_c@@QAEXPBVgsmsim_payload_AT_header_c@@GG@Z @ 6 NONAME ; void gsmsim_fixed_data_c::set_data(class gsmsim_payload_AT_header_c const *, unsigned short, unsigned short)
	?query_SIM_IMSI_or_pseudonym_or_reauthentication_id@eap_type_gsmsim_c@@AAE?AW4eap_status_e@@PAVeap_variable_data_c@@000PAK_NW4gsmsim_payload_AT_type_e@@W4eap_type_gsmsim_complete_e@@E@Z @ 7 NONAME ; enum eap_status_e eap_type_gsmsim_c::query_SIM_IMSI_or_pseudonym_or_reauthentication_id(class eap_variable_data_c *, class eap_variable_data_c *, class eap_variable_data_c *, class eap_variable_data_c *, unsigned long *, bool, enum gsmsim_payload_AT_type_e, enum eap_type_gsmsim_complete_e, unsigned char)
	?handle_gsmsim_notification_request_message_reauthentication@eap_type_gsmsim_c@@AAE?AW4eap_status_e@@PBVeap_am_network_id_c@@PAVgsmsim_header_c@@KPAVgsmsim_payloads_c@@@Z @ 8 NONAME ; enum eap_status_e eap_type_gsmsim_c::handle_gsmsim_notification_request_message_reauthentication(class eap_am_network_id_c const *, class gsmsim_header_c *, unsigned long, class gsmsim_payloads_c *)
	?state_notification@eap_type_gsmsim_c@@UAEXPBVabs_eap_state_notification_c@@@Z @ 9 NONAME ; void eap_type_gsmsim_c::state_notification(class abs_eap_state_notification_c const *)
	?set_initial_eap_identifier@eap_type_gsmsim_c@@UAE?AW4eap_status_e@@PBVeap_am_network_id_c@@E@Z @ 10 NONAME ; enum eap_status_e eap_type_gsmsim_c::set_initial_eap_identifier(class eap_am_network_id_c const *, unsigned char)
	?query_reauth_parameters@eap_am_type_gsmsim_symbian_c@@UAE?AW4eap_status_e@@PAVeap_variable_data_c@@00PAK@Z @ 11 NONAME ; enum eap_status_e eap_am_type_gsmsim_symbian_c::query_reauth_parameters(class eap_variable_data_c *, class eap_variable_data_c *, class eap_variable_data_c *, unsigned long *)
	?get_data_length@gsmsim_header_c@@QBEGXZ @ 12 NONAME ; unsigned short gsmsim_header_c::get_data_length(void) const
	?handle_gsmsim_packet@eap_type_gsmsim_c@@AAE?AW4eap_status_e@@PBVeap_am_network_id_c@@PAVgsmsim_header_c@@KPAVgsmsim_payloads_c@@@Z @ 13 NONAME ; enum eap_status_e eap_type_gsmsim_c::handle_gsmsim_packet(class eap_am_network_id_c const *, class gsmsim_header_c *, unsigned long, class gsmsim_payloads_c *)
	?get_payload_included@gsmsim_variable_data_c@@QBE_NXZ @ 14 NONAME ; bool gsmsim_variable_data_c::get_payload_included(void) const
	?get_reserved@gsmsim_header_c@@QBEGXZ @ 15 NONAME ; unsigned short gsmsim_header_c::get_reserved(void) const
	?get_payload_buffer@gsmsim_variable_data_c@@QAEPAVeap_variable_data_c@@XZ @ 16 NONAME ; class eap_variable_data_c * gsmsim_variable_data_c::get_payload_buffer(void)
	?get_header_offset@eap_type_gsmsim_c@@UAEKPAK0@Z @ 17 NONAME ; unsigned long eap_type_gsmsim_c::get_header_offset(unsigned long *, unsigned long *)
	??1gsmsim_payloads_c@@UAE@XZ @ 18 NONAME ; gsmsim_payloads_c::~gsmsim_payloads_c(void)
	?query_SIM_IMSI_or_pseudonym_or_reauthentication_id@eap_am_type_gsmsim_symbian_c@@UAE?AW4eap_status_e@@_NPAVeap_variable_data_c@@111PAKW4gsmsim_payload_AT_type_e@@W4eap_type_gsmsim_complete_e@@E@Z @ 19 NONAME ; enum eap_status_e eap_am_type_gsmsim_symbian_c::query_SIM_IMSI_or_pseudonym_or_reauthentication_id(bool, class eap_variable_data_c *, class eap_variable_data_c *, class eap_variable_data_c *, class eap_variable_data_c *, unsigned long *, enum gsmsim_payload_AT_type_e, enum eap_type_gsmsim_complete_e, unsigned char)
	?store_pseudonym_id@eap_am_type_gsmsim_symbian_c@@UAE?AW4eap_status_e@@PBVeap_am_network_id_c@@PBVeap_variable_data_c@@@Z @ 20 NONAME ; enum eap_status_e eap_am_type_gsmsim_symbian_c::store_pseudonym_id(class eap_am_network_id_c const *, class eap_variable_data_c const *)
	?get_state_string@eap_type_gsmsim_c@@SAPBDW4eap_type_gsmsim_state_variable_e@@@Z @ 21 NONAME ; char const * eap_type_gsmsim_c::get_state_string(enum eap_type_gsmsim_state_variable_e)
	?get_ENCR_DATA@gsmsim_payloads_c@@QAEPAVgsmsim_variable_data_c@@XZ @ 22 NONAME ; class gsmsim_variable_data_c * gsmsim_payloads_c::get_ENCR_DATA(void)
	?set_triplet@eap_type_sim_triplet_array_c@@QAE?AW4eap_status_e@@KPAVeap_type_saesim_triplet_c@@@Z @ 23 NONAME ; enum eap_status_e eap_type_sim_triplet_array_c::set_triplet(unsigned long, class eap_type_saesim_triplet_c *)
	?get_original_header@gsmsim_fixed_data_c@@QAEPBVgsmsim_payload_AT_header_c@@XZ @ 24 NONAME ; class gsmsim_payload_AT_header_c const * gsmsim_fixed_data_c::get_original_header(void)
	?check_message_authentication_code@eap_type_gsmsim_c@@AAE?AW4eap_status_e@@PBVeap_variable_data_c@@PAVgsmsim_payloads_c@@PBVgsmsim_header_c@@K@Z @ 25 NONAME ; enum eap_status_e eap_type_gsmsim_c::check_message_authentication_code(class eap_variable_data_c const *, class gsmsim_payloads_c *, class gsmsim_header_c const *, unsigned long)
	?get_identity_string@eap_type_gsmsim_c@@SAPBDW4eap_type_gsmsim_identity_type@@@Z @ 26 NONAME ; char const * eap_type_gsmsim_c::get_identity_string(enum eap_type_gsmsim_identity_type)
	??0eap_type_gsmsim_c@@QAE@PAVabs_eap_am_tools_c@@PAVabs_eap_base_type_c@@PAVeap_am_type_gsmsim_c@@_N3PBVeap_am_network_id_c@@@Z @ 27 NONAME ; eap_type_gsmsim_c::eap_type_gsmsim_c(class abs_eap_am_tools_c *, class abs_eap_base_type_c *, class eap_am_type_gsmsim_c *, bool, bool, class eap_am_network_id_c const *)
	?generate_reauthentication_id@eap_am_type_gsmsim_symbian_c@@UAE?AW4eap_status_e@@PBVeap_am_network_id_c@@PBVeap_variable_data_c@@PAV4@K@Z @ 28 NONAME ; enum eap_status_e eap_am_type_gsmsim_symbian_c::generate_reauthentication_id(class eap_am_network_id_c const *, class eap_variable_data_c const *, class eap_variable_data_c *, unsigned long)
	??0gsmsim_variable_data_c@@QAE@PAVabs_eap_am_tools_c@@@Z @ 29 NONAME ; gsmsim_variable_data_c::gsmsim_variable_data_c(class abs_eap_am_tools_c *)
	?generate_pseudonym_id@eap_am_type_gsmsim_symbian_c@@UAE?AW4eap_status_e@@PBVeap_am_network_id_c@@PBVeap_variable_data_c@@PAV4@K@Z @ 30 NONAME ; enum eap_status_e eap_am_type_gsmsim_symbian_c::generate_pseudonym_id(class eap_am_network_id_c const *, class eap_variable_data_c const *, class eap_variable_data_c *, unsigned long)
	?initialize_notification_message@eap_type_gsmsim_c@@AAE?AW4eap_status_e@@XZ @ 31 NONAME ; enum eap_status_e eap_type_gsmsim_c::initialize_notification_message(void)
	?get_VERSION_LIST@gsmsim_payloads_c@@QAEPAVgsmsim_variable_data_c@@XZ @ 32 NONAME ; class gsmsim_variable_data_c * gsmsim_payloads_c::get_VERSION_LIST(void)
	?finish_successful_authentication@eap_type_gsmsim_c@@AAE?AW4eap_status_e@@PBVeap_am_network_id_c@@@Z @ 33 NONAME ; enum eap_status_e eap_type_gsmsim_c::finish_successful_authentication(class eap_am_network_id_c const *)
	?get_data_length@gsmsim_payload_AT_header_c@@QBEKXZ @ 34 NONAME ; unsigned long gsmsim_payload_AT_header_c::get_data_length(void) const
	?add_mac_payload@eap_type_gsmsim_c@@AAE?AW4eap_status_e@@PAVgsmsim_header_c@@KKPAK111PAPAE1@Z @ 35 NONAME ; enum eap_status_e eap_type_gsmsim_c::add_mac_payload(class gsmsim_header_c *, unsigned long, unsigned long, unsigned long *, unsigned long *, unsigned long *, unsigned long *, unsigned char * *, unsigned long *)
	?set_includes_unknown_attribute@gsmsim_payloads_c@@QAEXW4gsmsim_payload_AT_type_e@@@Z @ 36 NONAME ; void gsmsim_payloads_c::set_includes_unknown_attribute(enum gsmsim_payload_AT_type_e)
	?get_ANY_ID_REQ@gsmsim_payloads_c@@QAEPAVgsmsim_variable_data_c@@XZ @ 37 NONAME ; class gsmsim_variable_data_c * gsmsim_payloads_c::get_ANY_ID_REQ(void)
	?configure@eap_type_gsmsim_c@@UAE?AW4eap_status_e@@XZ @ 38 NONAME ; enum eap_status_e eap_type_gsmsim_c::configure(void)
	?add_padding_payload@eap_type_gsmsim_c@@AAE?AW4eap_status_e@@PAVgsmsim_header_c@@KKPAK111K@Z @ 39 NONAME ; enum eap_status_e eap_type_gsmsim_c::add_padding_payload(class gsmsim_header_c *, unsigned long, unsigned long, unsigned long *, unsigned long *, unsigned long *, unsigned long *, unsigned long)
	?get_CLIENT_ERROR_CODE@gsmsim_payloads_c@@QAEPAVgsmsim_variable_data_c@@XZ @ 40 NONAME ; class gsmsim_variable_data_c * gsmsim_payloads_c::get_CLIENT_ERROR_CODE(void)
	?extra_message_authentication_code_bytes@eap_type_gsmsim_c@@QAE?AW4eap_status_e@@W4gsmsim_subtype_e@@W4eap_code_value_e@@PAVcrypto_hmac_c@@@Z @ 41 NONAME ; enum eap_status_e eap_type_gsmsim_c::extra_message_authentication_code_bytes(enum gsmsim_subtype_e, enum eap_code_value_e, class crypto_hmac_c *)
	?get_RESULT_IND@gsmsim_payloads_c@@QAEPAVgsmsim_variable_data_c@@XZ @ 42 NONAME ; class gsmsim_variable_data_c * gsmsim_payloads_c::get_RESULT_IND(void)
	?check_payloads@gsmsim_payloads_c@@QAE_NW4eap_gsmsim_payload_status_e@1@0000000000000000000@Z @ 43 NONAME ; bool gsmsim_payloads_c::check_payloads(enum gsmsim_payloads_c::eap_gsmsim_payload_status_e, enum gsmsim_payloads_c::eap_gsmsim_payload_status_e, enum gsmsim_payloads_c::eap_gsmsim_payload_status_e, enum gsmsim_payloads_c::eap_gsmsim_payload_status_e, enum gsmsim_payloads_c::eap_gsmsim_payload_status_e, enum gsmsim_payloads_c::eap_gsmsim_payload_status_e, enum gsmsim_payloads_c::eap_gsmsim_payload_status_e, enum gsmsim_payloads_c::eap_gsmsim_payload_status_e, enum gsmsim_payloads_c::eap_gsmsim_payload_status_e, enum gsmsim_payloads_c::eap_gsmsim_payload_status_e, enum gsmsim_payloads_c::eap_gsmsim_payload_status_e, enum gsmsim_payloads_c::eap_gsmsim_payload_status_e, enum gsmsim_payloads_c::eap_gsmsim_payload_status_e, enum gsmsim_payloads_c::eap_gsmsim_payload_status_e, enum gsmsim_payloads_c::eap_gsmsim_payload_status_e, enum gsmsim_payloads_c::eap_gsmsim_payload_status_e, enum gsmsim_payloads_c::eap_gsmsim_payload_status_e, enum gsmsim_payloads_c::eap_gsmsim_payload_status_e, enum gsmsim_payloads_c::eap_gsmsim_payload_status_e, enum gsmsim_payloads_c::eap_gsmsim_payload_status_e)
	?query_SIM_imsi@eap_am_type_gsmsim_symbian_c@@QAE?AW4eap_status_e@@PAEKPAK@Z @ 44 NONAME ; enum eap_status_e eap_am_type_gsmsim_symbian_c::query_SIM_imsi(unsigned char *, unsigned long, unsigned long *)
	?create_message_authentication_code@eap_type_gsmsim_c@@QAE?AW4eap_status_e@@PAVeap_type_gsmsim_MAC_attributes_c@@W4gsmsim_subtype_e@@W4eap_code_value_e@@PBVeap_variable_data_c@@@Z @ 45 NONAME ; enum eap_status_e eap_type_gsmsim_c::create_message_authentication_code(class eap_type_gsmsim_MAC_attributes_c *, enum gsmsim_subtype_e, enum eap_code_value_e, class eap_variable_data_c const *)
	?cancel_imsi_from_username_query@eap_am_type_gsmsim_symbian_c@@UAE?AW4eap_status_e@@XZ @ 46 NONAME ; enum eap_status_e eap_am_type_gsmsim_symbian_c::cancel_imsi_from_username_query(void)
	?reset@gsmsim_variable_data_c@@QAE?AW4eap_status_e@@XZ @ 47 NONAME ; enum eap_status_e gsmsim_variable_data_c::reset(void)
	?set_rand_is_used@eap_am_type_gsmsim_symbian_c@@UAE?AW4eap_status_e@@PBVeap_variable_data_c@@@Z @ 48 NONAME ; enum eap_status_e eap_am_type_gsmsim_symbian_c::set_rand_is_used(class eap_variable_data_c const *)
	?get_padding_payload@gsmsim_payloads_c@@QAEPAVgsmsim_variable_data_c@@XZ @ 49 NONAME ; class gsmsim_variable_data_c * gsmsim_payloads_c::get_padding_payload(void)
	?get_counter_too_small@gsmsim_payloads_c@@QAEPAVgsmsim_variable_data_c@@XZ @ 50 NONAME ; class gsmsim_variable_data_c * gsmsim_payloads_c::get_counter_too_small(void)
	?get_is_valid@eap_am_type_gsmsim_symbian_c@@QAE_NXZ @ 51 NONAME ; bool eap_am_type_gsmsim_symbian_c::get_is_valid(void)
	?get_FULLAUTH_ID_REQ@gsmsim_payloads_c@@QAEPAVgsmsim_variable_data_c@@XZ @ 52 NONAME ; class gsmsim_variable_data_c * gsmsim_payloads_c::get_FULLAUTH_ID_REQ(void)
	?set_is_valid@eap_am_type_gsmsim_symbian_c@@QAEXXZ @ 53 NONAME ; void eap_am_type_gsmsim_symbian_c::set_is_valid(void)
	??0gsmsim_payloads_c@@QAE@PAVabs_eap_am_tools_c@@@Z @ 54 NONAME ; gsmsim_payloads_c::gsmsim_payloads_c(class abs_eap_am_tools_c *)
	?add_version_payload@eap_type_gsmsim_c@@AAE?AW4eap_status_e@@PAVgsmsim_header_c@@KKPAK111W4eap_gsmsim_version@@@Z @ 55 NONAME ; enum eap_status_e eap_type_gsmsim_c::add_version_payload(class gsmsim_header_c *, unsigned long, unsigned long, unsigned long *, unsigned long *, unsigned long *, unsigned long *, enum eap_gsmsim_version)
	?get_header_length@gsmsim_header_c@@QBEKXZ @ 56 NONAME ; unsigned long gsmsim_header_c::get_header_length(void) const
	?check_header@gsmsim_header_c@@UBE?AW4eap_status_e@@XZ @ 57 NONAME ; enum eap_status_e gsmsim_header_c::check_header(void) const
	?check_valid_types@eap_type_gsmsim_state_variable_parameters_c@@QBE_NW4gsmsim_subtype_e@@@Z @ 58 NONAME ; bool eap_type_gsmsim_state_variable_parameters_c::check_valid_types(enum gsmsim_subtype_e) const
	?get_payload_AT_string@gsmsim_payload_AT_header_c@@QBEPBDXZ @ 59 NONAME ; char const * gsmsim_payload_AT_header_c::get_payload_AT_string(void) const
	?configure@eap_am_type_gsmsim_symbian_c@@UAE?AW4eap_status_e@@XZ @ 60 NONAME ; enum eap_status_e eap_am_type_gsmsim_symbian_c::configure(void)
	?timer_expired@eap_type_gsmsim_c@@UAE?AW4eap_status_e@@KPAX@Z @ 61 NONAME ; enum eap_status_e eap_type_gsmsim_c::timer_expired(unsigned long, void *)
	?get_MAC@gsmsim_payloads_c@@QAEPAVgsmsim_variable_data_c@@XZ @ 62 NONAME ; class gsmsim_variable_data_c * gsmsim_payloads_c::get_MAC(void)
	?query_eap_identity@eap_type_gsmsim_c@@UAE?AW4eap_status_e@@_NPAVeap_variable_data_c@@PBVeap_am_network_id_c@@E@Z @ 63 NONAME ; enum eap_status_e eap_type_gsmsim_c::query_eap_identity(bool, class eap_variable_data_c *, class eap_am_network_id_c const *, unsigned char)
	?handle_gsmsim_notification_request_message_full_authentication@eap_type_gsmsim_c@@AAE?AW4eap_status_e@@PBVeap_am_network_id_c@@PAVgsmsim_header_c@@KPAVgsmsim_payloads_c@@@Z @ 64 NONAME ; enum eap_status_e eap_type_gsmsim_c::handle_gsmsim_notification_request_message_full_authentication(class eap_am_network_id_c const *, class gsmsim_header_c *, unsigned long, class gsmsim_payloads_c *)
	?get_kc@eap_type_saesim_triplet_c@@QAEPAVeap_variable_data_c@@XZ @ 65 NONAME ; class eap_variable_data_c * eap_type_saesim_triplet_c::get_kc(void)
	?get_data_offset@gsmsim_header_c@@QBEPAEKK@Z @ 66 NONAME ; unsigned char * gsmsim_header_c::get_data_offset(unsigned long, unsigned long) const
	?query_SIM_kc_sres@eap_type_gsmsim_c@@AAE?AW4eap_status_e@@PBVeap_variable_data_c@@PAV3@1@Z @ 67 NONAME ; enum eap_status_e eap_type_gsmsim_c::query_SIM_kc_sres(class eap_variable_data_c const *, class eap_variable_data_c *, class eap_variable_data_c *)
	?gsmsim_packet_process@eap_type_gsmsim_c@@AAE?AW4eap_status_e@@PBVeap_am_network_id_c@@PAVgsmsim_header_c@@K_N@Z @ 68 NONAME ; enum eap_status_e eap_type_gsmsim_c::gsmsim_packet_process(class eap_am_network_id_c const *, class gsmsim_header_c *, unsigned long, bool)
	?get_n_RANDs@gsmsim_payloads_c@@QAEPAVgsmsim_variable_data_c@@XZ @ 69 NONAME ; class gsmsim_variable_data_c * gsmsim_payloads_c::get_n_RANDs(void)
	?get_NEXT_PSEUDONYM@gsmsim_payloads_c@@QAEPAVgsmsim_variable_data_c@@XZ @ 70 NONAME ; class gsmsim_variable_data_c * gsmsim_payloads_c::get_NEXT_PSEUDONYM(void)
	?random_selection@eap_type_gsmsim_c@@AAE_NXZ @ 71 NONAME ; bool eap_type_gsmsim_c::random_selection(void)
	??1eap_type_saesim_triplet_c@@UAE@XZ @ 72 NONAME ; eap_type_saesim_triplet_c::~eap_type_saesim_triplet_c(void)
	??0gsmsim_header_c@@QAE@PAVabs_eap_am_tools_c@@PAEK@Z @ 73 NONAME ; gsmsim_header_c::gsmsim_header_c(class abs_eap_am_tools_c *, unsigned char *, unsigned long)
	?add_notification_payload@eap_type_gsmsim_c@@AAE?AW4eap_status_e@@PAVgsmsim_header_c@@KKPAK111W4eap_gsmsim_notification_codes_e@@@Z @ 74 NONAME ; enum eap_status_e eap_type_gsmsim_c::add_notification_payload(class gsmsim_header_c *, unsigned long, unsigned long, unsigned long *, unsigned long *, unsigned long *, unsigned long *, enum eap_gsmsim_notification_codes_e)
	?add_version_list@eap_type_gsmsim_c@@AAE?AW4eap_status_e@@PAVgsmsim_header_c@@KKPAK111PBW4eap_gsmsim_version@@KW4gsmsim_payload_AT_type_e@@@Z @ 75 NONAME ; enum eap_status_e eap_type_gsmsim_c::add_version_list(class gsmsim_header_c *, unsigned long, unsigned long, unsigned long *, unsigned long *, unsigned long *, unsigned long *, enum eap_gsmsim_version const *, unsigned long, enum gsmsim_payload_AT_type_e)
	??0eap_type_gsmsim_state_notification_c@@QAE@PAVabs_eap_am_tools_c@@PBVeap_am_network_id_c@@_NW4eap_state_notification_eap_e@@W4eap_protocol_layer_e@@W4eap_type_ietf_values_e@@KKE2@Z @ 76 NONAME ; eap_type_gsmsim_state_notification_c::eap_type_gsmsim_state_notification_c(class abs_eap_am_tools_c *, class eap_am_network_id_c const *, bool, enum eap_state_notification_eap_e, enum eap_protocol_layer_e, enum eap_type_ietf_values_e, unsigned long, unsigned long, unsigned char, bool)
	?init_state@eap_type_gsmsim_state_variable_parameters_c@@QAEX_N0W4gsmsim_subtype_e@@111@Z @ 77 NONAME ; void eap_type_gsmsim_state_variable_parameters_c::init_state(bool, bool, enum gsmsim_subtype_e, enum gsmsim_subtype_e, enum gsmsim_subtype_e, enum gsmsim_subtype_e)
	??1eap_type_gsmsim_state_variable_parameters_c@@UAE@XZ @ 78 NONAME ; eap_type_gsmsim_state_variable_parameters_c::~eap_type_gsmsim_state_variable_parameters_c(void)
	?get_data@gsmsim_header_c@@QBEPAEK@Z @ 79 NONAME ; unsigned char * gsmsim_header_c::get_data(unsigned long) const
	?send_start_response_message@eap_type_gsmsim_c@@AAE?AW4eap_status_e@@PBVeap_am_network_id_c@@EW4eap_gsmsim_version@@W4gsmsim_payload_AT_type_e@@PBVeap_variable_data_c@@K@Z @ 80 NONAME ; enum eap_status_e eap_type_gsmsim_c::send_start_response_message(class eap_am_network_id_c const *, unsigned char, enum eap_gsmsim_version, enum gsmsim_payload_AT_type_e, class eap_variable_data_c const *, unsigned long)
	?get_payload_length@gsmsim_payload_AT_header_c@@QBEGXZ @ 81 NONAME ; unsigned short gsmsim_payload_AT_header_c::get_payload_length(void) const
	??1eap_type_gsmsim_state_notification_c@@UAE@XZ @ 82 NONAME ; eap_type_gsmsim_state_notification_c::~eap_type_gsmsim_state_notification_c(void)
	??0gsmsim_fixed_data_c@@QAE@PAVabs_eap_am_tools_c@@@Z @ 83 NONAME ; gsmsim_fixed_data_c::gsmsim_fixed_data_c(class abs_eap_am_tools_c *)
	?query_SIM_kc_sres@eap_am_type_gsmsim_symbian_c@@UAE?AW4eap_status_e@@_NPBVeap_variable_data_c@@PAV3@2@Z @ 84 NONAME ; enum eap_status_e eap_am_type_gsmsim_symbian_c::query_SIM_kc_sres(bool, class eap_variable_data_c const *, class eap_variable_data_c *, class eap_variable_data_c *)
	?send_gsmsim_client_error_response@eap_type_gsmsim_c@@AAE?AW4eap_status_e@@XZ @ 85 NONAME ; enum eap_status_e eap_type_gsmsim_c::send_gsmsim_client_error_response(void)
	?check_is_rand_unused@eap_am_type_gsmsim_symbian_c@@UAE?AW4eap_status_e@@PBVeap_variable_data_c@@@Z @ 86 NONAME ; enum eap_status_e eap_am_type_gsmsim_symbian_c::check_is_rand_unused(class eap_variable_data_c const *)
	?get_rand@eap_type_saesim_triplet_c@@QAEPAVeap_variable_data_c@@XZ @ 87 NONAME ; class eap_variable_data_c * eap_type_saesim_triplet_c::get_rand(void)
	?get_state_string@eap_type_gsmsim_c@@ABEPBDXZ @ 88 NONAME ; char const * eap_type_gsmsim_c::get_state_string(void) const
	?shutdown@eap_am_type_gsmsim_symbian_c@@UAE?AW4eap_status_e@@XZ @ 89 NONAME ; enum eap_status_e eap_am_type_gsmsim_symbian_c::shutdown(void)
	?get_sub_type_offset@gsmsim_header_c@@QBEKXZ @ 90 NONAME ; unsigned long gsmsim_header_c::get_sub_type_offset(void) const
	?set_reserved@gsmsim_header_c@@QAEXG@Z @ 91 NONAME ; void gsmsim_header_c::set_reserved(unsigned short)
	?get_NEXT_REAUTH_ID@gsmsim_payloads_c@@QAEPAVgsmsim_variable_data_c@@XZ @ 92 NONAME ; class gsmsim_variable_data_c * gsmsim_payloads_c::get_NEXT_REAUTH_ID(void)
	?get_eap_type_string@gsmsim_header_c@@QBEPBDXZ @ 93 NONAME ; char const * gsmsim_header_c::get_eap_type_string(void) const
	?set_reserved@gsmsim_payload_AT_header_c@@QAEXG@Z @ 94 NONAME ; void gsmsim_payload_AT_header_c::set_reserved(unsigned short)
	?get_sres@eap_type_saesim_triplet_c@@QAEPAVeap_variable_data_c@@XZ @ 95 NONAME ; class eap_variable_data_c * eap_type_saesim_triplet_c::get_sres(void)
	?cancel_SIM_kc_sres_query@eap_am_type_gsmsim_symbian_c@@UAE?AW4eap_status_e@@XZ @ 96 NONAME ; enum eap_status_e eap_am_type_gsmsim_symbian_c::cancel_SIM_kc_sres_query(void)
	?initialize_state@eap_type_gsmsim_c@@AAEXW4eap_type_gsmsim_state_variable_e@@_N1W4gsmsim_subtype_e@@222@Z @ 97 NONAME ; void eap_type_gsmsim_c::initialize_state(enum eap_type_gsmsim_state_variable_e, bool, bool, enum gsmsim_subtype_e, enum gsmsim_subtype_e, enum gsmsim_subtype_e, enum gsmsim_subtype_e)
	?add_client_error_payload@eap_type_gsmsim_c@@AAE?AW4eap_status_e@@PAVgsmsim_header_c@@KKPAK111W4eap_gsmsim_client_error_code_e@@@Z @ 98 NONAME ; enum eap_status_e eap_type_gsmsim_c::add_client_error_payload(class gsmsim_header_c *, unsigned long, unsigned long, unsigned long *, unsigned long *, unsigned long *, unsigned long *, enum eap_gsmsim_client_error_code_e)
	?set_buffer@gsmsim_variable_data_c@@QAE?AW4eap_status_e@@PBVgsmsim_payload_AT_header_c@@PAEK_N2@Z @ 99 NONAME ; enum eap_status_e gsmsim_variable_data_c::set_buffer(class gsmsim_payload_AT_header_c const *, unsigned char *, unsigned long, bool, bool)
	?handle_start_request_message@eap_type_gsmsim_c@@AAE?AW4eap_status_e@@PBVeap_am_network_id_c@@PAVgsmsim_header_c@@KPAVgsmsim_payloads_c@@@Z @ 100 NONAME ; enum eap_status_e eap_type_gsmsim_c::handle_start_request_message(class eap_am_network_id_c const *, class gsmsim_header_c *, unsigned long, class gsmsim_payloads_c *)
	?type_configure_write@eap_am_type_gsmsim_symbian_c@@UAE?AW4eap_status_e@@PBVeap_configuration_field_c@@PAVeap_variable_data_c@@@Z @ 101 NONAME ; enum eap_status_e eap_am_type_gsmsim_symbian_c::type_configure_write(class eap_configuration_field_c const *, class eap_variable_data_c *)
	?write_configure@eap_type_gsmsim_c@@UAE?AW4eap_status_e@@PBVeap_configuration_field_c@@PAVeap_variable_data_c@@@Z @ 102 NONAME ; enum eap_status_e eap_type_gsmsim_c::write_configure(class eap_configuration_field_c const *, class eap_variable_data_c *)
	?send_reauthentication_response_message@eap_type_gsmsim_c@@AAE?AW4eap_status_e@@PBVeap_variable_data_c@@0000GE_N@Z @ 103 NONAME ; enum eap_status_e eap_type_gsmsim_c::send_reauthentication_response_message(class eap_variable_data_c const *, class eap_variable_data_c const *, class eap_variable_data_c const *, class eap_variable_data_c const *, class eap_variable_data_c const *, unsigned short, unsigned char, bool)
	?send_gsmsim_notification_response@eap_type_gsmsim_c@@AAE?AW4eap_status_e@@W4eap_gsmsim_notification_codes_e@@_N@Z @ 104 NONAME ; enum eap_status_e eap_type_gsmsim_c::send_gsmsim_notification_response(enum eap_gsmsim_notification_codes_e, bool)
	?save_version@eap_type_gsmsim_c@@AAE?AW4eap_status_e@@PBGKW4eap_gsmsim_version@@@Z @ 105 NONAME ; enum eap_status_e eap_type_gsmsim_c::save_version(unsigned short const *, unsigned long, enum eap_gsmsim_version)
	?get_next_header@gsmsim_payload_AT_header_c@@QBEPAEXZ @ 106 NONAME ; unsigned char * gsmsim_payload_AT_header_c::get_next_header(void) const
	?get_code_string@gsmsim_header_c@@QBEPBDXZ @ 107 NONAME ; char const * gsmsim_header_c::get_code_string(void) const
	??0gsmsim_payload_AT_header_c@@QAE@PAVabs_eap_am_tools_c@@PAXK@Z @ 108 NONAME ; gsmsim_payload_AT_header_c::gsmsim_payload_AT_header_c(class abs_eap_am_tools_c *, void *, unsigned long)
	?cancel_SIM_IMSI_or_pseudonym_or_reauthentication_id_query@eap_am_type_gsmsim_symbian_c@@UAE?AW4eap_status_e@@XZ @ 109 NONAME ; enum eap_status_e eap_am_type_gsmsim_symbian_c::cancel_SIM_IMSI_or_pseudonym_or_reauthentication_id_query(void)
	?authentication_finished@eap_am_type_gsmsim_symbian_c@@UAE?AW4eap_status_e@@_NW4eap_gsmsim_authentication_type_e@@W4eap_type_gsmsim_identity_type@@@Z @ 110 NONAME ; enum eap_status_e eap_am_type_gsmsim_symbian_c::authentication_finished(bool, enum eap_gsmsim_authentication_type_e, enum eap_type_gsmsim_identity_type)
	?reset_header@gsmsim_payload_AT_header_c@@QAEXG@Z @ 111 NONAME ; void gsmsim_payload_AT_header_c::reset_header(unsigned short)
	??0eap_type_gsmsim_state_notification_c@@QAE@PAVabs_eap_am_tools_c@@PBVeap_am_network_id_c@@_NW4eap_state_notification_generic_e@@W4eap_protocol_layer_e@@KKKE2@Z @ 112 NONAME ; eap_type_gsmsim_state_notification_c::eap_type_gsmsim_state_notification_c(class abs_eap_am_tools_c *, class eap_am_network_id_c const *, bool, enum eap_state_notification_generic_e, enum eap_protocol_layer_e, unsigned long, unsigned long, unsigned long, unsigned char, bool)
	?check_header@gsmsim_payload_AT_header_c@@UBE?AW4eap_status_e@@XZ @ 113 NONAME ; enum eap_status_e gsmsim_payload_AT_header_c::check_header(void) const
	?handle_DATA_payload@eap_type_gsmsim_c@@AAE?AW4eap_status_e@@W4gsmsim_subtype_e@@PAVgsmsim_payloads_c@@@Z @ 114 NONAME ; enum eap_status_e eap_type_gsmsim_c::handle_DATA_payload(enum gsmsim_subtype_e, class gsmsim_payloads_c *)
	?get_data@gsmsim_fixed_data_c@@QBEGPAVabs_eap_am_tools_c@@@Z @ 115 NONAME ; unsigned short gsmsim_fixed_data_c::get_data(class abs_eap_am_tools_c *) const
	?increase_reauth_counter@eap_am_type_gsmsim_symbian_c@@UAE?AW4eap_status_e@@XZ @ 116 NONAME ; enum eap_status_e eap_am_type_gsmsim_symbian_c::increase_reauth_counter(void)
	?shutdown@eap_type_gsmsim_c@@UAE?AW4eap_status_e@@XZ @ 117 NONAME ; enum eap_status_e eap_type_gsmsim_c::shutdown(void)
	?get_subtype@gsmsim_header_c@@QBE?AW4gsmsim_subtype_e@@XZ @ 118 NONAME ; enum gsmsim_subtype_e gsmsim_header_c::get_subtype(void) const
	??1eap_am_type_gsmsim_symbian_c@@UAE@XZ @ 119 NONAME ; eap_am_type_gsmsim_symbian_c::~eap_am_type_gsmsim_symbian_c(void)
	??1gsmsim_payload_AT_header_c@@UAE@XZ @ 120 NONAME ; gsmsim_payload_AT_header_c::~gsmsim_payload_AT_header_c(void)
	??1eap_type_sim_triplet_array_c@@UAE@XZ @ 121 NONAME ; eap_type_sim_triplet_array_c::~eap_type_sim_triplet_array_c(void)
	?get_header_length@gsmsim_payload_AT_header_c@@SAGXZ @ 122 NONAME ; unsigned short gsmsim_payload_AT_header_c::get_header_length(void)
	?timer_delete_data@eap_type_gsmsim_c@@UAE?AW4eap_status_e@@KPAX@Z @ 123 NONAME ; enum eap_status_e eap_type_gsmsim_c::timer_delete_data(unsigned long, void *)
	?handle_challenge_request_message@eap_type_gsmsim_c@@AAE?AW4eap_status_e@@PBVeap_am_network_id_c@@PAVgsmsim_header_c@@KPAVgsmsim_payloads_c@@@Z @ 124 NONAME ; enum eap_status_e eap_type_gsmsim_c::handle_challenge_request_message(class eap_am_network_id_c const *, class gsmsim_header_c *, unsigned long, class gsmsim_payloads_c *)
	?reset_header@gsmsim_header_c@@QAEXK_N@Z @ 125 NONAME ; void gsmsim_header_c::reset_header(unsigned long, bool)
	?set_data_length@gsmsim_payload_AT_header_c@@QAEXG@Z @ 126 NONAME ; void gsmsim_payload_AT_header_c::set_data_length(unsigned short)
	?set_notification_message_delay_timer@eap_type_gsmsim_c@@AAE?AW4eap_status_e@@XZ @ 127 NONAME ; enum eap_status_e eap_type_gsmsim_c::set_notification_message_delay_timer(void)
	?handle_notification_packet@eap_type_gsmsim_c@@AAE?AW4eap_status_e@@XZ @ 128 NONAME ; enum eap_status_e eap_type_gsmsim_c::handle_notification_packet(void)
	?get_triplet@eap_type_sim_triplet_array_c@@QAEPAVeap_type_saesim_triplet_c@@PAVabs_eap_am_tools_c@@K@Z @ 129 NONAME ; class eap_type_saesim_triplet_c * eap_type_sim_triplet_array_c::get_triplet(class abs_eap_am_tools_c *, unsigned long)
	?set_timer@eap_type_gsmsim_c@@UAE?AW4eap_status_e@@PAVabs_eap_base_timer_c@@KPAXK@Z @ 130 NONAME ; enum eap_status_e eap_type_gsmsim_c::set_timer(class abs_eap_base_timer_c *, unsigned long, void *, unsigned long)
	??1gsmsim_fixed_data_c@@UAE@XZ @ 131 NONAME ; gsmsim_fixed_data_c::~gsmsim_fixed_data_c(void)
	?cancel_error_message_delay_timer@eap_type_gsmsim_c@@AAE?AW4eap_status_e@@XZ @ 132 NONAME ; enum eap_status_e eap_type_gsmsim_c::cancel_error_message_delay_timer(void)
	?set_error_message_delay_timer@eap_type_gsmsim_c@@AAE?AW4eap_status_e@@XZ @ 133 NONAME ; enum eap_status_e eap_type_gsmsim_c::set_error_message_delay_timer(void)
	?generate_reauth_shared_secred_keys@eap_type_gsmsim_c@@AAE?AW4eap_status_e@@KPBVeap_variable_data_c@@K00PAV3@@Z @ 134 NONAME ; enum eap_status_e eap_type_gsmsim_c::generate_reauth_shared_secred_keys(unsigned long, class eap_variable_data_c const *, unsigned long, class eap_variable_data_c const *, class eap_variable_data_c const *, class eap_variable_data_c *)
	?reset@eap_type_saesim_triplet_c@@QAEXXZ @ 135 NONAME ; void eap_type_saesim_triplet_c::reset(void)
	?query_SIM_kc_and_sres@eap_am_type_gsmsim_symbian_c@@QAE?AW4eap_status_e@@PBEPAE1@Z @ 136 NONAME ; enum eap_status_e eap_am_type_gsmsim_symbian_c::query_SIM_kc_and_sres(unsigned char const *, unsigned char *, unsigned char *)
	?get_data_length@gsmsim_variable_data_c@@QBEKXZ @ 137 NONAME ; unsigned long gsmsim_variable_data_c::get_data_length(void) const
	?get_max_payload_data_length@gsmsim_payload_AT_header_c@@SAGXZ @ 138 NONAME ; unsigned short gsmsim_payload_AT_header_c::get_max_payload_data_length(void)
	?check_one_payload@gsmsim_payloads_c@@QAE_NW4eap_gsmsim_payload_status_e@1@PBVgsmsim_variable_data_c@@@Z @ 139 NONAME ; bool gsmsim_payloads_c::check_one_payload(enum gsmsim_payloads_c::eap_gsmsim_payload_status_e, class gsmsim_variable_data_c const *)
	?complete_SIM_IMSI_or_pseudonym_or_reauthentication_id_query@eap_type_gsmsim_c@@UAE?AW4eap_status_e@@PBVeap_variable_data_c@@000KW4eap_type_gsmsim_complete_e@@EW42@@Z @ 140 NONAME ; enum eap_status_e eap_type_gsmsim_c::complete_SIM_IMSI_or_pseudonym_or_reauthentication_id_query(class eap_variable_data_c const *, class eap_variable_data_c const *, class eap_variable_data_c const *, class eap_variable_data_c const *, unsigned long, enum eap_type_gsmsim_complete_e, unsigned char, enum eap_status_e)
	?get_includes_other_version_than_1@gsmsim_payloads_c@@QAE_NXZ @ 141 NONAME ; bool gsmsim_payloads_c::get_includes_other_version_than_1(void)
	?encrypt_DATA_payload@eap_type_gsmsim_c@@AAE?AW4eap_status_e@@PAEKPBVeap_variable_data_c@@1@Z @ 142 NONAME ; enum eap_status_e eap_type_gsmsim_c::encrypt_DATA_payload(unsigned char *, unsigned long, class eap_variable_data_c const *, class eap_variable_data_c const *)
	?get_saved_previous_state_string@eap_type_gsmsim_c@@ABEPBDXZ @ 143 NONAME ; char const * eap_type_gsmsim_c::get_saved_previous_state_string(void) const
	?add_triplet@eap_type_sim_triplet_array_c@@QAEPAVeap_type_saesim_triplet_c@@XZ @ 144 NONAME ; class eap_type_saesim_triplet_c * eap_type_sim_triplet_array_c::add_triplet(void)
	?copy@eap_type_sim_triplet_array_c@@QAEPAV1@XZ @ 145 NONAME ; class eap_type_sim_triplet_array_c * eap_type_sim_triplet_array_c::copy(void)
	?check_version_list@eap_type_gsmsim_c@@AAE?AW4eap_status_e@@PBVgsmsim_payload_AT_header_c@@GPAEPA_N@Z @ 146 NONAME ; enum eap_status_e eap_type_gsmsim_c::check_version_list(class gsmsim_payload_AT_header_c const *, unsigned short, unsigned char *, bool *)
	??1gsmsim_variable_data_c@@UAE@XZ @ 147 NONAME ; gsmsim_variable_data_c::~gsmsim_variable_data_c(void)
	?cancel_timer@eap_type_gsmsim_c@@UAE?AW4eap_status_e@@PAVabs_eap_base_timer_c@@K@Z @ 148 NONAME ; enum eap_status_e eap_type_gsmsim_c::cancel_timer(class abs_eap_base_timer_c *, unsigned long)
	?send_final_notification@eap_type_gsmsim_c@@AAE?AW4eap_status_e@@XZ @ 149 NONAME ; enum eap_status_e eap_type_gsmsim_c::send_final_notification(void)
	?copy@eap_type_saesim_triplet_c@@QAEPAV1@PAVabs_eap_am_tools_c@@@Z @ 150 NONAME ; class eap_type_saesim_triplet_c * eap_type_saesim_triplet_c::copy(class abs_eap_am_tools_c *)
	?set_is_valid@eap_type_gsmsim_c@@UAEXXZ @ 151 NONAME ; void eap_type_gsmsim_c::set_is_valid(void)
	?reset@eap_am_type_gsmsim_symbian_c@@UAE?AW4eap_status_e@@XZ @ 152 NONAME ; enum eap_status_e eap_am_type_gsmsim_symbian_c::reset(void)
	?add_simple_payload@eap_type_gsmsim_c@@AAE?AW4eap_status_e@@PAVgsmsim_header_c@@KKPAK111W4gsmsim_payload_AT_type_e@@@Z @ 153 NONAME ; enum eap_status_e eap_type_gsmsim_c::add_simple_payload(class gsmsim_header_c *, unsigned long, unsigned long, unsigned long *, unsigned long *, unsigned long *, unsigned long *, enum gsmsim_payload_AT_type_e)
	?get_data@gsmsim_payload_AT_header_c@@QBEPAEK@Z @ 154 NONAME ; unsigned char * gsmsim_payload_AT_header_c::get_data(unsigned long) const
	?handle_error_packet@eap_type_gsmsim_c@@AAE?AW4eap_status_e@@XZ @ 155 NONAME ; enum eap_status_e eap_type_gsmsim_c::handle_error_packet(void)
	?get_COUNTER@gsmsim_payloads_c@@QAEPAVgsmsim_variable_data_c@@XZ @ 156 NONAME ; class gsmsim_variable_data_c * gsmsim_payloads_c::get_COUNTER(void)
	?get_data@gsmsim_variable_data_c@@QBEPAEK@Z @ 157 NONAME ; unsigned char * gsmsim_variable_data_c::get_data(unsigned long) const
	?store_reauth_parameters@eap_am_type_gsmsim_symbian_c@@UAE?AW4eap_status_e@@PBVeap_variable_data_c@@00K@Z @ 158 NONAME ; enum eap_status_e eap_am_type_gsmsim_symbian_c::store_reauth_parameters(class eap_variable_data_c const *, class eap_variable_data_c const *, class eap_variable_data_c const *, unsigned long)
	?get_current_payload@gsmsim_payload_AT_header_c@@QBE?AW4gsmsim_payload_AT_type_e@@XZ @ 159 NONAME ; enum gsmsim_payload_AT_type_e gsmsim_payload_AT_header_c::get_current_payload(void) const
	?initialize_error_message@eap_type_gsmsim_c@@AAE?AW4eap_status_e@@W42@@Z @ 160 NONAME ; enum eap_status_e eap_type_gsmsim_c::initialize_error_message(enum eap_status_e)
	?get_NOTIFICATION@gsmsim_payloads_c@@QAEPAVgsmsim_variable_data_c@@XZ @ 161 NONAME ; class gsmsim_variable_data_c * gsmsim_payloads_c::get_NOTIFICATION(void)
	?handle_reauthentication_request_message@eap_type_gsmsim_c@@AAE?AW4eap_status_e@@PBVeap_am_network_id_c@@PAVgsmsim_header_c@@KPAVgsmsim_payloads_c@@@Z @ 162 NONAME ; enum eap_status_e eap_type_gsmsim_c::handle_reauthentication_request_message(class eap_am_network_id_c const *, class gsmsim_header_c *, unsigned long, class gsmsim_payloads_c *)
	?get_SELECTED_VERSION@gsmsim_payloads_c@@QAEPAVgsmsim_variable_data_c@@XZ @ 163 NONAME ; class gsmsim_variable_data_c * gsmsim_payloads_c::get_SELECTED_VERSION(void)
	?set_subtype@gsmsim_header_c@@QAEXW4gsmsim_subtype_e@@@Z @ 164 NONAME ; void gsmsim_header_c::set_subtype(enum gsmsim_subtype_e)
	??1eap_type_gsmsim_c@@UAE@XZ @ 165 NONAME ; eap_type_gsmsim_c::~eap_type_gsmsim_c(void)
	?check_initiator@eap_type_gsmsim_state_variable_parameters_c@@QBE_N_N@Z @ 166 NONAME ; bool eap_type_gsmsim_state_variable_parameters_c::check_initiator(bool) const
	?check_valid_state@eap_type_gsmsim_c@@AAE?AW4eap_status_e@@W4gsmsim_subtype_e@@@Z @ 167 NONAME ; enum eap_status_e eap_type_gsmsim_c::check_valid_state(enum gsmsim_subtype_e)
	?reset@eap_type_gsmsim_c@@UAE?AW4eap_status_e@@XZ @ 168 NONAME ; enum eap_status_e eap_type_gsmsim_c::reset(void)
	?get_PERMANENT_ID_REQ@gsmsim_payloads_c@@QAEPAVgsmsim_variable_data_c@@XZ @ 169 NONAME ; class gsmsim_variable_data_c * gsmsim_payloads_c::get_PERMANENT_ID_REQ(void)
	?cancel_notification_message_delay_timer@eap_type_gsmsim_c@@AAE?AW4eap_status_e@@XZ @ 170 NONAME ; enum eap_status_e eap_type_gsmsim_c::cancel_notification_message_delay_timer(void)
	?reset@eap_type_sim_triplet_array_c@@QAEXXZ @ 171 NONAME ; void eap_type_sim_triplet_array_c::reset(void)
	??0eap_type_gsmsim_state_variable_parameters_c@@QAE@XZ @ 172 NONAME ; eap_type_gsmsim_state_variable_parameters_c::eap_type_gsmsim_state_variable_parameters_c(void)
	?set_data_length@gsmsim_header_c@@QAEXK_N@Z @ 173 NONAME ; void gsmsim_header_c::set_data_length(unsigned long, bool)
	?process_SIM_kc_sres@eap_type_gsmsim_c@@AAE?AW4eap_status_e@@PBVeap_variable_data_c@@00@Z @ 174 NONAME ; enum eap_status_e eap_type_gsmsim_c::process_SIM_kc_sres(class eap_variable_data_c const *, class eap_variable_data_c const *, class eap_variable_data_c const *)
	?packet_send@eap_type_gsmsim_c@@AAE?AW4eap_status_e@@PBVeap_am_network_id_c@@PAVeap_buf_chain_wr_c@@KKK@Z @ 175 NONAME ; enum eap_status_e eap_type_gsmsim_c::packet_send(class eap_am_network_id_c const *, class eap_buf_chain_wr_c *, unsigned long, unsigned long, unsigned long)
	?data_exp@eap_type_gsmsim_c@@AAE?AW4eap_status_e@@KPAVeap_variable_data_c@@PBV3@1@Z @ 176 NONAME ; enum eap_status_e eap_type_gsmsim_c::data_exp(unsigned long, class eap_variable_data_c *, class eap_variable_data_c const *, class eap_variable_data_c const *)
	?generate_shared_secred_keys@eap_type_gsmsim_c@@AAE?AW4eap_status_e@@KPBVeap_variable_data_c@@0PAV3@111@Z @ 177 NONAME ; enum eap_status_e eap_type_gsmsim_c::generate_shared_secred_keys(unsigned long, class eap_variable_data_c const *, class eap_variable_data_c const *, class eap_variable_data_c *, class eap_variable_data_c *, class eap_variable_data_c *, class eap_variable_data_c *)
	?eap_acknowledge@eap_type_gsmsim_c@@UAE?AW4eap_status_e@@PBVeap_am_network_id_c@@@Z @ 178 NONAME ; enum eap_status_e eap_type_gsmsim_c::eap_acknowledge(class eap_am_network_id_c const *)
	??0eap_type_saesim_triplet_c@@QAE@PAVabs_eap_am_tools_c@@@Z @ 179 NONAME ; eap_type_saesim_triplet_c::eap_type_saesim_triplet_c(class abs_eap_am_tools_c *)
	?get_is_valid@gsmsim_payloads_c@@QBE_NXZ @ 180 NONAME ; bool gsmsim_payloads_c::get_is_valid(void) const
	?set_is_valid@eap_type_saesim_triplet_c@@QAEXXZ @ 181 NONAME ; void eap_type_saesim_triplet_c::set_is_valid(void)
	?save_current_state@eap_type_gsmsim_c@@AAEXXZ @ 182 NONAME ; void eap_type_gsmsim_c::save_current_state(void)
	?parse_gsmsim_packet@eap_type_gsmsim_c@@AAE?AW4eap_status_e@@PAVgsmsim_header_c@@KPAVgsmsim_payloads_c@@@Z @ 183 NONAME ; enum eap_status_e eap_type_gsmsim_c::parse_gsmsim_packet(class gsmsim_header_c *, unsigned long, class gsmsim_payloads_c *)
	??0eap_type_sim_triplet_array_c@@QAE@PAVabs_eap_am_tools_c@@@Z @ 184 NONAME ; eap_type_sim_triplet_array_c::eap_type_sim_triplet_array_c(class abs_eap_am_tools_c *)
	?set_triplet_count@eap_type_sim_triplet_array_c@@QAE?AW4eap_status_e@@K@Z @ 185 NONAME ; enum eap_status_e eap_type_sim_triplet_array_c::set_triplet_count(unsigned long)
	?new_handler@eap_type_gsmsim_c@@AAE?AW4eap_status_e@@PBVeap_am_network_id_c@@_N@Z @ 186 NONAME ; enum eap_status_e eap_type_gsmsim_c::new_handler(class eap_am_network_id_c const *, bool)
	?analyse_gsmsim_packet@eap_type_gsmsim_c@@AAE?AW4eap_status_e@@PBVeap_am_network_id_c@@PAVgsmsim_header_c@@KPAVgsmsim_payloads_c@@@Z @ 187 NONAME ; enum eap_status_e eap_type_gsmsim_c::analyse_gsmsim_packet(class eap_am_network_id_c const *, class gsmsim_header_c *, unsigned long, class gsmsim_payloads_c *)
	?check_rands@eap_type_gsmsim_c@@AAE?AW4eap_status_e@@PBVeap_variable_data_c@@@Z @ 188 NONAME ; enum eap_status_e eap_type_gsmsim_c::check_rands(class eap_variable_data_c const *)
	?get_includes_unknown_attribute@gsmsim_payloads_c@@QAE?AW4gsmsim_payload_AT_type_e@@XZ @ 189 NONAME ; enum gsmsim_payload_AT_type_e gsmsim_payloads_c::get_includes_unknown_attribute(void)
	?add_counter_payload@eap_type_gsmsim_c@@AAE?AW4eap_status_e@@PAVgsmsim_header_c@@KKPAK111G@Z @ 190 NONAME ; enum eap_status_e eap_type_gsmsim_c::add_counter_payload(class gsmsim_header_c *, unsigned long, unsigned long, unsigned long *, unsigned long *, unsigned long *, unsigned long *, unsigned short)
	?get_nai_realm@eap_type_gsmsim_c@@AAEPAVeap_variable_data_c@@XZ @ 191 NONAME ; class eap_variable_data_c * eap_type_gsmsim_c::get_nai_realm(void)
	?set_includes_other_version_than_1@gsmsim_payloads_c@@QAEX_N@Z @ 192 NONAME ; void gsmsim_payloads_c::set_includes_other_version_than_1(bool)
	?get_original_header@gsmsim_variable_data_c@@QBEPBVgsmsim_payload_AT_header_c@@XZ @ 193 NONAME ; class gsmsim_payload_AT_header_c const * gsmsim_variable_data_c::get_original_header(void) const
	?set_triplet@eap_type_saesim_triplet_c@@QAE?AW4eap_status_e@@PAVeap_variable_data_c@@00@Z @ 194 NONAME ; enum eap_status_e eap_type_saesim_triplet_c::set_triplet(class eap_variable_data_c *, class eap_variable_data_c *, class eap_variable_data_c *)
	??1gsmsim_header_c@@UAE@XZ @ 195 NONAME ; gsmsim_header_c::~gsmsim_header_c(void)
	?select_version@eap_type_gsmsim_c@@AAE?AW4eap_gsmsim_version@@PBVgsmsim_variable_data_c@@PA_N@Z @ 196 NONAME ; enum eap_gsmsim_version eap_type_gsmsim_c::select_version(class gsmsim_variable_data_c const *, bool *)
	?update_payload_indexes@eap_type_gsmsim_c@@AAEXKKKPAK000@Z @ 197 NONAME ; void eap_type_gsmsim_c::update_payload_indexes(unsigned long, unsigned long, unsigned long, unsigned long *, unsigned long *, unsigned long *, unsigned long *)
	?set_current_payload@gsmsim_payload_AT_header_c@@QAEXW4gsmsim_payload_AT_type_e@@@Z @ 198 NONAME ; void gsmsim_payload_AT_header_c::set_current_payload(enum gsmsim_payload_AT_type_e)
	?handle_eap_identity_query@eap_type_gsmsim_c@@AAE?AW4eap_status_e@@PBVeap_am_network_id_c@@PAVeap_variable_data_c@@EPBV4@222K_N@Z @ 199 NONAME ; enum eap_status_e eap_type_gsmsim_c::handle_eap_identity_query(class eap_am_network_id_c const *, class eap_variable_data_c *, unsigned char, class eap_variable_data_c const *, class eap_variable_data_c const *, class eap_variable_data_c const *, class eap_variable_data_c const *, unsigned long, bool)
	?generate_nai@eap_type_gsmsim_c@@AAE?AW4eap_status_e@@PAVeap_variable_data_c@@_NPBV3@2122K@Z @ 200 NONAME ; enum eap_status_e eap_type_gsmsim_c::generate_nai(class eap_variable_data_c *, bool, class eap_variable_data_c const *, class eap_variable_data_c const *, bool, class eap_variable_data_c const *, class eap_variable_data_c const *, unsigned long)
	?get_is_valid@eap_type_saesim_triplet_c@@QAE_NXZ @ 201 NONAME ; bool eap_type_saesim_triplet_c::get_is_valid(void)
	?handle_gsmsim_notification@eap_am_type_gsmsim_symbian_c@@UAE?AW4eap_status_e@@W4eap_gsmsim_notification_codes_e@@@Z @ 202 NONAME ; enum eap_status_e eap_am_type_gsmsim_symbian_c::handle_gsmsim_notification(enum eap_gsmsim_notification_codes_e)
	?store_identity@eap_type_gsmsim_c@@AAE?AW4eap_status_e@@PBVeap_variable_data_c@@_N@Z @ 203 NONAME ; enum eap_status_e eap_type_gsmsim_c::store_identity(class eap_variable_data_c const *, bool)
	??0eap_type_gsmsim_state_notification_c@@QAE@PAVabs_eap_am_tools_c@@PBVeap_am_network_id_c@@_NW4eap_state_notification_eap_e@@W4eap_protocol_layer_e@@Veap_expanded_type_c@@KKE2@Z @ 204 NONAME ; eap_type_gsmsim_state_notification_c::eap_type_gsmsim_state_notification_c(class abs_eap_am_tools_c *, class eap_am_network_id_c const *, bool, enum eap_state_notification_eap_e, enum eap_protocol_layer_e, class eap_expanded_type_c, unsigned long, unsigned long, unsigned char, bool)
	?store_reauthentication_id@eap_am_type_gsmsim_symbian_c@@UAE?AW4eap_status_e@@PBVeap_am_network_id_c@@PBVeap_variable_data_c@@@Z @ 205 NONAME ; enum eap_status_e eap_am_type_gsmsim_symbian_c::store_reauthentication_id(class eap_am_network_id_c const *, class eap_variable_data_c const *)
	?read_configure@eap_type_gsmsim_c@@UAE?AW4eap_status_e@@PBVeap_configuration_field_c@@PAVeap_variable_data_c@@@Z @ 206 NONAME ; enum eap_status_e eap_type_gsmsim_c::read_configure(class eap_configuration_field_c const *, class eap_variable_data_c *)
	?get_is_valid@eap_type_gsmsim_c@@UAE_NXZ @ 207 NONAME ; bool eap_type_gsmsim_c::get_is_valid(void)
	?handle_gsmsim_notification_request_message@eap_type_gsmsim_c@@AAE?AW4eap_status_e@@PBVeap_am_network_id_c@@PAVgsmsim_header_c@@KPAVgsmsim_payloads_c@@@Z @ 208 NONAME ; enum eap_status_e eap_type_gsmsim_c::handle_gsmsim_notification_request_message(class eap_am_network_id_c const *, class gsmsim_header_c *, unsigned long, class gsmsim_payloads_c *)
	?get_reserved@gsmsim_payload_AT_header_c@@QBEGXZ @ 209 NONAME ; unsigned short gsmsim_payload_AT_header_c::get_reserved(void) const
	?complete_SIM_kc_sres@eap_type_gsmsim_c@@UAE?AW4eap_status_e@@PBVeap_variable_data_c@@00W42@@Z @ 210 NONAME ; enum eap_status_e eap_type_gsmsim_c::complete_SIM_kc_sres(class eap_variable_data_c const *, class eap_variable_data_c const *, class eap_variable_data_c const *, enum eap_status_e)
	?generate_encryption_IV@eap_am_type_gsmsim_symbian_c@@UAE?AW4eap_status_e@@PAVeap_variable_data_c@@K@Z @ 211 NONAME ; enum eap_status_e eap_am_type_gsmsim_symbian_c::generate_encryption_IV(class eap_variable_data_c *, unsigned long)
	?generate_nonce@eap_type_gsmsim_c@@AAE?AW4eap_status_e@@KPAVeap_variable_data_c@@@Z @ 212 NONAME ; enum eap_status_e eap_type_gsmsim_c::generate_nonce(unsigned long, class eap_variable_data_c *)
	?update_buffer_indexes@eap_type_gsmsim_c@@AAEXKKPAK0@Z @ 213 NONAME ; void eap_type_gsmsim_c::update_buffer_indexes(unsigned long, unsigned long, unsigned long *, unsigned long *)
	?parse_generic_payload@eap_type_gsmsim_c@@AAE?AW4eap_status_e@@W4gsmsim_payload_AT_type_e@@PBVgsmsim_payload_AT_header_c@@PAVgsmsim_payloads_c@@W4gsmsim_subtype_e@@@Z @ 214 NONAME ; enum eap_status_e eap_type_gsmsim_c::parse_generic_payload(enum gsmsim_payload_AT_type_e, class gsmsim_payload_AT_header_c const *, class gsmsim_payloads_c *, enum gsmsim_subtype_e)
	?add_pseudonym_or_imsi_payload@eap_type_gsmsim_c@@AAE?AW4eap_status_e@@PAVgsmsim_header_c@@KKPAK111PBVeap_variable_data_c@@W4gsmsim_payload_AT_type_e@@@Z @ 215 NONAME ; enum eap_status_e eap_type_gsmsim_c::add_pseudonym_or_imsi_payload(class gsmsim_header_c *, unsigned long, unsigned long, unsigned long *, unsigned long *, unsigned long *, unsigned long *, class eap_variable_data_c const *, enum gsmsim_payload_AT_type_e)
	?get_is_valid@gsmsim_fixed_data_c@@QBE_NXZ @ 216 NONAME ; bool gsmsim_fixed_data_c::get_is_valid(void) const
	?get_triplet_count@eap_type_sim_triplet_array_c@@QAEKXZ @ 217 NONAME ; unsigned long eap_type_sim_triplet_array_c::get_triplet_count(void)
	?decrypt_DATA_payload@eap_type_gsmsim_c@@AAE?AW4eap_status_e@@PAVgsmsim_payloads_c@@PBVeap_variable_data_c@@@Z @ 218 NONAME ; enum eap_status_e eap_type_gsmsim_c::decrypt_DATA_payload(class gsmsim_payloads_c *, class eap_variable_data_c const *)
	?get_IV@gsmsim_payloads_c@@QAEPAVgsmsim_variable_data_c@@XZ @ 219 NONAME ; class gsmsim_variable_data_c * gsmsim_payloads_c::get_IV(void)
	?get_NONCE_S@gsmsim_payloads_c@@QAEPAVgsmsim_variable_data_c@@XZ @ 220 NONAME ; class gsmsim_variable_data_c * gsmsim_payloads_c::get_NONCE_S(void)
	?type_configure_read@eap_am_type_gsmsim_symbian_c@@UAE?AW4eap_status_e@@PBVeap_configuration_field_c@@PAVeap_variable_data_c@@@Z @ 221 NONAME ; enum eap_status_e eap_am_type_gsmsim_symbian_c::type_configure_read(class eap_configuration_field_c const *, class eap_variable_data_c *)
	?parse_gsmsim_payload@eap_type_gsmsim_c@@AAE?AW4eap_status_e@@PBVgsmsim_payload_AT_header_c@@PAKPAVgsmsim_payloads_c@@W4gsmsim_subtype_e@@@Z @ 222 NONAME ; enum eap_status_e eap_type_gsmsim_c::parse_gsmsim_payload(class gsmsim_payload_AT_header_c const *, unsigned long *, class gsmsim_payloads_c *, enum gsmsim_subtype_e)
	?get_subtype_string@gsmsim_header_c@@QBEPBDXZ @ 223 NONAME ; char const * gsmsim_header_c::get_subtype_string(void) const
	?add_variable_payload@eap_type_gsmsim_c@@AAE?AW4eap_status_e@@PAVgsmsim_header_c@@KKPAK111PBVeap_variable_data_c@@W4gsmsim_payload_AT_type_e@@@Z @ 224 NONAME ; enum eap_status_e eap_type_gsmsim_c::add_variable_payload(class gsmsim_header_c *, unsigned long, unsigned long, unsigned long *, unsigned long *, unsigned long *, unsigned long *, class eap_variable_data_c const *, enum gsmsim_payload_AT_type_e)
	?packet_process@eap_type_gsmsim_c@@UAE?AW4eap_status_e@@PBVeap_am_network_id_c@@PAVeap_header_wr_c@@K@Z @ 225 NONAME ; enum eap_status_e eap_type_gsmsim_c::packet_process(class eap_am_network_id_c const *, class eap_header_wr_c *, unsigned long)
	?get_NONCE_MT@gsmsim_payloads_c@@QAEPAVgsmsim_variable_data_c@@XZ @ 226 NONAME ; class gsmsim_variable_data_c * gsmsim_payloads_c::get_NONCE_MT(void)
	?get_IDENTITY_payload@gsmsim_payloads_c@@QAEPAVgsmsim_variable_data_c@@XZ @ 227 NONAME ; class gsmsim_variable_data_c * gsmsim_payloads_c::get_IDENTITY_payload(void)
	?get_type@gsmsim_fixed_data_c@@QBEGPAVabs_eap_am_tools_c@@@Z @ 228 NONAME ; unsigned short gsmsim_fixed_data_c::get_type(class abs_eap_am_tools_c *) const
	?send_challenge_response_message@eap_type_gsmsim_c@@AAE?AW4eap_status_e@@PAVeap_variable_data_c@@@Z @ 229 NONAME ; enum eap_status_e eap_type_gsmsim_c::send_challenge_response_message(class eap_variable_data_c *)
	?get_state_variable@eap_type_gsmsim_c@@AAEPBVeap_type_gsmsim_state_variable_parameters_c@@XZ @ 230 NONAME ; class eap_type_gsmsim_state_variable_parameters_c const * eap_type_gsmsim_c::get_state_variable(void)
	?packet_trace@eap_type_gsmsim_c@@AAEXPBDPBVeap_am_network_id_c@@PAVeap_header_wr_c@@K@Z @ 231 NONAME ; void eap_type_gsmsim_c::packet_trace(char const *, class eap_am_network_id_c const *, class eap_header_wr_c *, unsigned long)

