EXPORTS
	?ImplementationGroupProxy@@YAPBUTImplementationProxy@@AAH@Z @ 1 NONAME ; struct TImplementationProxy const * ImplementationGroupProxy(int &)
	?complete_query_ttls_pap_username_and_password@tls_application_eap_core_c@@UAE?AW4eap_status_e@@PBVeap_variable_data_c@@0W42@@Z @ 2 NONAME ; enum eap_status_e tls_application_eap_core_c::complete_query_ttls_pap_username_and_password(class eap_variable_data_c const *, class eap_variable_data_c const *, enum eap_status_e)
	??0tls_handshake_message_c@@QAE@PAVabs_eap_am_tools_c@@PAVabs_tls_message_hash_c@@_N@Z @ 3 NONAME ; tls_handshake_message_c::tls_handshake_message_c(class abs_eap_am_tools_c *, class abs_tls_message_hash_c *, bool)
	?get_eap_type_list@dummy_eap_core_c@@UAE?AW4eap_status_e@@PAV?$eap_array_c@Veap_expanded_type_c@@@@@Z @ 4 NONAME ; enum eap_status_e dummy_eap_core_c::get_eap_type_list(class eap_array_c<class eap_expanded_type_c> *)
	?complete_query_dh_parameters@tls_record_c@@UAE?AW4eap_status_e@@PBVeap_variable_data_c@@0W42@@Z @ 5 NONAME ; enum eap_status_e tls_record_c::complete_query_dh_parameters(class eap_variable_data_c const *, class eap_variable_data_c const *, enum eap_status_e)
	?set_peap_version@eap_am_type_tls_peap_symbian_c@@UAEXW4peap_version_e@@_N1@Z @ 6 NONAME ; void eap_am_type_tls_peap_symbian_c::set_peap_version(enum peap_version_e, bool, bool)
	?add_payload@eap_diameter_payloads_c@@QAE?AW4eap_status_e@@Veap_diameter_avp_code_c@@_NPBEK111@Z @ 7 NONAME ; enum eap_status_e eap_diameter_payloads_c::add_payload(class eap_diameter_avp_code_c, bool, unsigned char const *, unsigned long, bool, bool, bool)
	?completion_action_add@tls_record_c@@AAE?AW4eap_status_e@@W4tls_completion_action_e@@@Z @ 8 NONAME ; enum eap_status_e tls_record_c::completion_action_add(enum tls_completion_action_e)
	?query_dh_parameters@eap_am_type_tls_peap_symbian_c@@UAE?AW4eap_status_e@@PBV?$eap_array_c@Veap_variable_data_c@@@@W4tls_cipher_suites_e@@@Z @ 9 NONAME ; enum eap_status_e eap_am_type_tls_peap_symbian_c::query_dh_parameters(class eap_array_c<class eap_variable_data_c> const *, enum tls_cipher_suites_e)
	?get_tls_am_partner@eap_am_type_tls_peap_symbian_c@@EAEPAVabs_tls_am_services_c@@XZ @ 10 NONAME ; class abs_tls_am_services_c * eap_am_type_tls_peap_symbian_c::get_tls_am_partner(void)
	?get_cipher_suite_applied@tls_record_message_c@@QBE_NXZ @ 11 NONAME ; bool tls_record_message_c::get_cipher_suite_applied(void) const
	?set_certificate_types@tls_handshake_message_c@@QAE?AW4eap_status_e@@PBV?$eap_array_c@E@@@Z @ 12 NONAME ; enum eap_status_e tls_handshake_message_c::set_certificate_types(class eap_array_c<unsigned char> const *)
	?ignore_notifications@dummy_eap_core_c@@QAEXXZ @ 13 NONAME ; void dummy_eap_core_c::ignore_notifications(void)
	?get_nt_response@mschapv2_response_c@@QBEPBEXZ @ 14 NONAME ; unsigned char const * mschapv2_response_c::get_nt_response(void) const
	?get_eap_code@eap_tls_peap_header_c@@QBE?AW4eap_code_value_e@@XZ @ 15 NONAME ; enum eap_code_value_e eap_tls_peap_header_c::get_eap_code(void) const
	?new_record_message@tls_record_c@@AAE?AW4eap_status_e@@PAPAVtls_record_message_c@@W4tls_record_protocol_e@@@Z @ 16 NONAME ; enum eap_status_e tls_record_c::new_record_message(class tls_record_message_c * *, enum tls_record_protocol_e)
	?create_ttls_diameter_avp@tls_application_eap_core_c@@AAE?AW4eap_status_e@@PAVeap_variable_data_c@@PBV3@Veap_diameter_avp_code_c@@_N@Z @ 17 NONAME ; enum eap_status_e tls_application_eap_core_c::create_ttls_diameter_avp(class eap_variable_data_c *, class eap_variable_data_c const *, class eap_diameter_avp_code_c, bool)
	?complete_create_handshake_type_server_key_exchange@tls_record_c@@AAE?AW4eap_status_e@@XZ @ 18 NONAME ; enum eap_status_e tls_record_c::complete_create_handshake_type_server_key_exchange(void)
	?get_change_cipher_spec@tls_record_message_c@@QBEPBVtls_change_cipher_spec_message_c@@K@Z @ 19 NONAME ; class tls_change_cipher_spec_message_c const * tls_record_message_c::get_change_cipher_spec(unsigned long) const
	?cancel_verify_certificate_chain@eap_am_type_tls_peap_symbian_c@@UAE?AW4eap_status_e@@XZ @ 20 NONAME ; enum eap_status_e eap_am_type_tls_peap_symbian_c::cancel_verify_certificate_chain(void)
	?add_message_data@tls_record_message_c@@QAE?AW4eap_status_e@@XZ @ 21 NONAME ; enum eap_status_e tls_record_message_c::add_message_data(void)
	?finish_handshake@tls_record_c@@AAE?AW4eap_status_e@@XZ @ 22 NONAME ; enum eap_status_e tls_record_c::finish_handshake(void)
	?complete_query_certificate_authorities_and_types@tls_record_c@@UAE?AW4eap_status_e@@PBV?$eap_array_c@Veap_variable_data_c@@@@PBV?$eap_array_c@E@@W42@@Z @ 23 NONAME ; enum eap_status_e tls_record_c::complete_query_certificate_authorities_and_types(class eap_array_c<class eap_variable_data_c> const *, class eap_array_c<unsigned char> const *, enum eap_status_e)
	?verify_tunneled_acknowledge_peap_v2@tls_application_eap_core_c@@AAE?AW4eap_status_e@@XZ @ 24 NONAME ; enum eap_status_e tls_application_eap_core_c::verify_tunneled_acknowledge_peap_v2(void)
	?get_next_tls_handshake_message_type@tls_record_c@@EAE?AW4tls_handshake_type_e@@XZ @ 25 NONAME ; enum tls_handshake_type_e tls_record_c::get_next_tls_handshake_message_type(void)
	?get_record_message_data@tls_record_message_c@@QAEPAVeap_variable_data_c@@XZ @ 26 NONAME ; class eap_variable_data_c * tls_record_message_c::get_record_message_data(void)
	?get_tls_session_type@eap_type_tls_peap_c@@AAE?AW4tls_session_type_e@@XZ @ 27 NONAME ; enum tls_session_type_e eap_type_tls_peap_c::get_tls_session_type(void)
	?configure@tls_application_eap_core_c@@UAE?AW4eap_status_e@@XZ @ 28 NONAME ; enum eap_status_e tls_application_eap_core_c::configure(void)
	?asynchronous_init_remove_eap_session@tls_application_eap_core_c@@UAE?AW4eap_status_e@@PBVeap_am_network_id_c@@@Z @ 29 NONAME ; enum eap_status_e tls_application_eap_core_c::asynchronous_init_remove_eap_session(class eap_am_network_id_c const *)
	?message_hash_update@tls_record_c@@EAE?AW4eap_status_e@@_NW4tls_handshake_type_e@@PAEK@Z @ 30 NONAME ; enum eap_status_e tls_record_c::message_hash_update(bool, enum tls_handshake_type_e, unsigned char *, unsigned long)
	?generate_master_secret@tls_record_c@@AAE?AW4eap_status_e@@XZ @ 31 NONAME ; enum eap_status_e tls_record_c::generate_master_secret(void)
	?get_selected_cipher_suite@tls_handshake_message_c@@QBE?AW4tls_cipher_suites_e@@XZ @ 32 NONAME ; enum tls_cipher_suites_e tls_handshake_message_c::get_selected_cipher_suite(void) const
	?get_reassembly_state@eap_type_tls_peap_c@@ABE?AW4eap_type_tls_peap_reassembly_state_e@@XZ @ 33 NONAME ; enum eap_type_tls_peap_reassembly_state_e eap_type_tls_peap_c::get_reassembly_state(void) const
	?analyse_handshake_type_client_hello@tls_record_c@@AAE?AW4eap_status_e@@PBVtls_handshake_message_c@@@Z @ 34 NONAME ; enum eap_status_e tls_record_c::analyse_handshake_type_client_hello(class tls_handshake_message_c const *)
	?get_ms_length@mschapv2_header_c@@QBEGXZ @ 35 NONAME ; unsigned short mschapv2_header_c::get_ms_length(void) const
	?check_is_valid_eap_type@eap_type_tls_peap_c@@UAE?AW4eap_status_e@@Veap_expanded_type_c@@@Z @ 36 NONAME ; enum eap_status_e eap_type_tls_peap_c::check_is_valid_eap_type(class eap_expanded_type_c)
	?cancel_timer@tls_record_c@@UAE?AW4eap_status_e@@PAVabs_eap_base_timer_c@@K@Z @ 37 NONAME ; enum eap_status_e tls_record_c::cancel_timer(class abs_eap_base_timer_c *, unsigned long)
	?set_flag_version@eap_tls_peap_header_c@@QAEXE@Z @ 38 NONAME ; void eap_tls_peap_header_c::set_flag_version(unsigned char)
	?set_payload_code@eap_diameter_variable_data_c@@QAEXVeap_diameter_avp_code_c@@@Z @ 39 NONAME ; void eap_diameter_variable_data_c::set_payload_code(class eap_diameter_avp_code_c)
	??1tls_record_message_c@@UAE@XZ @ 40 NONAME ; tls_record_message_c::~tls_record_message_c(void)
	?set_flag_tls_length_included@eap_tls_peap_header_c@@QAEX_N@Z @ 41 NONAME ; void eap_tls_peap_header_c::set_flag_tls_length_included(bool)
	??1peap_tlv_variable_data_c@@UAE@XZ @ 42 NONAME ; peap_tlv_variable_data_c::~peap_tlv_variable_data_c(void)
	?set_finished_data@tls_handshake_message_c@@QAE?AW4eap_status_e@@PBVeap_variable_data_c@@@Z @ 43 NONAME ; enum eap_status_e tls_handshake_message_c::set_finished_data(class eap_variable_data_c const *)
	?get_code@eap_static_diameter_vendor_code_c@@QBEABVeap_diameter_avp_code_c@@XZ @ 44 NONAME ; class eap_diameter_avp_code_c const & eap_static_diameter_vendor_code_c::get_code(void) const
	?create_eap_success_failure_in_forward_to_tunnel@tls_application_eap_core_c@@AAE?AW4eap_status_e@@PBVeap_am_network_id_c@@W4eap_code_value_e@@E@Z @ 45 NONAME ; enum eap_status_e tls_application_eap_core_c::create_eap_success_failure_in_forward_to_tunnel(class eap_am_network_id_c const *, enum eap_code_value_e, unsigned char)
	?set_is_valid@eap_type_tls_peap_c@@UAEXXZ @ 46 NONAME ; void eap_type_tls_peap_c::set_is_valid(void)
	?query_cipher_suites_and_previous_session@eap_am_type_tls_peap_symbian_c@@UAE?AW4eap_status_e@@XZ @ 47 NONAME ; enum eap_status_e eap_am_type_tls_peap_symbian_c::query_cipher_suites_and_previous_session(void)
	?apply_receive_cipher_suite@tls_record_c@@AAE?AW4eap_status_e@@PAVeap_variable_data_c@@@Z @ 48 NONAME ; enum eap_status_e tls_record_c::apply_receive_cipher_suite(class eap_variable_data_c *)
	?cancel_eap_failure_timeout@dummy_eap_core_c@@AAE?AW4eap_status_e@@XZ @ 49 NONAME ; enum eap_status_e dummy_eap_core_c::cancel_eap_failure_timeout(void)
	?set_is_valid@tls_change_cipher_spec_message_c@@AAEXXZ @ 50 NONAME ; void tls_change_cipher_spec_message_c::set_is_valid(void)
	??1tls_completion_c@@UAE@XZ @ 51 NONAME ; tls_completion_c::~tls_completion_c(void)
	?cancel_timer@eap_type_tls_peap_c@@UAE?AW4eap_status_e@@PAVabs_eap_base_timer_c@@K@Z @ 52 NONAME ; enum eap_status_e eap_type_tls_peap_c::cancel_timer(class abs_eap_base_timer_c *, unsigned long)
	?set_eap_type@eap_tls_peap_header_c@@QAEXVeap_expanded_type_c@@_N@Z @ 53 NONAME ; void eap_tls_peap_header_c::set_eap_type(class eap_expanded_type_c, bool)
	?get_header_minimum_size@mschapv2_challenge_c@@SAKXZ @ 54 NONAME ; unsigned long mschapv2_challenge_c::get_header_minimum_size(void)
	?ttls_tunneled_message_state_process_error_request@tls_application_eap_core_c@@AAE?AW4eap_status_e@@PAVeap_header_wr_c@@@Z @ 55 NONAME ; enum eap_status_e tls_application_eap_core_c::ttls_tunneled_message_state_process_error_request(class eap_header_wr_c *)
	??1tls_application_data_message_c@@UAE@XZ @ 56 NONAME ; tls_application_data_message_c::~tls_application_data_message_c(void)
	?get_last_record_message@tls_message_c@@QBEPAVtls_record_message_c@@XZ @ 57 NONAME ; class tls_record_message_c * tls_message_c::get_last_record_message(void) const
	?message_hash_create@tls_record_c@@AAE?AW4eap_status_e@@_NW4tls_handshake_type_e@@PAVeap_variable_data_c@@0@Z @ 58 NONAME ; enum eap_status_e tls_record_c::message_hash_create(bool, enum tls_handshake_type_e, class eap_variable_data_c *, bool)
	??0eap_diameter_payloads_c@@QAE@PAVabs_eap_am_tools_c@@@Z @ 59 NONAME ; eap_diameter_payloads_c::eap_diameter_payloads_c(class abs_eap_am_tools_c *)
	?get_marked_removed@dummy_eap_core_c@@QAE_NXZ @ 60 NONAME ; bool dummy_eap_core_c::get_marked_removed(void)
	?create_change_cipher_spec_type_change_cipher_spec@tls_record_c@@AAE?AW4eap_status_e@@XZ @ 61 NONAME ; enum eap_status_e tls_record_c::create_change_cipher_spec_type_change_cipher_spec(void)
	?send_tls_peap_start_message@eap_type_tls_peap_c@@AAE?AW4eap_status_e@@EPBVeap_variable_data_c@@@Z @ 62 NONAME ; enum eap_status_e eap_type_tls_peap_c::send_tls_peap_start_message(unsigned char, class eap_variable_data_c const *)
	?get_record_message@tls_message_c@@QBEPAVtls_record_message_c@@K@Z @ 63 NONAME ; class tls_record_message_c * tls_message_c::get_record_message(unsigned long) const
	?check_payloads@peap_tlv_payloads_c@@QAE_NW4peap_tlv_payload_status_e@1@0000@Z @ 64 NONAME ; bool peap_tlv_payloads_c::check_payloads(enum peap_tlv_payloads_c::peap_tlv_payload_status_e, enum peap_tlv_payloads_c::peap_tlv_payload_status_e, enum peap_tlv_payloads_c::peap_tlv_payload_status_e, enum peap_tlv_payloads_c::peap_tlv_payload_status_e, enum peap_tlv_payloads_c::peap_tlv_payload_status_e)
	?check_header@mschapv2_response_c@@UBE?AW4eap_status_e@@XZ @ 65 NONAME ; enum eap_status_e mschapv2_response_c::check_header(void) const
	?analyse_handshake_type_server_hello_done@tls_record_c@@AAE?AW4eap_status_e@@PBVtls_handshake_message_c@@@Z @ 66 NONAME ; enum eap_status_e tls_record_c::analyse_handshake_type_server_hello_done(class tls_handshake_message_c const *)
	?add_handshake_message@tls_record_message_c@@QAE?AW4eap_status_e@@PAVtls_handshake_message_c@@_N@Z @ 67 NONAME ; enum eap_status_e tls_record_message_c::add_handshake_message(class tls_handshake_message_c *, bool)
	?configure@tls_record_c@@UAE?AW4eap_status_e@@XZ @ 68 NONAME ; enum eap_status_e tls_record_c::configure(void)
	?set_public_dhe_key@tls_handshake_message_c@@QAE?AW4eap_status_e@@PBVeap_variable_data_c@@@Z @ 69 NONAME ; enum eap_status_e tls_handshake_message_c::set_public_dhe_key(class eap_variable_data_c const *)
	?get_type_partner@tls_base_record_c@@QAEPAVabs_tls_base_record_c@@XZ @ 70 NONAME ; class abs_tls_base_record_c * tls_base_record_c::get_type_partner(void)
	?create_handshake_type_finished@tls_record_c@@AAE?AW4eap_status_e@@XZ @ 71 NONAME ; enum eap_status_e tls_record_c::create_handshake_type_finished(void)
	?cipher_suite_is_TLS_DHE_RSA@tls_record_c@@ABE_NXZ @ 72 NONAME ; bool tls_record_c::cipher_suite_is_TLS_DHE_RSA(void) const
	?get_ttls_implicit_challenge@tls_record_c@@UAE?AW4eap_status_e@@PAVeap_variable_data_c@@K@Z @ 73 NONAME ; enum eap_status_e tls_record_c::get_ttls_implicit_challenge(class eap_variable_data_c *, unsigned long)
	?get_is_valid@tls_change_cipher_spec_message_c@@QAE_NXZ @ 74 NONAME ; bool tls_change_cipher_spec_message_c::get_is_valid(void)
	?get_eap_type_list@eap_type_tls_peap_c@@UAE?AW4eap_status_e@@PAV?$eap_array_c@Veap_expanded_type_c@@@@@Z @ 75 NONAME ; enum eap_status_e eap_type_tls_peap_c::get_eap_type_list(class eap_array_c<class eap_expanded_type_c> *)
	?parse_handshake_type_server_hello_done@tls_record_c@@AAE?AW4eap_status_e@@PAVtls_record_message_c@@PAVtls_handshake_header_c@@K@Z @ 76 NONAME ; enum eap_status_e tls_record_c::parse_handshake_type_server_hello_done(class tls_record_message_c *, class tls_handshake_header_c *, unsigned long)
	?get_alert_level_string@eap_tls_trace_string_c@@SAPBDW4tls_alert_level_e@@@Z @ 77 NONAME ; char const * eap_tls_trace_string_c::get_alert_level_string(enum tls_alert_level_e)
	?check_sent_tls_message@tls_record_c@@AAE?AW4eap_status_e@@XZ @ 78 NONAME ; enum eap_status_e tls_record_c::check_sent_tls_message(void)
	??0tls_base_record_c@@QAE@PAVabs_eap_am_tools_c@@@Z @ 79 NONAME ; tls_base_record_c::tls_base_record_c(class abs_eap_am_tools_c *)
	?check_ttls_plain_pap_payloads@tls_application_eap_core_c@@AAE?AW4eap_status_e@@PAVeap_diameter_payloads_c@@PAW4eap_ttls_tunneled_message_type_e@@@Z @ 80 NONAME ; enum eap_status_e tls_application_eap_core_c::check_ttls_plain_pap_payloads(class eap_diameter_payloads_c *, enum eap_ttls_tunneled_message_type_e *)
	?get_protocol@tls_record_message_c@@QBE?AW4tls_record_protocol_e@@XZ @ 81 NONAME ; enum tls_record_protocol_e tls_record_message_c::get_protocol(void) const
	??1tls_record_c@@UAE@XZ @ 82 NONAME ; tls_record_c::~tls_record_c(void)
	?restore_saved_reassembly_state@eap_type_tls_peap_c@@AAEXXZ @ 83 NONAME ; void eap_type_tls_peap_c::restore_saved_reassembly_state(void)
	?create_crypto_binding_compound_mac@tls_application_eap_core_c@@AAE?AW4eap_status_e@@PBVeap_variable_data_c@@PBVtls_peap_tlv_header_c@@PAV3@@Z @ 84 NONAME ; enum eap_status_e tls_application_eap_core_c::create_crypto_binding_compound_mac(class eap_variable_data_c const *, class tls_peap_tlv_header_c const *, class eap_variable_data_c *)
	?analyse_tls_protocol_alert@tls_record_c@@AAE?AW4eap_status_e@@PBVtls_record_message_c@@@Z @ 85 NONAME ; enum eap_status_e tls_record_c::analyse_tls_protocol_alert(class tls_record_message_c const *)
	?create_handshake_type_server_hello@tls_record_c@@AAE?AW4eap_status_e@@GE@Z @ 86 NONAME ; enum eap_status_e tls_record_c::create_handshake_type_server_hello(unsigned short, unsigned char)
	?add_message_data@tls_change_cipher_spec_message_c@@QAE?AW4eap_status_e@@PAVeap_variable_data_c@@@Z @ 87 NONAME ; enum eap_status_e tls_change_cipher_spec_message_c::add_message_data(class eap_variable_data_c *)
	?authentication_finished@eap_am_type_tls_peap_symbian_c@@UAE?AW4eap_status_e@@_NW4tls_session_type_e@@@Z @ 88 NONAME ; enum eap_status_e eap_am_type_tls_peap_symbian_c::authentication_finished(bool, enum tls_session_type_e)
	?restart_authentication@dummy_eap_core_c@@UAE?AW4eap_status_e@@PBVeap_am_network_id_c@@_N@Z @ 89 NONAME ; enum eap_status_e dummy_eap_core_c::restart_authentication(class eap_am_network_id_c const *, bool)
	?set_tls_session_type@eap_type_tls_peap_c@@UAE?AW4eap_status_e@@W4tls_session_type_e@@@Z @ 90 NONAME ; enum eap_status_e eap_type_tls_peap_c::set_tls_session_type(enum tls_session_type_e)
	?set_tls_message_data@tls_message_c@@QAE?AW4eap_status_e@@PAVeap_variable_data_c@@E@Z @ 91 NONAME ; enum eap_status_e tls_message_c::set_tls_message_data(class eap_variable_data_c *, unsigned char)
	?complete_create_handshake_type_client_key_exchange@tls_record_c@@AAE?AW4eap_status_e@@XZ @ 92 NONAME ; enum eap_status_e tls_record_c::complete_create_handshake_type_client_key_exchange(void)
	?add_rogue_ap@tls_application_eap_core_c@@UAE?AW4eap_status_e@@AAV?$eap_array_c@Veap_rogue_ap_entry_c@@@@@Z @ 93 NONAME ; enum eap_status_e tls_application_eap_core_c::add_rogue_ap(class eap_array_c<class eap_rogue_ap_entry_c> &)
	?get_crypto_binding_tlv@peap_tlv_payloads_c@@QAEPAVpeap_tlv_variable_data_c@@XZ @ 94 NONAME ; class peap_tlv_variable_data_c * peap_tlv_payloads_c::get_crypto_binding_tlv(void)
	?parse_tls_protocol_alert@tls_record_c@@AAE?AW4eap_status_e@@PAVtls_record_message_c@@PAVeap_variable_data_c@@@Z @ 95 NONAME ; enum eap_status_e tls_record_c::parse_tls_protocol_alert(class tls_record_message_c *, class eap_variable_data_c *)
	?rsa_encrypt_with_public_key@eap_am_type_tls_peap_symbian_c@@UAE?AW4eap_status_e@@PBVeap_variable_data_c@@@Z @ 96 NONAME ; enum eap_status_e eap_am_type_tls_peap_symbian_c::rsa_encrypt_with_public_key(class eap_variable_data_c const *)
	?verify_state@tls_record_c@@AAE_NW4tls_peap_state_e@@@Z @ 97 NONAME ; bool tls_record_c::verify_state(enum tls_peap_state_e)
	?get_peap_version_string@eap_tls_trace_string_c@@SAPBDW4peap_version_e@@@Z @ 98 NONAME ; char const * eap_tls_trace_string_c::get_peap_version_string(enum peap_version_e)
	?packet_send@tls_record_c@@UAE?AW4eap_status_e@@PAVeap_buf_chain_wr_c@@KKK@Z @ 99 NONAME ; enum eap_status_e tls_record_c::packet_send(class eap_buf_chain_wr_c *, unsigned long, unsigned long, unsigned long)
	??1mschapv2_response_c@@UAE@XZ @ 100 NONAME ; mschapv2_response_c::~mschapv2_response_c(void)
	?get_is_analysed@tls_handshake_message_c@@QAE_NXZ @ 101 NONAME ; bool tls_handshake_message_c::get_is_analysed(void)
	?packet_process_xp_peap_v0@tls_application_eap_core_c@@AAE?AW4eap_status_e@@PAVeap_variable_data_c@@EPAK@Z @ 102 NONAME ; enum eap_status_e tls_application_eap_core_c::packet_process_xp_peap_v0(class eap_variable_data_c *, unsigned char, unsigned long *)
	?parse_tls_protocol_change_cipher_spec@tls_record_c@@AAE?AW4eap_status_e@@PAVtls_record_message_c@@PAVeap_variable_data_c@@@Z @ 103 NONAME ; enum eap_status_e tls_record_c::parse_tls_protocol_change_cipher_spec(class tls_record_message_c *, class eap_variable_data_c *)
	?write_configure@tls_record_c@@UAE?AW4eap_status_e@@PBVeap_configuration_field_c@@PAVeap_variable_data_c@@@Z @ 104 NONAME ; enum eap_status_e tls_record_c::write_configure(class eap_configuration_field_c const *, class eap_variable_data_c *)
	?unload_module@eap_type_tls_peap_c@@UAE?AW4eap_status_e@@Veap_expanded_type_c@@@Z @ 105 NONAME ; enum eap_status_e eap_type_tls_peap_c::unload_module(class eap_expanded_type_c)
	?get_tls_record_header_is_included@tls_record_message_c@@QBE_NXZ @ 106 NONAME ; bool tls_record_message_c::get_tls_record_header_is_included(void) const
	?plain_eap_success_failure_packet_received@tls_application_eap_core_c@@UAE?AW4eap_status_e@@PBVeap_am_network_id_c@@W4eap_code_value_e@@E@Z @ 107 NONAME ; enum eap_status_e tls_application_eap_core_c::plain_eap_success_failure_packet_received(class eap_am_network_id_c const *, enum eap_code_value_e, unsigned char)
	?analyse_handshake_type_server_hello@tls_record_c@@AAE?AW4eap_status_e@@PBVtls_handshake_message_c@@@Z @ 108 NONAME ; enum eap_status_e tls_record_c::analyse_handshake_type_server_hello(class tls_handshake_message_c const *)
	??0mschapv2_header_c@@QAE@PAVabs_eap_am_tools_c@@PAXK@Z @ 109 NONAME ; mschapv2_header_c::mschapv2_header_c(class abs_eap_am_tools_c *, void *, unsigned long)
	?cancel_identity_query@eap_am_type_tls_peap_symbian_c@@UAE?AW4eap_status_e@@XZ @ 110 NONAME ; enum eap_status_e eap_am_type_tls_peap_symbian_c::cancel_identity_query(void)
	?remove_record_message@tls_message_c@@QAE?AW4eap_status_e@@K@Z @ 111 NONAME ; enum eap_status_e tls_message_c::remove_record_message(unsigned long)
	?packet_process_type@dummy_eap_core_c@@AAE?AW4eap_status_e@@Veap_expanded_type_c@@PBVeap_am_network_id_c@@PAVeap_general_header_base_c@@K@Z @ 112 NONAME ; enum eap_status_e dummy_eap_core_c::packet_process_type(class eap_expanded_type_c, class eap_am_network_id_c const *, class eap_general_header_base_c *, unsigned long)
	?get_vendor_id@eap_diameter_avp_code_c@@QBE?AW4eap_diameter_vendor_id_e@@XZ @ 113 NONAME ; enum eap_diameter_vendor_id_e eap_diameter_avp_code_c::get_vendor_id(void) const
	?get_encrypted_pw_block@mschapv2_change_password_c@@QBEPBEXZ @ 114 NONAME ; unsigned char const * mschapv2_change_password_c::get_encrypted_pw_block(void) const
	?get_application_data_count@tls_record_message_c@@QBEKXZ @ 115 NONAME ; unsigned long tls_record_message_c::get_application_data_count(void) const
	?check_one_payload@peap_tlv_payloads_c@@QAE_NW4peap_tlv_payload_status_e@1@PBVpeap_tlv_variable_data_c@@@Z @ 116 NONAME ; bool peap_tlv_payloads_c::check_one_payload(enum peap_tlv_payloads_c::peap_tlv_payload_status_e, class peap_tlv_variable_data_c const *)
	?set_authentication_role@dummy_eap_core_c@@UAE?AW4eap_status_e@@_N@Z @ 117 NONAME ; enum eap_status_e dummy_eap_core_c::set_authentication_role(bool)
	?cancel_query_dsa_parameters@eap_am_type_tls_peap_symbian_c@@QAE?AW4eap_status_e@@XZ @ 118 NONAME ; enum eap_status_e eap_am_type_tls_peap_symbian_c::cancel_query_dsa_parameters(void)
	?load_module@eap_type_tls_peap_c@@UAE?AW4eap_status_e@@Veap_expanded_type_c@@0PAVabs_eap_base_type_c@@PAPAVeap_base_type_c@@_NPBVeap_am_network_id_c@@@Z @ 119 NONAME ; enum eap_status_e eap_type_tls_peap_c::load_module(class eap_expanded_type_c, class eap_expanded_type_c, class abs_eap_base_type_c *, class eap_base_type_c * *, bool, class eap_am_network_id_c const *)
	?timer_expired@eap_type_tls_peap_c@@UAE?AW4eap_status_e@@KPAX@Z @ 120 NONAME ; enum eap_status_e eap_type_tls_peap_c::timer_expired(unsigned long, void *)
	?get_header_minimum_size@mschapv2_change_password_c@@SAKXZ @ 121 NONAME ; unsigned long mschapv2_change_password_c::get_header_minimum_size(void)
	?asynchronous_init_remove_eap_session@dummy_eap_core_c@@AAE?AW4eap_status_e@@XZ @ 122 NONAME ; enum eap_status_e dummy_eap_core_c::asynchronous_init_remove_eap_session(void)
	?u16_t_to_network_order@tls_record_c@@CA?AW4eap_status_e@@PAGPAVabs_eap_am_tools_c@@@Z @ 123 NONAME ; enum eap_status_e tls_record_c::u16_t_to_network_order(unsigned short *, class abs_eap_am_tools_c *)
	?shutdown_operation@dummy_eap_core_c@@CA?AW4eap_status_e@@PAVeap_base_type_c@@PAVabs_eap_am_tools_c@@@Z @ 124 NONAME ; enum eap_status_e dummy_eap_core_c::shutdown_operation(class eap_base_type_c *, class abs_eap_am_tools_c *)
	?create_handshake_type_certificate@tls_record_c@@AAE?AW4eap_status_e@@PBV?$eap_array_c@Veap_variable_data_c@@@@@Z @ 125 NONAME ; enum eap_status_e tls_record_c::create_handshake_type_certificate(class eap_array_c<class eap_variable_data_c> const *)
	?complete_select_cipher_suite_and_check_session_id@tls_record_c@@UAE?AW4eap_status_e@@W4tls_session_type_e@@GPBVeap_variable_data_c@@1W42@@Z @ 126 NONAME ; enum eap_status_e tls_record_c::complete_select_cipher_suite_and_check_session_id(enum tls_session_type_e, unsigned short, class eap_variable_data_c const *, class eap_variable_data_c const *, enum eap_status_e)
	?set_receive_cipher_suite@tls_record_c@@AAE?AW4eap_status_e@@W4tls_cipher_suites_e@@@Z @ 127 NONAME ; enum eap_status_e tls_record_c::set_receive_cipher_suite(enum tls_cipher_suites_e)
	?set_peap_version@tls_record_c@@UAEXW4peap_version_e@@_N1@Z @ 128 NONAME ; void tls_record_c::set_peap_version(enum peap_version_e, bool, bool)
	??0eap_type_tls_peap_state_notification_c@@QAE@PAVabs_eap_am_tools_c@@PBVeap_am_network_id_c@@_NW4eap_state_notification_eap_e@@W4eap_protocol_layer_e@@Veap_expanded_type_c@@KKE2@Z @ 129 NONAME ; eap_type_tls_peap_state_notification_c::eap_type_tls_peap_state_notification_c(class abs_eap_am_tools_c *, class eap_am_network_id_c const *, bool, enum eap_state_notification_eap_e, enum eap_protocol_layer_e, class eap_expanded_type_c, unsigned long, unsigned long, unsigned char, bool)
	?get_state_string@eap_type_tls_peap_c@@ABEPBDXZ @ 130 NONAME ; char const * eap_type_tls_peap_c::get_state_string(void) const
	?get_tls_identity_privacy_handshake_state_string@eap_tls_trace_string_c@@SAPBDW4tls_identity_privacy_handshake_state_e@@@Z @ 131 NONAME ; char const * eap_tls_trace_string_c::get_tls_identity_privacy_handshake_state_string(enum tls_identity_privacy_handshake_state_e)
	??1tls_alert_message_c@@UAE@XZ @ 132 NONAME ; tls_alert_message_c::~tls_alert_message_c(void)
	?cipher_suite_initialization_hmac@tls_record_c@@AAE?AW4eap_status_e@@PAVabs_crypto_hmac_algorithm_c@@PBVeap_variable_data_c@@@Z @ 133 NONAME ; enum eap_status_e tls_record_c::cipher_suite_initialization_hmac(class abs_crypto_hmac_algorithm_c *, class eap_variable_data_c const *)
	?analyse_handshake_type_finished@tls_record_c@@AAE?AW4eap_status_e@@PBVtls_handshake_message_c@@E@Z @ 134 NONAME ; enum eap_status_e tls_record_c::analyse_handshake_type_finished(class tls_handshake_message_c const *, unsigned char)
	?update_payload_indexes@eap_type_tls_peap_c@@AAEXKKKPAK000@Z @ 135 NONAME ; void eap_type_tls_peap_c::update_payload_indexes(unsigned long, unsigned long, unsigned long, unsigned long *, unsigned long *, unsigned long *, unsigned long *)
	?add_record_message@tls_message_c@@QAE?AW4eap_status_e@@PAVtls_record_message_c@@_N1@Z @ 136 NONAME ; enum eap_status_e tls_message_c::add_record_message(class tls_record_message_c *, bool, bool)
	?set_application_data@tls_application_data_message_c@@QAE?AW4eap_status_e@@PBEK@Z @ 137 NONAME ; enum eap_status_e tls_application_data_message_c::set_application_data(unsigned char const *, unsigned long)
	?get_data_length@tls_record_message_c@@QBEKXZ @ 138 NONAME ; unsigned long tls_record_message_c::get_data_length(void) const
	?configure@eap_am_type_tls_peap_symbian_c@@UAE?AW4eap_status_e@@XZ @ 139 NONAME ; enum eap_status_e eap_am_type_tls_peap_symbian_c::configure(void)
	?send_eap_identity_request@dummy_eap_core_c@@QAE?AW4eap_status_e@@PBVeap_am_network_id_c@@@Z @ 140 NONAME ; enum eap_status_e dummy_eap_core_c::send_eap_identity_request(class eap_am_network_id_c const *)
	??1tls_change_cipher_spec_message_c@@UAE@XZ @ 141 NONAME ; tls_change_cipher_spec_message_c::~tls_change_cipher_spec_message_c(void)
	?cancel_query_certificate_authorities_and_types@eap_am_type_tls_peap_symbian_c@@UAE?AW4eap_status_e@@XZ @ 142 NONAME ; enum eap_status_e eap_am_type_tls_peap_symbian_c::cancel_query_certificate_authorities_and_types(void)
	??9eap_diameter_avp_code_c@@QBE_NW4eap_diameter_avp_code_of_ietf_e@@@Z @ 143 NONAME ; bool eap_diameter_avp_code_c::operator!=(enum eap_diameter_avp_code_of_ietf_e) const
	?ttls_server_handles_pap_reply_message@tls_application_eap_core_c@@AAE?AW4eap_status_e@@PAVeap_diameter_payloads_c@@E@Z @ 144 NONAME ; enum eap_status_e tls_application_eap_core_c::ttls_server_handles_pap_reply_message(class eap_diameter_payloads_c *, unsigned char)
	?parse_identity@eap_type_tls_peap_c@@AAE?AW4eap_status_e@@PBEK@Z @ 145 NONAME ; enum eap_status_e eap_type_tls_peap_c::parse_identity(unsigned char const *, unsigned long)
	?parse_diameter_payloads@eap_diameter_payloads_c@@QAE?AW4eap_status_e@@PBVeap_diameter_avp_header_c@@PAK@Z @ 146 NONAME ; enum eap_status_e eap_diameter_payloads_c::parse_diameter_payloads(class eap_diameter_avp_header_c const *, unsigned long *)
	?save_tls_session@eap_am_type_tls_peap_symbian_c@@UAE?AW4eap_status_e@@PBVeap_variable_data_c@@0W4tls_cipher_suites_e@@@Z @ 147 NONAME ; enum eap_status_e eap_am_type_tls_peap_symbian_c::save_tls_session(class eap_variable_data_c const *, class eap_variable_data_c const *, enum tls_cipher_suites_e)
	?cancel_asynchronous_init_remove_eap_session@dummy_eap_core_c@@AAE?AW4eap_status_e@@XZ @ 148 NONAME ; enum eap_status_e dummy_eap_core_c::cancel_asynchronous_init_remove_eap_session(void)
	?set_eap_identifier@eap_tls_peap_header_c@@QAEXE@Z @ 149 NONAME ; void eap_tls_peap_header_c::set_eap_identifier(unsigned char)
	?shutdown@tls_record_c@@UAE?AW4eap_status_e@@XZ @ 150 NONAME ; enum eap_status_e tls_record_c::shutdown(void)
	??0mschapv2_response_c@@QAE@PAVabs_eap_am_tools_c@@PAXK@Z @ 151 NONAME ; mschapv2_response_c::mschapv2_response_c(class abs_eap_am_tools_c *, void *, unsigned long)
	?message_hash_final@tls_record_c@@AAE?AW4eap_status_e@@PAVeap_variable_data_c@@0@Z @ 152 NONAME ; enum eap_status_e tls_record_c::message_hash_final(class eap_variable_data_c *, class eap_variable_data_c *)
	?completion_action_clenup@tls_record_c@@AAE?AW4eap_status_e@@XZ @ 153 NONAME ; enum eap_status_e tls_record_c::completion_action_clenup(void)
	?set_eap_length@eap_tls_peap_header_c@@QAEXG_N@Z @ 154 NONAME ; void eap_tls_peap_header_c::set_eap_length(unsigned short, bool)
	?cipher_suite_is_TLS_DHE_DSS@tls_record_c@@ABE_NXZ @ 155 NONAME ; bool tls_record_c::cipher_suite_is_TLS_DHE_DSS(void) const
	?get_certificate_type_string@eap_tls_trace_string_c@@SAPBDW4tls_certificate_type_e@@@Z @ 156 NONAME ; char const * eap_tls_trace_string_c::get_certificate_type_string(enum tls_certificate_type_e)
	?handle_identity_response_message@eap_type_tls_peap_c@@AAE?AW4eap_status_e@@PAVeap_header_rd_c@@K@Z @ 157 NONAME ; enum eap_status_e eap_type_tls_peap_c::handle_identity_response_message(class eap_header_rd_c *, unsigned long)
	?DlgComplete@eap_am_type_tls_peap_symbian_c@@UAEXH@Z @ 158 NONAME ; void eap_am_type_tls_peap_symbian_c::DlgComplete(int)
	?set_compression_methods@tls_handshake_message_c@@QAE?AW4eap_status_e@@PBV?$eap_array_c@E@@@Z @ 159 NONAME ; enum eap_status_e tls_handshake_message_c::set_compression_methods(class eap_array_c<unsigned char> const *)
	?packet_process_ttls@tls_application_eap_core_c@@AAE?AW4eap_status_e@@PAVeap_variable_data_c@@EPAK@Z @ 160 NONAME ; enum eap_status_e tls_application_eap_core_c::packet_process_ttls(class eap_variable_data_c *, unsigned char, unsigned long *)
	?apply_receive_stream_cipher_suite@tls_record_c@@AAE?AW4eap_status_e@@PAVeap_variable_data_c@@PAVabs_crypto_stream_algorithm_c@@PAVabs_crypto_hmac_algorithm_c@@@Z @ 161 NONAME ; enum eap_status_e tls_record_c::apply_receive_stream_cipher_suite(class eap_variable_data_c *, class abs_crypto_stream_algorithm_c *, class abs_crypto_hmac_algorithm_c *)
	?set_eap_code@eap_tls_peap_header_c@@QAEXW4eap_code_value_e@@@Z @ 162 NONAME ; void eap_tls_peap_header_c::set_eap_code(enum eap_code_value_e)
	?get_payload@eap_diameter_payloads_c@@QAEPAVeap_diameter_variable_data_c@@Veap_diameter_avp_code_c@@@Z @ 163 NONAME ; class eap_diameter_variable_data_c * eap_diameter_payloads_c::get_payload(class eap_diameter_avp_code_c)
	?get_name_length@mschapv2_challenge_c@@QBEKXZ @ 164 NONAME ; unsigned long mschapv2_challenge_c::get_name_length(void) const
	?finish_successfull_authentication_peap_v2@tls_application_eap_core_c@@AAE?AW4eap_status_e@@E@Z @ 165 NONAME ; enum eap_status_e tls_application_eap_core_c::finish_successfull_authentication_peap_v2(unsigned char)
	?set_cipher_suites@tls_handshake_message_c@@QAE?AW4eap_status_e@@PBV?$eap_array_c@G@@@Z @ 166 NONAME ; enum eap_status_e tls_handshake_message_c::set_cipher_suites(class eap_array_c<unsigned short> const *)
	?complete_verify_with_public_key@tls_record_c@@UAE?AW4eap_status_e@@W42@@Z @ 167 NONAME ; enum eap_status_e tls_record_c::complete_verify_with_public_key(enum eap_status_e)
	?send_eap_notification_response@dummy_eap_core_c@@AAE?AW4eap_status_e@@PBVeap_am_network_id_c@@E@Z @ 168 NONAME ; enum eap_status_e dummy_eap_core_c::send_eap_notification_response(class eap_am_network_id_c const *, unsigned char)
	?get_tls_message_data@tls_message_c@@QAEPAVeap_variable_data_c@@XZ @ 169 NONAME ; class eap_variable_data_c * tls_message_c::get_tls_message_data(void)
	?create_nonce@tls_application_eap_core_c@@AAE?AW4eap_status_e@@PAVeap_variable_data_c@@@Z @ 170 NONAME ; enum eap_status_e tls_application_eap_core_c::create_nonce(class eap_variable_data_c *)
	??1eap_tls_peap_header_c@@UAE@XZ @ 171 NONAME ; eap_tls_peap_header_c::~eap_tls_peap_header_c(void)
	?create_result_tlv_message@tls_application_eap_core_c@@AAE?AW4eap_status_e@@PAVeap_buf_chain_wr_c@@W4eap_code_value_e@@EW4tls_peap_tlv_type_e@@@Z @ 172 NONAME ; enum eap_status_e tls_application_eap_core_c::create_result_tlv_message(class eap_buf_chain_wr_c *, enum eap_code_value_e, unsigned char, enum tls_peap_tlv_type_e)
	?shutdown@tls_application_eap_core_c@@UAE?AW4eap_status_e@@XZ @ 173 NONAME ; enum eap_status_e tls_application_eap_core_c::shutdown(void)
	?complete_eap_identity_query@dummy_eap_core_c@@UAE?AW4eap_status_e@@PBVeap_am_network_id_c@@PBVeap_variable_data_c@@E@Z @ 174 NONAME ; enum eap_status_e dummy_eap_core_c::complete_eap_identity_query(class eap_am_network_id_c const *, class eap_variable_data_c const *, unsigned char)
	??4eap_diameter_avp_code_c@@QAEAAV0@W4eap_diameter_avp_code_of_ietf_e@@@Z @ 175 NONAME ; class eap_diameter_avp_code_c & eap_diameter_avp_code_c::operator=(enum eap_diameter_avp_code_of_ietf_e)
	??4eap_diameter_avp_code_c@@QAEAAV0@ABV0@@Z @ 176 NONAME ; class eap_diameter_avp_code_c & eap_diameter_avp_code_c::operator=(class eap_diameter_avp_code_c const &)
	?set_state@eap_type_tls_peap_c@@AAEXW4eap_type_tls_peap_state_variable_e@@@Z @ 177 NONAME ; void eap_type_tls_peap_c::set_state(enum eap_type_tls_peap_state_variable_e)
	?set_send_cipher_suite@tls_record_c@@AAE?AW4eap_status_e@@W4tls_cipher_suites_e@@@Z @ 178 NONAME ; enum eap_status_e tls_record_c::set_send_cipher_suite(enum tls_cipher_suites_e)
	?packet_process@tls_application_eap_core_c@@UAE?AW4eap_status_e@@PAVeap_variable_data_c@@E@Z @ 179 NONAME ; enum eap_status_e tls_application_eap_core_c::packet_process(class eap_variable_data_c *, unsigned char)
	?get_nai_realm@eap_type_tls_peap_c@@AAEPAVeap_variable_data_c@@XZ @ 180 NONAME ; class eap_variable_data_c * eap_type_tls_peap_c::get_nai_realm(void)
	??0mschapv2_change_password_c@@QAE@PAVabs_eap_am_tools_c@@PAXK@Z @ 181 NONAME ; mschapv2_change_password_c::mschapv2_change_password_c(class abs_eap_am_tools_c *, void *, unsigned long)
	?load_type@dummy_eap_core_c@@QAEPAVeap_base_type_c@@Veap_expanded_type_c@@0PBVeap_am_network_id_c@@@Z @ 182 NONAME ; class eap_base_type_c * dummy_eap_core_c::load_type(class eap_expanded_type_c, class eap_expanded_type_c, class eap_am_network_id_c const *)
	?add_rogue_ap@tls_record_c@@UAE?AW4eap_status_e@@AAV?$eap_array_c@Veap_rogue_ap_entry_c@@@@@Z @ 183 NONAME ; enum eap_status_e tls_record_c::add_rogue_ap(class eap_array_c<class eap_rogue_ap_entry_c> &)
	?set_flag_more_fragments@eap_tls_peap_header_c@@QAEX_N@Z @ 184 NONAME ; void eap_tls_peap_header_c::set_flag_more_fragments(bool)
	?timer_expired@eap_am_type_tls_peap_symbian_c@@UAE?AW4eap_status_e@@KPAX@Z @ 185 NONAME ; enum eap_status_e eap_am_type_tls_peap_symbian_c::timer_expired(unsigned long, void *)
	?set_flag_start@eap_tls_peap_header_c@@QAEX_N@Z @ 186 NONAME ; void eap_tls_peap_header_c::set_flag_start(bool)
	?set_tls_flag_bit@eap_tls_peap_header_c@@QBEX_NK@Z @ 187 NONAME ; void eap_tls_peap_header_c::set_tls_flag_bit(bool, unsigned long) const
	?check_NAI@eap_type_tls_peap_c@@AAE?AW4eap_status_e@@PBEK0@Z @ 188 NONAME ; enum eap_status_e eap_type_tls_peap_c::check_NAI(unsigned char const *, unsigned long, unsigned char const *)
	?send_ttls_ms_chapv2_packet@tls_application_eap_core_c@@AAE?AW4eap_status_e@@PAVeap_header_wr_c@@@Z @ 189 NONAME ; enum eap_status_e tls_application_eap_core_c::send_ttls_ms_chapv2_packet(class eap_header_wr_c *)
	?check_selected_cipher_suite@tls_record_c@@AAE?AW4eap_status_e@@W4tls_cipher_suites_e@@@Z @ 190 NONAME ; enum eap_status_e tls_record_c::check_selected_cipher_suite(enum tls_cipher_suites_e)
	?packet_send@eap_type_tls_peap_c@@QAE?AW4eap_status_e@@PBVeap_am_network_id_c@@PAVeap_buf_chain_wr_c@@KKK@Z @ 191 NONAME ; enum eap_status_e eap_type_tls_peap_c::packet_send(class eap_am_network_id_c const *, class eap_buf_chain_wr_c *, unsigned long, unsigned long, unsigned long)
	?set_dhe_prime@tls_handshake_message_c@@QAE?AW4eap_status_e@@PBVeap_variable_data_c@@@Z @ 192 NONAME ; enum eap_status_e tls_handshake_message_c::set_dhe_prime(class eap_variable_data_c const *)
	?send_tunneled_acknowledge_peap_v2@tls_application_eap_core_c@@AAE?AW4eap_status_e@@W4eap_code_value_e@@E@Z @ 193 NONAME ; enum eap_status_e tls_application_eap_core_c::send_tunneled_acknowledge_peap_v2(enum eap_code_value_e, unsigned char)
	?get_alert@tls_record_message_c@@QBEPBVtls_alert_message_c@@K@Z @ 194 NONAME ; class tls_alert_message_c const * tls_record_message_c::get_alert(unsigned long) const
	?shutdown@eap_am_type_tls_peap_symbian_c@@UAE?AW4eap_status_e@@XZ @ 195 NONAME ; enum eap_status_e eap_am_type_tls_peap_symbian_c::shutdown(void)
	?get_is_valid@tls_record_message_c@@QAE_NXZ @ 196 NONAME ; bool tls_record_message_c::get_is_valid(void)
	?set_peer_challenge@mschapv2_response_c@@QAEXPBE@Z @ 197 NONAME ; void mschapv2_response_c::set_peer_challenge(unsigned char const *)
	?set_buffer@peap_tlv_variable_data_c@@QAE?AW4eap_status_e@@PBVtls_peap_tlv_header_c@@PAEK_N2@Z @ 198 NONAME ; enum eap_status_e peap_tlv_variable_data_c::set_buffer(class tls_peap_tlv_header_c const *, unsigned char *, unsigned long, bool, bool)
	?get_peer_challenge@mschapv2_response_c@@QBEPBEXZ @ 199 NONAME ; unsigned char const * mschapv2_response_c::get_peer_challenge(void) const
	??0peap_tlv_variable_data_c@@QAE@PAVabs_eap_am_tools_c@@@Z @ 200 NONAME ; peap_tlv_variable_data_c::peap_tlv_variable_data_c(class abs_eap_am_tools_c *)
	?cancel_query_realm@eap_am_type_tls_peap_symbian_c@@UAE?AW4eap_status_e@@XZ @ 201 NONAME ; enum eap_status_e eap_am_type_tls_peap_symbian_c::cancel_query_realm(void)
	?packet_data_crypto_keys@tls_record_c@@UAE?AW4eap_status_e@@PBVeap_am_network_id_c@@PBVeap_master_session_key_c@@@Z @ 202 NONAME ; enum eap_status_e tls_record_c::packet_data_crypto_keys(class eap_am_network_id_c const *, class eap_master_session_key_c const *)
	?type_configure_write@eap_am_type_tls_peap_symbian_c@@UAE?AW4eap_status_e@@PBVeap_configuration_field_c@@PAVeap_variable_data_c@@@Z @ 203 NONAME ; enum eap_status_e eap_am_type_tls_peap_symbian_c::type_configure_write(class eap_configuration_field_c const *, class eap_variable_data_c *)
	?create_handshake_type_hello_request@tls_record_c@@AAE?AW4eap_status_e@@XZ @ 204 NONAME ; enum eap_status_e tls_record_c::create_handshake_type_hello_request(void)
	?get_start_offset_of_data@eap_tls_peap_header_c@@QBEKXZ @ 205 NONAME ; unsigned long eap_tls_peap_header_c::get_start_offset_of_data(void) const
	?parse_handshake_type_certificate@tls_record_c@@AAE?AW4eap_status_e@@PAVtls_record_message_c@@PAVtls_handshake_header_c@@K@Z @ 206 NONAME ; enum eap_status_e tls_record_c::parse_handshake_type_certificate(class tls_record_message_c *, class tls_handshake_header_c *, unsigned long)
	?parse_generic_payload@tls_application_eap_core_c@@AAE?AW4eap_status_e@@W4tls_peap_tlv_type_e@@PBVtls_peap_tlv_header_c@@PAVpeap_tlv_payloads_c@@@Z @ 207 NONAME ; enum eap_status_e tls_application_eap_core_c::parse_generic_payload(enum tls_peap_tlv_type_e, class tls_peap_tlv_header_c const *, class peap_tlv_payloads_c *)
	?add_message_data@tls_handshake_message_c@@QAE?AW4eap_status_e@@PAVeap_variable_data_c@@@Z @ 208 NONAME ; enum eap_status_e tls_handshake_message_c::add_message_data(class eap_variable_data_c *)
	?get_tls_min_header_length@eap_tls_peap_header_c@@QBEKXZ @ 209 NONAME ; unsigned long eap_tls_peap_header_c::get_tls_min_header_length(void) const
	?verify_certificate_chain@eap_am_type_tls_peap_symbian_c@@UAE?AW4eap_status_e@@PBV?$eap_array_c@Veap_variable_data_c@@@@W4tls_cipher_suites_e@@@Z @ 210 NONAME ; enum eap_status_e eap_am_type_tls_peap_symbian_c::verify_certificate_chain(class eap_array_c<class eap_variable_data_c> const *, enum tls_cipher_suites_e)
	?get_flag_more_fragments@eap_tls_peap_header_c@@QBE_NXZ @ 211 NONAME ; bool eap_tls_peap_header_c::get_flag_more_fragments(void) const
	?select_cipher_suite_and_check_session_id@eap_am_type_tls_peap_symbian_c@@UAE?AW4eap_status_e@@PBV?$eap_array_c@G@@PBVeap_variable_data_c@@@Z @ 212 NONAME ; enum eap_status_e eap_am_type_tls_peap_symbian_c::select_cipher_suite_and_check_session_id(class eap_array_c<unsigned short> const *, class eap_variable_data_c const *)
	?packet_send@dummy_eap_core_c@@UAE?AW4eap_status_e@@PBVeap_am_network_id_c@@PAVeap_buf_chain_wr_c@@KKK@Z @ 213 NONAME ; enum eap_status_e dummy_eap_core_c::packet_send(class eap_am_network_id_c const *, class eap_buf_chain_wr_c *, unsigned long, unsigned long, unsigned long)
	?ttls_tunneled_message_state_process_identity_request@tls_application_eap_core_c@@AAE?AW4eap_status_e@@PAVeap_header_wr_c@@@Z @ 214 NONAME ; enum eap_status_e tls_application_eap_core_c::ttls_tunneled_message_state_process_identity_request(class eap_header_wr_c *)
	?analyse_tls_protocol_application_data@tls_record_c@@AAE?AW4eap_status_e@@PBVtls_record_message_c@@E@Z @ 215 NONAME ; enum eap_status_e tls_record_c::analyse_tls_protocol_application_data(class tls_record_message_c const *, unsigned char)
	?packet_process_peap_v1@tls_application_eap_core_c@@AAE?AW4eap_status_e@@PAVeap_variable_data_c@@EPAK@Z @ 216 NONAME ; enum eap_status_e tls_application_eap_core_c::packet_process_peap_v1(class eap_variable_data_c *, unsigned char, unsigned long *)
	?set_reassembly_state@eap_type_tls_peap_c@@AAEXW4eap_type_tls_peap_reassembly_state_e@@@Z @ 217 NONAME ; void eap_type_tls_peap_c::set_reassembly_state(enum eap_type_tls_peap_reassembly_state_e)
	?get_eap_type_list@eap_am_type_tls_peap_symbian_c@@EAE?AW4eap_status_e@@PAV?$eap_array_c@Veap_expanded_type_c@@@@@Z @ 218 NONAME ; enum eap_status_e eap_am_type_tls_peap_symbian_c::get_eap_type_list(class eap_array_c<class eap_expanded_type_c> *)
	??1eap_type_tls_peap_c@@UAE@XZ @ 219 NONAME ; eap_type_tls_peap_c::~eap_type_tls_peap_c(void)
	?ttls_server_handles_ms_chapv2_change_password@tls_application_eap_core_c@@AAE?AW4eap_status_e@@PAVeap_diameter_payloads_c@@E@Z @ 220 NONAME ; enum eap_status_e tls_application_eap_core_c::ttls_server_handles_ms_chapv2_change_password(class eap_diameter_payloads_c *, unsigned char)
	??1peap_tlv_payloads_c@@UAE@XZ @ 221 NONAME ; peap_tlv_payloads_c::~peap_tlv_payloads_c(void)
	?shutdown@dummy_eap_core_c@@UAE?AW4eap_status_e@@XZ @ 222 NONAME ; enum eap_status_e dummy_eap_core_c::shutdown(void)
	?add_rogue_ap@eap_type_tls_peap_c@@UAE?AW4eap_status_e@@AAV?$eap_array_c@Veap_rogue_ap_entry_c@@@@@Z @ 223 NONAME ; enum eap_status_e eap_type_tls_peap_c::add_rogue_ap(class eap_array_c<class eap_rogue_ap_entry_c> &)
	?set_tls_am_partner@eap_am_type_tls_peap_symbian_c@@UAEXPAVabs_tls_am_services_c@@@Z @ 224 NONAME ; void eap_am_type_tls_peap_symbian_c::set_tls_am_partner(class abs_tls_am_services_c *)
	??0tls_completion_c@@QAE@PAVabs_eap_am_tools_c@@W4tls_completion_action_e@@@Z @ 225 NONAME ; tls_completion_c::tls_completion_c(class abs_eap_am_tools_c *, enum tls_completion_action_e)
	?set_peap_version@tls_application_eap_core_c@@UAEXW4peap_version_e@@_N1@Z @ 226 NONAME ; void tls_application_eap_core_c::set_peap_version(enum peap_version_e, bool, bool)
	?get_send_network_id@eap_type_tls_peap_c@@AAEPAVeap_am_network_id_c@@XZ @ 227 NONAME ; class eap_am_network_id_c * eap_type_tls_peap_c::get_send_network_id(void)
	?restart_authentication@tls_record_c@@UAE?AW4eap_status_e@@PBVeap_am_network_id_c@@_N11@Z @ 228 NONAME ; enum eap_status_e tls_record_c::restart_authentication(class eap_am_network_id_c const *, bool, bool, bool)
	?packet_send@tls_application_eap_core_c@@UAE?AW4eap_status_e@@PBVeap_am_network_id_c@@PAVeap_buf_chain_wr_c@@KKK@Z @ 229 NONAME ; enum eap_status_e tls_application_eap_core_c::packet_send(class eap_am_network_id_c const *, class eap_buf_chain_wr_c *, unsigned long, unsigned long, unsigned long)
	?get_last_eap_identifier@eap_type_tls_peap_c@@ABEEXZ @ 230 NONAME ; unsigned char eap_type_tls_peap_c::get_last_eap_identifier(void) const
	?cancel_select_cipher_suite_and_check_session_id@eap_am_type_tls_peap_symbian_c@@UAE?AW4eap_status_e@@XZ @ 231 NONAME ; enum eap_status_e eap_am_type_tls_peap_symbian_c::cancel_select_cipher_suite_and_check_session_id(void)
	?read_authority_identity@tls_application_eap_core_c@@UAE?AW4eap_status_e@@PAVeap_variable_data_c@@@Z @ 232 NONAME ; enum eap_status_e tls_application_eap_core_c::read_authority_identity(class eap_variable_data_c *)
	??Ieap_diameter_avp_code_c@@QBEPBV0@XZ @ 233 NONAME ; class eap_diameter_avp_code_c const * eap_diameter_avp_code_c::operator&(void) const
	?create_eap_identity_response@dummy_eap_core_c@@AAE?AW4eap_status_e@@PAVeap_buf_chain_wr_c@@PBVeap_variable_data_c@@E@Z @ 234 NONAME ; enum eap_status_e dummy_eap_core_c::create_eap_identity_response(class eap_buf_chain_wr_c *, class eap_variable_data_c const *, unsigned char)
	??1eap_diameter_avp_code_c@@QAE@XZ @ 235 NONAME ; eap_diameter_avp_code_c::~eap_diameter_avp_code_c(void)
	?select_peap_version@eap_type_tls_peap_c@@AAE?AW4eap_status_e@@K@Z @ 236 NONAME ; enum eap_status_e eap_type_tls_peap_c::select_peap_version(unsigned long)
	?get_parsed_record@tls_record_message_c@@QBE_NXZ @ 237 NONAME ; bool tls_record_message_c::get_parsed_record(void) const
	?create_handshake_type_certificate_verify@tls_record_c@@AAE?AW4eap_status_e@@XZ @ 238 NONAME ; enum eap_status_e tls_record_c::create_handshake_type_certificate_verify(void)
	?analyse_tls_protocol_handshake@tls_record_c@@AAE?AW4eap_status_e@@PAVtls_record_message_c@@E@Z @ 239 NONAME ; enum eap_status_e tls_record_c::analyse_tls_protocol_handshake(class tls_record_message_c *, unsigned char)
	?write_configure@tls_application_eap_core_c@@UAE?AW4eap_status_e@@PBVeap_configuration_field_c@@PAVeap_variable_data_c@@@Z @ 240 NONAME ; enum eap_status_e tls_application_eap_core_c::write_configure(class eap_configuration_field_c const *, class eap_variable_data_c *)
	?set_encrypted_pw_block@mschapv2_change_password_c@@QAEXPBE@Z @ 241 NONAME ; void mschapv2_change_password_c::set_encrypted_pw_block(unsigned char const *)
	?get_version@tls_record_message_c@@QBE?AW4tls_version_e@@XZ @ 242 NONAME ; enum tls_version_e tls_record_message_c::get_version(void) const
	??0eap_type_tls_peap_state_notification_c@@QAE@PAVabs_eap_am_tools_c@@PBVeap_am_network_id_c@@_NW4eap_state_notification_generic_e@@W4eap_protocol_layer_e@@KKKE2@Z @ 243 NONAME ; eap_type_tls_peap_state_notification_c::eap_type_tls_peap_state_notification_c(class abs_eap_am_tools_c *, class eap_am_network_id_c const *, bool, enum eap_state_notification_generic_e, enum eap_protocol_layer_e, unsigned long, unsigned long, unsigned long, unsigned char, bool)
	?set_encrypted_hash@mschapv2_change_password_c@@QAEXPBE@Z @ 244 NONAME ; void mschapv2_change_password_c::set_encrypted_hash(unsigned char const *)
	?get_flag_start@eap_tls_peap_header_c@@QBE_NXZ @ 245 NONAME ; bool eap_tls_peap_header_c::get_flag_start(void) const
	?get_encrypted_hash@mschapv2_change_password_c@@QBEPBEXZ @ 246 NONAME ; unsigned char const * mschapv2_change_password_c::get_encrypted_hash(void) const
	?set_nai_realm@tls_record_c@@UAE?AW4eap_status_e@@PBVeap_variable_data_c@@@Z @ 247 NONAME ; enum eap_status_e tls_record_c::set_nai_realm(class eap_variable_data_c const *)
	?unload_module@tls_application_eap_core_c@@UAE?AW4eap_status_e@@Veap_expanded_type_c@@@Z @ 248 NONAME ; enum eap_status_e tls_application_eap_core_c::unload_module(class eap_expanded_type_c)
	?tls_peap_packet_process@eap_type_tls_peap_c@@QAE?AW4eap_status_e@@PBVeap_am_network_id_c@@PAVeap_tls_peap_header_c@@K@Z @ 249 NONAME ; enum eap_status_e eap_type_tls_peap_c::tls_peap_packet_process(class eap_am_network_id_c const *, class eap_tls_peap_header_c *, unsigned long)
	?add_alert_message@tls_record_message_c@@QAE?AW4eap_status_e@@PAVtls_alert_message_c@@_N@Z @ 250 NONAME ; enum eap_status_e tls_record_message_c::add_alert_message(class tls_alert_message_c *, bool)
	?save_user_authorization_pac_opaque@tls_application_eap_core_c@@UAE?AW4eap_status_e@@PBVtls_extension_c@@@Z @ 251 NONAME ; enum eap_status_e tls_application_eap_core_c::save_user_authorization_pac_opaque(class tls_extension_c const *)
	?get_handshake_count@tls_record_message_c@@QBEKXZ @ 252 NONAME ; unsigned long tls_record_message_c::get_handshake_count(void) const
	?get_eap_type_list@tls_application_eap_core_c@@UAE?AW4eap_status_e@@PAV?$eap_array_c@Veap_expanded_type_c@@@@@Z @ 253 NONAME ; enum eap_status_e tls_application_eap_core_c::get_eap_type_list(class eap_array_c<class eap_expanded_type_c> *)
	?get_code_data@eap_diameter_avp_code_c@@QAE?AW4eap_status_e@@PAVabs_eap_am_tools_c@@PAW4eap_diameter_avp_code_of_ietf_e@@@Z @ 254 NONAME ; enum eap_status_e eap_diameter_avp_code_c::get_code_data(class abs_eap_am_tools_c *, enum eap_diameter_avp_code_of_ietf_e *)
	?get_alert_description_string@eap_tls_trace_string_c@@SAPBDW4tls_alert_description_e@@@Z @ 255 NONAME ; char const * eap_tls_trace_string_c::get_alert_description_string(enum tls_alert_description_e)
	?get_is_valid@tls_application_eap_core_c@@UAE_NXZ @ 256 NONAME ; bool tls_application_eap_core_c::get_is_valid(void)
	?get_dhe_prime@tls_handshake_message_c@@QBEPBVeap_variable_data_c@@XZ @ 257 NONAME ; class eap_variable_data_c const * tls_handshake_message_c::get_dhe_prime(void) const
	?check_header@eap_tls_peap_header_c@@QBE?AW4eap_status_e@@PAVabs_eap_am_tools_c@@Veap_expanded_type_c@@_NW4peap_version_e@@2@Z @ 258 NONAME ; enum eap_status_e eap_tls_peap_header_c::check_header(class abs_eap_am_tools_c *, class eap_expanded_type_c, bool, enum peap_version_e, bool) const
	?ttls_server_handles_pap_response@tls_application_eap_core_c@@AAE?AW4eap_status_e@@PAVeap_diameter_payloads_c@@E@Z @ 259 NONAME ; enum eap_status_e tls_application_eap_core_c::ttls_server_handles_pap_response(class eap_diameter_payloads_c *, unsigned char)
	?trace_eap_packet@dummy_eap_core_c@@QAEXPBDPBVeap_header_wr_c@@@Z @ 260 NONAME ; void dummy_eap_core_c::trace_eap_packet(char const *, class eap_header_wr_c const *)
	?send_eap_nak_response@dummy_eap_core_c@@QAE?AW4eap_status_e@@PBVeap_am_network_id_c@@EPBV?$eap_array_c@Veap_expanded_type_c@@@@@Z @ 261 NONAME ; enum eap_status_e dummy_eap_core_c::send_eap_nak_response(class eap_am_network_id_c const *, unsigned char, class eap_array_c<class eap_expanded_type_c> const *)
	?state_notification@eap_type_tls_peap_c@@UAEXPBVabs_eap_state_notification_c@@@Z @ 262 NONAME ; void eap_type_tls_peap_c::state_notification(class abs_eap_state_notification_c const *)
	??1eap_tls_trace_string_c@@UAE@XZ @ 263 NONAME ; eap_tls_trace_string_c::~eap_tls_trace_string_c(void)
	?query_certificate_chain@eap_am_type_tls_peap_symbian_c@@UAE?AW4eap_status_e@@PBV?$eap_array_c@Veap_variable_data_c@@@@PBV?$eap_array_c@E@@W4tls_cipher_suites_e@@@Z @ 264 NONAME ; enum eap_status_e eap_am_type_tls_peap_symbian_c::query_certificate_chain(class eap_array_c<class eap_variable_data_c> const *, class eap_array_c<unsigned char> const *, enum tls_cipher_suites_e)
	?start_peap_tunneled_authentication@tls_record_c@@EAE?AW4eap_status_e@@PBVeap_am_network_id_c@@EW4tls_session_type_e@@@Z @ 265 NONAME ; enum eap_status_e tls_record_c::start_peap_tunneled_authentication(class eap_am_network_id_c const *, unsigned char, enum tls_session_type_e)
	?get_completion_action@tls_completion_c@@QBE?AW4tls_completion_action_e@@XZ @ 266 NONAME ; enum tls_completion_action_e tls_completion_c::get_completion_action(void) const
	?add_record_message@tls_record_c@@AAE?AW4eap_status_e@@PAVtls_application_data_message_c@@@Z @ 267 NONAME ; enum eap_status_e tls_record_c::add_record_message(class tls_application_data_message_c *)
	?get_is_tunneled_eap@dummy_eap_core_c@@UBE_NXZ @ 268 NONAME ; bool dummy_eap_core_c::get_is_tunneled_eap(void) const
	?set_nt_response@mschapv2_response_c@@QAEXPBE@Z @ 269 NONAME ; void mschapv2_response_c::set_nt_response(unsigned char const *)
	?start_ttls_tunneled_authentication@tls_application_eap_core_c@@UAE?AW4eap_status_e@@PBVeap_am_network_id_c@@E@Z @ 270 NONAME ; enum eap_status_e tls_application_eap_core_c::start_ttls_tunneled_authentication(class eap_am_network_id_c const *, unsigned char)
	?object_increase_reference_count@dummy_eap_core_c@@QAEXXZ @ 271 NONAME ; void dummy_eap_core_c::object_increase_reference_count(void)
	?state_notification@dummy_eap_core_c@@UAEXPBVabs_eap_state_notification_c@@@Z @ 272 NONAME ; void dummy_eap_core_c::state_notification(class abs_eap_state_notification_c const *)
	?load_module@tls_application_eap_core_c@@UAE?AW4eap_status_e@@Veap_expanded_type_c@@0PAVabs_eap_base_type_c@@PAPAVeap_base_type_c@@_NPBVeap_am_network_id_c@@@Z @ 273 NONAME ; enum eap_status_e tls_application_eap_core_c::load_module(class eap_expanded_type_c, class eap_expanded_type_c, class abs_eap_base_type_c *, class eap_base_type_c * *, bool, class eap_am_network_id_c const *)
	?set_certificate_chain@tls_handshake_message_c@@QAE?AW4eap_status_e@@PBV?$eap_array_c@Veap_variable_data_c@@@@@Z @ 274 NONAME ; enum eap_status_e tls_handshake_message_c::set_certificate_chain(class eap_array_c<class eap_variable_data_c> const *)
	?ttls_tunneled_message_state_process_change_password_response@tls_application_eap_core_c@@AAE?AW4eap_status_e@@PAVeap_header_wr_c@@@Z @ 275 NONAME ; enum eap_status_e tls_application_eap_core_c::ttls_tunneled_message_state_process_change_password_response(class eap_header_wr_c *)
	?get_original_header@peap_tlv_variable_data_c@@QBEPBVtls_peap_tlv_header_c@@XZ @ 276 NONAME ; class tls_peap_tlv_header_c const * peap_tlv_variable_data_c::get_original_header(void) const
	?get_alert_count@tls_record_message_c@@QBEKXZ @ 277 NONAME ; unsigned long tls_record_message_c::get_alert_count(void) const
	?set_parsed_record@tls_record_message_c@@QAEXXZ @ 278 NONAME ; void tls_record_message_c::set_parsed_record(void)
	?get_saved_previous_state_string@eap_type_tls_peap_c@@ABEPBDXZ @ 279 NONAME ; char const * eap_type_tls_peap_c::get_saved_previous_state_string(void) const
	?unload_module@tls_record_c@@UAE?AW4eap_status_e@@Veap_expanded_type_c@@@Z @ 280 NONAME ; enum eap_status_e tls_record_c::unload_module(class eap_expanded_type_c)
	?get_handshake_type@tls_handshake_message_c@@QBE?AW4tls_handshake_type_e@@XZ @ 281 NONAME ; enum tls_handshake_type_e tls_handshake_message_c::get_handshake_type(void) const
	?set_state@tls_record_c@@AAEXW4tls_peap_state_e@@@Z @ 282 NONAME ; void tls_record_c::set_state(enum tls_peap_state_e)
	?get_flag_version@eap_tls_peap_header_c@@QBEEXZ @ 283 NONAME ; unsigned char eap_tls_peap_header_c::get_flag_version(void) const
	?get_challenge@mschapv2_challenge_c@@QBEPBEXZ @ 284 NONAME ; unsigned char const * mschapv2_challenge_c::get_challenge(void) const
	?message_hash_save_finished@tls_record_c@@EAE?AW4eap_status_e@@_N@Z @ 285 NONAME ; enum eap_status_e tls_record_c::message_hash_save_finished(bool)
	?ttls_client_handles_ms_chapv2_error@tls_application_eap_core_c@@AAE?AW4eap_status_e@@PAVeap_diameter_payloads_c@@E@Z @ 286 NONAME ; enum eap_status_e tls_application_eap_core_c::ttls_client_handles_ms_chapv2_error(class eap_diameter_payloads_c *, unsigned char)
	?query_tunnel_PAC@tls_application_eap_core_c@@UAE?AW4eap_status_e@@PBVeap_fast_variable_data_c@@@Z @ 287 NONAME ; enum eap_status_e tls_application_eap_core_c::query_tunnel_PAC(class eap_fast_variable_data_c const *)
	?send_eap_identity_response@dummy_eap_core_c@@AAE?AW4eap_status_e@@PBVeap_am_network_id_c@@PBVeap_variable_data_c@@E@Z @ 288 NONAME ; enum eap_status_e dummy_eap_core_c::send_eap_identity_response(class eap_am_network_id_c const *, class eap_variable_data_c const *, unsigned char)
	?set_selected_cipher_suite@tls_handshake_message_c@@QAE?AW4eap_status_e@@W4tls_cipher_suites_e@@@Z @ 289 NONAME ; enum eap_status_e tls_handshake_message_c::set_selected_cipher_suite(enum tls_cipher_suites_e)
	??1tls_base_application_c@@UAE@XZ @ 290 NONAME ; tls_base_application_c::~tls_base_application_c(void)
	?is_ttls_pap_session_valid@eap_am_type_tls_peap_symbian_c@@UAE_NXZ @ 291 NONAME ; bool eap_am_type_tls_peap_symbian_c::is_ttls_pap_session_valid(void)
	?get_analyse_index@tls_message_c@@QBEKXZ @ 292 NONAME ; unsigned long tls_message_c::get_analyse_index(void) const
	?set_alert_description@tls_alert_message_c@@QAE?AW4eap_status_e@@W4tls_alert_description_e@@@Z @ 293 NONAME ; enum eap_status_e tls_alert_message_c::set_alert_description(enum tls_alert_description_e)
	?message_hash_create_finished@tls_record_c@@EAE?AW4eap_status_e@@_NPAVeap_variable_data_c@@@Z @ 294 NONAME ; enum eap_status_e tls_record_c::message_hash_create_finished(bool, class eap_variable_data_c *)
	?packet_process@dummy_eap_core_c@@UAE?AW4eap_status_e@@PBVeap_am_network_id_c@@PAVeap_general_header_base_c@@K@Z @ 295 NONAME ; enum eap_status_e dummy_eap_core_c::packet_process(class eap_am_network_id_c const *, class eap_general_header_base_c *, unsigned long)
	?set_name@mschapv2_response_c@@QAEXPBE@Z @ 296 NONAME ; void mschapv2_response_c::set_name(unsigned char const *)
	?get_is_valid@tls_record_c@@UAE_NXZ @ 297 NONAME ; bool tls_record_c::get_is_valid(void)
	?get_tls_flags_offset@eap_tls_peap_header_c@@QBEKXZ @ 298 NONAME ; unsigned long eap_tls_peap_header_c::get_tls_flags_offset(void) const
	?set_session_timeout@dummy_eap_core_c@@UAE?AW4eap_status_e@@K@Z @ 299 NONAME ; enum eap_status_e dummy_eap_core_c::set_session_timeout(unsigned long)
	?reset@peap_tlv_payloads_c@@QAEXXZ @ 300 NONAME ; void peap_tlv_payloads_c::reset(void)
	?reset@tls_record_c@@UAE?AW4eap_status_e@@XZ @ 301 NONAME ; enum eap_status_e tls_record_c::reset(void)
	?set_opcode@mschapv2_header_c@@QAEXW4mschapv2_opcode_e@@@Z @ 302 NONAME ; void mschapv2_header_c::set_opcode(enum mschapv2_opcode_e)
	?cancel_rsa_encrypt_with_public_key@eap_am_type_tls_peap_symbian_c@@UAE?AW4eap_status_e@@XZ @ 303 NONAME ; enum eap_status_e eap_am_type_tls_peap_symbian_c::cancel_rsa_encrypt_with_public_key(void)
	?set_is_valid@tls_alert_message_c@@AAEXXZ @ 304 NONAME ; void tls_alert_message_c::set_is_valid(void)
	?get_cipher_suites@tls_handshake_message_c@@QBEPBV?$eap_array_c@G@@XZ @ 305 NONAME ; class eap_array_c<unsigned short> const * tls_handshake_message_c::get_cipher_suites(void) const
	?handle_eap_identity_request@dummy_eap_core_c@@AAE?AW4eap_status_e@@Veap_expanded_type_c@@EPBVeap_am_network_id_c@@@Z @ 306 NONAME ; enum eap_status_e dummy_eap_core_c::handle_eap_identity_request(class eap_expanded_type_c, unsigned char, class eap_am_network_id_c const *)
	?query_eap_identity@eap_am_type_tls_peap_symbian_c@@UAE?AW4eap_status_e@@PAVeap_variable_data_c@@PBVeap_am_network_id_c@@EPA_N020@Z @ 307 NONAME ; enum eap_status_e eap_am_type_tls_peap_symbian_c::query_eap_identity(class eap_variable_data_c *, class eap_am_network_id_c const *, unsigned char, bool *, class eap_variable_data_c *, bool *, class eap_variable_data_c *)
	?get_intermediate_result_tlv@peap_tlv_payloads_c@@QAEPAVpeap_tlv_variable_data_c@@XZ @ 308 NONAME ; class peap_tlv_variable_data_c * peap_tlv_payloads_c::get_intermediate_result_tlv(void)
	?check_ttls_eap_payloads@tls_application_eap_core_c@@AAE?AW4eap_status_e@@PAVeap_diameter_payloads_c@@PAW4eap_ttls_tunneled_message_type_e@@@Z @ 309 NONAME ; enum eap_status_e tls_application_eap_core_c::check_ttls_eap_payloads(class eap_diameter_payloads_c *, enum eap_ttls_tunneled_message_type_e *)
	?complete_verify_ttls_pap_username_and_password@tls_application_eap_core_c@@UAE?AW4eap_status_e@@W42@PBVeap_variable_data_c@@@Z @ 310 NONAME ; enum eap_status_e tls_application_eap_core_c::complete_verify_ttls_pap_username_and_password(enum eap_status_e, class eap_variable_data_c const *)
	?handle_eap_identity_response@dummy_eap_core_c@@AAE?AW4eap_status_e@@PAVeap_base_type_c@@Veap_expanded_type_c@@PBVeap_am_network_id_c@@PAVeap_header_wr_c@@K@Z @ 311 NONAME ; enum eap_status_e dummy_eap_core_c::handle_eap_identity_response(class eap_base_type_c *, class eap_expanded_type_c, class eap_am_network_id_c const *, class eap_header_wr_c *, unsigned long)
	?get_certificate_authorities@tls_handshake_message_c@@QBEPBV?$eap_array_c@Veap_variable_data_c@@@@XZ @ 312 NONAME ; class eap_array_c<class eap_variable_data_c> const * tls_handshake_message_c::get_certificate_authorities(void) const
	?analyse_tls_peap_packet@eap_type_tls_peap_c@@AAE?AW4eap_status_e@@PBVeap_am_network_id_c@@PAVeap_tls_peap_header_c@@K@Z @ 313 NONAME ; enum eap_status_e eap_type_tls_peap_c::analyse_tls_peap_packet(class eap_am_network_id_c const *, class eap_tls_peap_header_c *, unsigned long)
	?get_is_valid@dummy_eap_core_c@@UAE_NXZ @ 314 NONAME ; bool dummy_eap_core_c::get_is_valid(void)
	?check_header@mschapv2_header_c@@UBE?AW4eap_status_e@@XZ @ 315 NONAME ; enum eap_status_e mschapv2_header_c::check_header(void) const
	?parse_handshake_type_certificate_verify@tls_record_c@@AAE?AW4eap_status_e@@PAVtls_record_message_c@@PAVtls_handshake_header_c@@K@Z @ 316 NONAME ; enum eap_status_e tls_record_c::parse_handshake_type_certificate_verify(class tls_record_message_c *, class tls_handshake_header_c *, unsigned long)
	?get_change_cipher_spec_count@tls_record_message_c@@QBEKXZ @ 317 NONAME ; unsigned long tls_record_message_c::get_change_cipher_spec_count(void) const
	?empty_ack_packet_received@tls_record_c@@UAE?AW4eap_status_e@@PBVeap_am_network_id_c@@E@Z @ 318 NONAME ; enum eap_status_e tls_record_c::empty_ack_packet_received(class eap_am_network_id_c const *, unsigned char)
	?parse_tls_peap_payload@eap_type_tls_peap_c@@AAE?AW4eap_status_e@@PAK@Z @ 319 NONAME ; enum eap_status_e eap_type_tls_peap_c::parse_tls_peap_payload(unsigned long *)
	?create_eap_fast_mac_identity@eap_type_tls_peap_c@@AAE?AW4eap_status_e@@PBVeap_am_network_id_c@@PAVeap_variable_data_c@@@Z @ 320 NONAME ; enum eap_status_e eap_type_tls_peap_c::create_eap_fast_mac_identity(class eap_am_network_id_c const *, class eap_variable_data_c *)
	?object_decrease_reference_count@dummy_eap_core_c@@QAEKXZ @ 321 NONAME ; unsigned long dummy_eap_core_c::object_decrease_reference_count(void)
	?set_is_valid@tls_handshake_message_c@@AAEXXZ @ 322 NONAME ; void tls_handshake_message_c::set_is_valid(void)
	?get_vendor_code@eap_diameter_avp_code_c@@QBEKXZ @ 323 NONAME ; unsigned long eap_diameter_avp_code_c::get_vendor_code(void) const
	?get_state_string@eap_type_tls_peap_c@@SAPBDW4eap_type_tls_peap_state_variable_e@@@Z @ 324 NONAME ; char const * eap_type_tls_peap_c::get_state_string(enum eap_type_tls_peap_state_variable_e)
	?set_protocol@tls_record_message_c@@QAE?AW4eap_status_e@@W4tls_record_protocol_e@@@Z @ 325 NONAME ; enum eap_status_e tls_record_message_c::set_protocol(enum tls_record_protocol_e)
	?get_is_valid@peap_tlv_payloads_c@@QBE_NXZ @ 326 NONAME ; bool peap_tlv_payloads_c::get_is_valid(void) const
	?send_eap_failure@dummy_eap_core_c@@QAE?AW4eap_status_e@@PBVeap_am_network_id_c@@E@Z @ 327 NONAME ; enum eap_status_e dummy_eap_core_c::send_eap_failure(class eap_am_network_id_c const *, unsigned char)
	?parse_peap_tlv_payload@tls_application_eap_core_c@@AAE?AW4eap_status_e@@PAEPAKPAVpeap_tlv_payloads_c@@@Z @ 328 NONAME ; enum eap_status_e tls_application_eap_core_c::parse_peap_tlv_payload(unsigned char *, unsigned long *, class peap_tlv_payloads_c *)
	?get_encrypted_premaster_secret@tls_handshake_message_c@@QBEPBVeap_variable_data_c@@XZ @ 329 NONAME ; class eap_variable_data_c const * tls_handshake_message_c::get_encrypted_premaster_secret(void) const
	??0tls_record_c@@QAE@PAVabs_eap_am_tools_c@@PAVtls_am_services_c@@_NPAVtls_base_application_c@@22Veap_expanded_type_c@@PBVeap_am_network_id_c@@@Z @ 330 NONAME ; tls_record_c::tls_record_c(class abs_eap_am_tools_c *, class tls_am_services_c *, bool, class tls_base_application_c *, bool, bool, class eap_expanded_type_c, class eap_am_network_id_c const *)
	?get_is_valid@tls_application_data_message_c@@QAE_NXZ @ 331 NONAME ; bool tls_application_data_message_c::get_is_valid(void)
	?get_data@eap_diameter_variable_data_c@@QBEPAEK@Z @ 332 NONAME ; unsigned char * eap_diameter_variable_data_c::get_data(unsigned long) const
	?check_header@mschapv2_challenge_c@@UBE?AW4eap_status_e@@XZ @ 333 NONAME ; enum eap_status_e mschapv2_challenge_c::check_header(void) const
	?get_peer_challenge@mschapv2_change_password_c@@QBEPBEXZ @ 334 NONAME ; unsigned char const * mschapv2_change_password_c::get_peer_challenge(void) const
	?query_realm@eap_am_type_tls_peap_symbian_c@@UAE?AW4eap_status_e@@PBV?$eap_array_c@Veap_variable_data_c@@@@@Z @ 335 NONAME ; enum eap_status_e eap_am_type_tls_peap_symbian_c::query_realm(class eap_array_c<class eap_variable_data_c> const *)
	?set_tls_identity_privacy_handshake_state@tls_record_c@@AAEXW4tls_identity_privacy_handshake_state_e@@@Z @ 336 NONAME ; void tls_record_c::set_tls_identity_privacy_handshake_state(enum tls_identity_privacy_handshake_state_e)
	?get_cipher_suite_string@eap_tls_trace_string_c@@SAPBDW4tls_cipher_suites_e@@@Z @ 337 NONAME ; char const * eap_tls_trace_string_c::get_cipher_suite_string(enum tls_cipher_suites_e)
	?set_is_analysed@tls_application_data_message_c@@QAEXXZ @ 338 NONAME ; void tls_application_data_message_c::set_is_analysed(void)
	?packet_process@eap_type_tls_peap_c@@UAE?AW4eap_status_e@@PBVeap_am_network_id_c@@PAVeap_header_wr_c@@K@Z @ 339 NONAME ; enum eap_status_e eap_type_tls_peap_c::packet_process(class eap_am_network_id_c const *, class eap_header_wr_c *, unsigned long)
	?set_timer@dummy_eap_core_c@@UAE?AW4eap_status_e@@PAVabs_eap_base_timer_c@@KPAXK@Z @ 340 NONAME ; enum eap_status_e dummy_eap_core_c::set_timer(class abs_eap_base_timer_c *, unsigned long, void *, unsigned long)
	?get_header_offset@tls_record_c@@UAEKPAK0@Z @ 341 NONAME ; unsigned long tls_record_c::get_header_offset(unsigned long *, unsigned long *)
	?send_error_notification@tls_record_c@@AAEXW4eap_status_e@@@Z @ 342 NONAME ; void tls_record_c::send_error_notification(enum eap_status_e)
	?get_reassembly_state_string@eap_type_tls_peap_c@@ABEPBDXZ @ 343 NONAME ; char const * eap_type_tls_peap_c::get_reassembly_state_string(void) const
	?set_change_cipher_spec_type@tls_change_cipher_spec_message_c@@QAE?AW4eap_status_e@@W4tls_change_cipher_spec_type_e@@@Z @ 344 NONAME ; enum eap_status_e tls_change_cipher_spec_message_c::set_change_cipher_spec_type(enum tls_change_cipher_spec_type_e)
	?complete_rsa_encrypt_with_public_key@tls_record_c@@UAE?AW4eap_status_e@@PBVeap_variable_data_c@@W42@@Z @ 345 NONAME ; enum eap_status_e tls_record_c::complete_rsa_encrypt_with_public_key(class eap_variable_data_c const *, enum eap_status_e)
	?set_timer@tls_record_c@@UAE?AW4eap_status_e@@PAVabs_eap_base_timer_c@@KPAXK@Z @ 346 NONAME ; enum eap_status_e tls_record_c::set_timer(class abs_eap_base_timer_c *, unsigned long, void *, unsigned long)
	?reset_stream_ciphers@tls_record_c@@AAEX_N@Z @ 347 NONAME ; void tls_record_c::reset_stream_ciphers(bool)
	?trace_tunneled_packet@tls_application_eap_core_c@@AAEXPBDPBVeap_header_wr_c@@@Z @ 348 NONAME ; void tls_application_eap_core_c::trace_tunneled_packet(char const *, class eap_header_wr_c const *)
	?get_tls_max_header_length@eap_tls_peap_header_c@@SAKXZ @ 349 NONAME ; unsigned long eap_tls_peap_header_c::get_tls_max_header_length(void)
	?create_handshake_type_server_key_exchange@tls_record_c@@AAE?AW4eap_status_e@@XZ @ 350 NONAME ; enum eap_status_e tls_record_c::create_handshake_type_server_key_exchange(void)
	?finish_successful_authentication@eap_type_tls_peap_c@@AAE?AW4eap_status_e@@_N00@Z @ 351 NONAME ; enum eap_status_e eap_type_tls_peap_c::finish_successful_authentication(bool, bool, bool)
	?handle_ttls_plain_mschapv2_payloads@tls_application_eap_core_c@@AAE?AW4eap_status_e@@PAVeap_diameter_payloads_c@@W4eap_ttls_tunneled_message_type_e@@E@Z @ 352 NONAME ; enum eap_status_e tls_application_eap_core_c::handle_ttls_plain_mschapv2_payloads(class eap_diameter_payloads_c *, enum eap_ttls_tunneled_message_type_e, unsigned char)
	?get_analyse_index@tls_record_message_c@@QBEKXZ @ 353 NONAME ; unsigned long tls_record_message_c::get_analyse_index(void) const
	?get_is_valid@eap_type_tls_peap_c@@UAE_NXZ @ 354 NONAME ; bool eap_type_tls_peap_c::get_is_valid(void)
	?get_nt_response@mschapv2_change_password_c@@QBEPBEXZ @ 355 NONAME ; unsigned char const * mschapv2_change_password_c::get_nt_response(void) const
	??0eap_diameter_avp_code_c@@QAE@W4eap_diameter_avp_code_of_ietf_e@@@Z @ 356 NONAME ; eap_diameter_avp_code_c::eap_diameter_avp_code_c(enum eap_diameter_avp_code_of_ietf_e)
	??0peap_tlv_payloads_c@@QAE@PAVabs_eap_am_tools_c@@@Z @ 357 NONAME ; peap_tlv_payloads_c::peap_tlv_payloads_c(class abs_eap_am_tools_c *)
	?set_challenge@mschapv2_challenge_c@@QAEXPBE@Z @ 358 NONAME ; void mschapv2_challenge_c::set_challenge(unsigned char const *)
	?analyse_handshake_type_certificate_request@tls_record_c@@AAE?AW4eap_status_e@@PBVtls_handshake_message_c@@@Z @ 359 NONAME ; enum eap_status_e tls_record_c::analyse_handshake_type_certificate_request(class tls_handshake_message_c const *)
	?get_result_tlv@peap_tlv_payloads_c@@QAEPAVpeap_tlv_variable_data_c@@XZ @ 360 NONAME ; class peap_tlv_variable_data_c * peap_tlv_payloads_c::get_result_tlv(void)
	?get_compression_method_string@eap_tls_trace_string_c@@SAPBDW4tls_compression_method_e@@@Z @ 361 NONAME ; char const * eap_tls_trace_string_c::get_compression_method_string(enum tls_compression_method_e)
	?add_record_message@tls_record_c@@AAE?AW4eap_status_e@@PAVtls_alert_message_c@@@Z @ 362 NONAME ; enum eap_status_e tls_record_c::add_record_message(class tls_alert_message_c *)
	?get_certificate_types@tls_handshake_message_c@@QBEPBV?$eap_array_c@E@@XZ @ 363 NONAME ; class eap_array_c<unsigned char> const * tls_handshake_message_c::get_certificate_types(void) const
	?get_is_analysed@tls_application_data_message_c@@QAE_NXZ @ 364 NONAME ; bool tls_application_data_message_c::get_is_analysed(void)
	?cancel_sign_with_private_key@eap_am_type_tls_peap_symbian_c@@UAE?AW4eap_status_e@@XZ @ 365 NONAME ; enum eap_status_e eap_am_type_tls_peap_symbian_c::cancel_sign_with_private_key(void)
	?eap_acknowledge@dummy_eap_core_c@@QAE?AW4eap_status_e@@PBVeap_am_network_id_c@@@Z @ 366 NONAME ; enum eap_status_e dummy_eap_core_c::eap_acknowledge(class eap_am_network_id_c const *)
	?get_eap_payload_tlv@peap_tlv_payloads_c@@QAEPAVpeap_tlv_variable_data_c@@XZ @ 367 NONAME ; class peap_tlv_variable_data_c * peap_tlv_payloads_c::get_eap_payload_tlv(void)
	?set_failure_message_received@eap_type_tls_peap_c@@AAEXXZ @ 368 NONAME ; void eap_type_tls_peap_c::set_failure_message_received(void)
	??0eap_diameter_variable_data_c@@QAE@PAVabs_eap_am_tools_c@@@Z @ 369 NONAME ; eap_diameter_variable_data_c::eap_diameter_variable_data_c(class abs_eap_am_tools_c *)
	?cancel_query_dh_parameters@eap_am_type_tls_peap_symbian_c@@UAE?AW4eap_status_e@@XZ @ 370 NONAME ; enum eap_status_e eap_am_type_tls_peap_symbian_c::cancel_query_dh_parameters(void)
	?notify_configuration_error@eap_am_type_tls_peap_symbian_c@@QAEXW4eap_status_e@@@Z @ 371 NONAME ; void eap_am_type_tls_peap_symbian_c::notify_configuration_error(enum eap_status_e)
	?create_handshake_type_server_hello_done@tls_record_c@@AAE?AW4eap_status_e@@XZ @ 372 NONAME ; enum eap_status_e tls_record_c::create_handshake_type_server_hello_done(void)
	??0tls_message_c@@QAE@PAVabs_eap_am_tools_c@@PAVabs_tls_message_hash_c@@PAVabs_tls_apply_cipher_spec_c@@PAVabs_tls_change_cipher_spec_c@@_N@Z @ 373 NONAME ; tls_message_c::tls_message_c(class abs_eap_am_tools_c *, class abs_tls_message_hash_c *, class abs_tls_apply_cipher_spec_c *, class abs_tls_change_cipher_spec_c *, bool)
	?check_is_valid_eap_type@dummy_eap_core_c@@UAE?AW4eap_status_e@@Veap_expanded_type_c@@@Z @ 374 NONAME ; enum eap_status_e dummy_eap_core_c::check_is_valid_eap_type(class eap_expanded_type_c)
	?get_is_valid@eap_am_type_tls_peap_symbian_c@@UAE_NXZ @ 375 NONAME ; bool eap_am_type_tls_peap_symbian_c::get_is_valid(void)
	?cipher_suite_is_3DES_EDE_CBC_SHA@tls_record_c@@ABE_NW4tls_cipher_suites_e@@@Z @ 376 NONAME ; bool tls_record_c::cipher_suite_is_3DES_EDE_CBC_SHA(enum tls_cipher_suites_e) const
	?get_compression_methods@tls_handshake_message_c@@QBEPBV?$eap_array_c@E@@XZ @ 377 NONAME ; class eap_array_c<unsigned char> const * tls_handshake_message_c::get_compression_methods(void) const
	?check_is_valid_eap_type@tls_record_c@@UAE?AW4eap_status_e@@Veap_expanded_type_c@@@Z @ 378 NONAME ; enum eap_status_e tls_record_c::check_is_valid_eap_type(class eap_expanded_type_c)
	?get_failure_message_received@eap_type_tls_peap_c@@ABE_NXZ @ 379 NONAME ; bool eap_type_tls_peap_c::get_failure_message_received(void) const
	?set_is_valid@tls_application_data_message_c@@AAEXXZ @ 380 NONAME ; void tls_application_data_message_c::set_is_valid(void)
	??0eap_tls_peap_header_c@@QAE@PAVabs_eap_am_tools_c@@PAEK@Z @ 381 NONAME ; eap_tls_peap_header_c::eap_tls_peap_header_c(class abs_eap_am_tools_c *, unsigned char *, unsigned long)
	?check_payloads_existense@eap_diameter_payloads_c@@QAE?AW4eap_status_e@@PBV?$eap_array_c@Veap_diameter_avp_code_c@@@@@Z @ 382 NONAME ; enum eap_status_e eap_diameter_payloads_c::check_payloads_existense(class eap_array_c<class eap_diameter_avp_code_c> const *)
	?set_completion_action@tls_completion_c@@QAEXW4tls_completion_action_e@@@Z @ 383 NONAME ; void tls_completion_c::set_completion_action(enum tls_completion_action_e)
	?get_key_expansion_size@tls_record_c@@QAEKPAK0000@Z @ 384 NONAME ; unsigned long tls_record_c::get_key_expansion_size(unsigned long *, unsigned long *, unsigned long *, unsigned long *, unsigned long *)
	?reset_header@eap_tls_peap_header_c@@QAEXPAVabs_eap_am_tools_c@@Veap_expanded_type_c@@KW4peap_version_e@@_N@Z @ 385 NONAME ; void eap_tls_peap_header_c::reset_header(class abs_eap_am_tools_c *, class eap_expanded_type_c, unsigned long, enum peap_version_e, bool)
	??1eap_diameter_payloads_c@@UAE@XZ @ 386 NONAME ; eap_diameter_payloads_c::~eap_diameter_payloads_c(void)
	?parse_tls_peap_packet@eap_type_tls_peap_c@@AAE?AW4eap_status_e@@PAVeap_tls_peap_header_c@@K@Z @ 387 NONAME ; enum eap_status_e eap_type_tls_peap_c::parse_tls_peap_packet(class eap_tls_peap_header_c *, unsigned long)
	?read_configure@eap_type_tls_peap_c@@UAE?AW4eap_status_e@@PBVeap_configuration_field_c@@PAVeap_variable_data_c@@@Z @ 388 NONAME ; enum eap_status_e eap_type_tls_peap_c::read_configure(class eap_configuration_field_c const *, class eap_variable_data_c *)
	?send_tunneled_acknowledge_xp_peap_v0@tls_application_eap_core_c@@AAE?AW4eap_status_e@@W4eap_code_value_e@@E@Z @ 389 NONAME ; enum eap_status_e tls_application_eap_core_c::send_tunneled_acknowledge_xp_peap_v0(enum eap_code_value_e, unsigned char)
	?set_tls_record_header_is_included@tls_record_message_c@@QAEX_N@Z @ 390 NONAME ; void tls_record_message_c::set_tls_record_header_is_included(bool)
	?cancel_verify_with_public_key@eap_am_type_tls_peap_symbian_c@@UAE?AW4eap_status_e@@XZ @ 391 NONAME ; enum eap_status_e eap_am_type_tls_peap_symbian_c::cancel_verify_with_public_key(void)
	?add_message_data@tls_alert_message_c@@QAE?AW4eap_status_e@@PAVeap_variable_data_c@@@Z @ 392 NONAME ; enum eap_status_e tls_alert_message_c::add_message_data(class eap_variable_data_c *)
	?set_encrypted_premaster_secret@tls_handshake_message_c@@QAE?AW4eap_status_e@@PBVeap_variable_data_c@@@Z @ 393 NONAME ; enum eap_status_e tls_handshake_message_c::set_encrypted_premaster_secret(class eap_variable_data_c const *)
	?check_header@mschapv2_change_password_c@@UBE?AW4eap_status_e@@XZ @ 394 NONAME ; enum eap_status_e mschapv2_change_password_c::check_header(void) const
	?create_crypto_binding_tlv_message@tls_application_eap_core_c@@AAE?AW4eap_status_e@@PAVeap_buf_chain_wr_c@@W4eap_code_value_e@@EPBVeap_variable_data_c@@E@Z @ 395 NONAME ; enum eap_status_e tls_application_eap_core_c::create_crypto_binding_tlv_message(class eap_buf_chain_wr_c *, enum eap_code_value_e, unsigned char, class eap_variable_data_c const *, unsigned char)
	?create_handshake_type_certificate_request@tls_record_c@@AAE?AW4eap_status_e@@PBV?$eap_array_c@E@@PBV?$eap_array_c@Veap_variable_data_c@@@@@Z @ 396 NONAME ; enum eap_status_e tls_record_c::create_handshake_type_certificate_request(class eap_array_c<unsigned char> const *, class eap_array_c<class eap_variable_data_c> const *)
	?get_selected_compression_method@tls_handshake_message_c@@QBE?AW4tls_compression_method_e@@XZ @ 397 NONAME ; enum tls_compression_method_e tls_handshake_message_c::get_selected_compression_method(void) const
	?write_configure@dummy_eap_core_c@@UAE?AW4eap_status_e@@PBVeap_configuration_field_c@@PAVeap_variable_data_c@@@Z @ 398 NONAME ; enum eap_status_e dummy_eap_core_c::write_configure(class eap_configuration_field_c const *, class eap_variable_data_c *)
	?ttls_tunneled_message_state_process_identity_response@tls_application_eap_core_c@@AAE?AW4eap_status_e@@PAVeap_header_wr_c@@@Z @ 399 NONAME ; enum eap_status_e tls_application_eap_core_c::ttls_tunneled_message_state_process_identity_response(class eap_header_wr_c *)
	?init_retransmission@dummy_eap_core_c@@AAE?AW4eap_status_e@@PBVeap_am_network_id_c@@PAVeap_buf_chain_wr_c@@KKW4eap_code_value_e@@EVeap_expanded_type_c@@@Z @ 400 NONAME ; enum eap_status_e dummy_eap_core_c::init_retransmission(class eap_am_network_id_c const *, class eap_buf_chain_wr_c *, unsigned long, unsigned long, enum eap_code_value_e, unsigned char, class eap_expanded_type_c)
	?write_configure@eap_type_tls_peap_c@@UAE?AW4eap_status_e@@PBVeap_configuration_field_c@@PAVeap_variable_data_c@@@Z @ 401 NONAME ; enum eap_status_e eap_type_tls_peap_c::write_configure(class eap_configuration_field_c const *, class eap_variable_data_c *)
	?set_mschapv2_id@mschapv2_header_c@@QAEXE@Z @ 402 NONAME ; void mschapv2_header_c::set_mschapv2_id(unsigned char)
	??1eap_type_tls_peap_state_notification_c@@UAE@XZ @ 403 NONAME ; eap_type_tls_peap_state_notification_c::~eap_type_tls_peap_state_notification_c(void)
	?create_tls_protocol_alert@tls_record_c@@AAE?AW4eap_status_e@@W4tls_alert_description_e@@W4tls_alert_level_e@@W42@@Z @ 404 NONAME ; enum eap_status_e tls_record_c::create_tls_protocol_alert(enum tls_alert_description_e, enum tls_alert_level_e, enum eap_status_e)
	?load_module@dummy_eap_core_c@@UAE?AW4eap_status_e@@Veap_expanded_type_c@@0PAVabs_eap_base_type_c@@PAPAVeap_base_type_c@@_NPBVeap_am_network_id_c@@@Z @ 405 NONAME ; enum eap_status_e dummy_eap_core_c::load_module(class eap_expanded_type_c, class eap_expanded_type_c, class abs_eap_base_type_c *, class eap_base_type_c * *, bool, class eap_am_network_id_c const *)
	?query_certificate_authorities_and_types@eap_am_type_tls_peap_symbian_c@@UAE?AW4eap_status_e@@XZ @ 406 NONAME ; enum eap_status_e eap_am_type_tls_peap_symbian_c::query_certificate_authorities_and_types(void)
	?complete_eap_identity_query@eap_type_tls_peap_c@@UAE?AW4eap_status_e@@PBVeap_variable_data_c@@PBVeap_am_network_id_c@@EW42@_N030@Z @ 407 NONAME ; enum eap_status_e eap_type_tls_peap_c::complete_eap_identity_query(class eap_variable_data_c const *, class eap_am_network_id_c const *, unsigned char, enum eap_status_e, bool, class eap_variable_data_c const *, bool, class eap_variable_data_c const *)
	?create_intermediate_result_tlv_message@tls_application_eap_core_c@@AAE?AW4eap_status_e@@PAVeap_buf_chain_wr_c@@W4eap_code_value_e@@E@Z @ 408 NONAME ; enum eap_status_e tls_application_eap_core_c::create_intermediate_result_tlv_message(class eap_buf_chain_wr_c *, enum eap_code_value_e, unsigned char)
	?get_data_offset@eap_tls_peap_header_c@@QBEPAEPAVabs_eap_am_tools_c@@KK@Z @ 409 NONAME ; unsigned char * eap_tls_peap_header_c::get_data_offset(class abs_eap_am_tools_c *, unsigned long, unsigned long) const
	?reassemble_tls_records@tls_record_c@@AAE?AW4eap_status_e@@PAVtls_record_message_c@@PAVtls_record_header_c@@@Z @ 410 NONAME ; enum eap_status_e tls_record_c::reassemble_tls_records(class tls_record_message_c *, class tls_record_header_c *)
	??1mschapv2_challenge_c@@UAE@XZ @ 411 NONAME ; mschapv2_challenge_c::~mschapv2_challenge_c(void)
	?add_record_message@tls_record_c@@AAE?AW4eap_status_e@@PAVtls_change_cipher_spec_message_c@@@Z @ 412 NONAME ; enum eap_status_e tls_record_c::add_record_message(class tls_change_cipher_spec_message_c *)
	?cancel_query_cipher_suites_and_previous_session@eap_am_type_tls_peap_symbian_c@@UAE?AW4eap_status_e@@XZ @ 413 NONAME ; enum eap_status_e eap_am_type_tls_peap_symbian_c::cancel_query_cipher_suites_and_previous_session(void)
	?generate_premaster_secret@tls_record_c@@AAE?AW4eap_status_e@@XZ @ 414 NONAME ; enum eap_status_e tls_record_c::generate_premaster_secret(void)
	?apply_send_cipher_suite@tls_record_c@@EAE?AW4eap_status_e@@PAVeap_variable_data_c@@@Z @ 415 NONAME ; enum eap_status_e tls_record_c::apply_send_cipher_suite(class eap_variable_data_c *)
	?verify_ttls_pap_username_and_password@tls_record_c@@UAE?AW4eap_status_e@@PBVeap_variable_data_c@@0@Z @ 416 NONAME ; enum eap_status_e tls_record_c::verify_ttls_pap_username_and_password(class eap_variable_data_c const *, class eap_variable_data_c const *)
	?empty_ack_packet_received@tls_application_eap_core_c@@UAE?AW4eap_status_e@@PBVeap_am_network_id_c@@E@Z @ 417 NONAME ; enum eap_status_e tls_application_eap_core_c::empty_ack_packet_received(class eap_am_network_id_c const *, unsigned char)
	?parse_handshake_type_finished@tls_record_c@@AAE?AW4eap_status_e@@PAVtls_record_message_c@@PAVtls_handshake_header_c@@K@Z @ 418 NONAME ; enum eap_status_e tls_record_c::parse_handshake_type_finished(class tls_record_message_c *, class tls_handshake_header_c *, unsigned long)
	?set_is_valid@tls_application_eap_core_c@@EAEXXZ @ 419 NONAME ; void tls_application_eap_core_c::set_is_valid(void)
	?get_ttls_state_string@eap_tls_trace_string_c@@SAPBDW4eap_ttls_tunneled_message_state_e@@@Z @ 420 NONAME ; char const * eap_tls_trace_string_c::get_ttls_state_string(enum eap_ttls_tunneled_message_state_e)
	?set_certificate_authorities@tls_handshake_message_c@@QAE?AW4eap_status_e@@PBV?$eap_array_c@Veap_variable_data_c@@@@@Z @ 421 NONAME ; enum eap_status_e tls_handshake_message_c::set_certificate_authorities(class eap_array_c<class eap_variable_data_c> const *)
	?parse_handshake_type_hello_request@tls_record_c@@AAE?AW4eap_status_e@@PAVtls_record_message_c@@PAVtls_handshake_header_c@@K@Z @ 422 NONAME ; enum eap_status_e tls_record_c::parse_handshake_type_hello_request(class tls_record_message_c *, class tls_handshake_header_c *, unsigned long)
	?tls_message_process@eap_type_tls_peap_c@@AAE?AW4eap_status_e@@PBVeap_am_network_id_c@@PAVeap_tls_peap_header_c@@K@Z @ 423 NONAME ; enum eap_status_e eap_type_tls_peap_c::tls_message_process(class eap_am_network_id_c const *, class eap_tls_peap_header_c *, unsigned long)
	?set_flag_reserved@eap_tls_peap_header_c@@QAEXE@Z @ 424 NONAME ; void eap_tls_peap_header_c::set_flag_reserved(unsigned char)
	?complete_create_handshake_type_certificate_verify@tls_record_c@@AAE?AW4eap_status_e@@XZ @ 425 NONAME ; enum eap_status_e tls_record_c::complete_create_handshake_type_certificate_verify(void)
	?get_eap_type_list@tls_record_c@@UAE?AW4eap_status_e@@PAV?$eap_array_c@Veap_expanded_type_c@@@@@Z @ 426 NONAME ; enum eap_status_e tls_record_c::get_eap_type_list(class eap_array_c<class eap_expanded_type_c> *)
	?eap_status_return_and_create_tls_protocol_alert@tls_record_c@@AAE?AW4eap_status_e@@W42@@Z @ 427 NONAME ; enum eap_status_e tls_record_c::eap_status_return_and_create_tls_protocol_alert(enum eap_status_e)
	?get_eap_tls_master_session_key@tls_record_c@@UAE?AW4eap_status_e@@PAVeap_variable_data_c@@0@Z @ 428 NONAME ; enum eap_status_e tls_record_c::get_eap_tls_master_session_key(class eap_variable_data_c *, class eap_variable_data_c *)
	?get_payload_buffer@eap_diameter_variable_data_c@@QAEPAVeap_variable_data_c@@XZ @ 429 NONAME ; class eap_variable_data_c * eap_diameter_variable_data_c::get_payload_buffer(void)
	?ttls_server_handles_ms_chapv2_response@tls_application_eap_core_c@@AAE?AW4eap_status_e@@PAVeap_diameter_payloads_c@@E@Z @ 430 NONAME ; enum eap_status_e tls_application_eap_core_c::ttls_server_handles_ms_chapv2_response(class eap_diameter_payloads_c *, unsigned char)
	?message_hash_init@tls_record_c@@AAE?AW4eap_status_e@@XZ @ 431 NONAME ; enum eap_status_e tls_record_c::message_hash_init(void)
	?timer_delete_data@eap_am_type_tls_peap_symbian_c@@UAE?AW4eap_status_e@@KPAX@Z @ 432 NONAME ; enum eap_status_e eap_am_type_tls_peap_symbian_c::timer_delete_data(unsigned long, void *)
	?analyse_handshake_type_certificate_verify@tls_record_c@@AAE?AW4eap_status_e@@PBVtls_handshake_message_c@@@Z @ 433 NONAME ; enum eap_status_e tls_record_c::analyse_handshake_type_certificate_verify(class tls_handshake_message_c const *)
	?set_handshake_header_copy@tls_handshake_message_c@@QAE?AW4eap_status_e@@PBVtls_handshake_header_c@@@Z @ 434 NONAME ; enum eap_status_e tls_handshake_message_c::set_handshake_header_copy(class tls_handshake_header_c const *)
	?get_data_length@eap_diameter_variable_data_c@@QBEKXZ @ 435 NONAME ; unsigned long eap_diameter_variable_data_c::get_data_length(void) const
	??0tls_alert_message_c@@QAE@PAVabs_eap_am_tools_c@@_N@Z @ 436 NONAME ; tls_alert_message_c::tls_alert_message_c(class abs_eap_am_tools_c *, bool)
	?eap_identity_response_packet_process@eap_type_tls_peap_c@@QAE?AW4eap_status_e@@PBVeap_am_network_id_c@@PAVeap_header_wr_c@@K@Z @ 437 NONAME ; enum eap_status_e eap_type_tls_peap_c::eap_identity_response_packet_process(class eap_am_network_id_c const *, class eap_header_wr_c *, unsigned long)
	?get_flag_reserved@eap_tls_peap_header_c@@QBEEXZ @ 438 NONAME ; unsigned char eap_tls_peap_header_c::get_flag_reserved(void) const
	?u16_t_to_network_order@tls_handshake_message_c@@CA?AW4eap_status_e@@PAGPAVabs_eap_am_tools_c@@@Z @ 439 NONAME ; enum eap_status_e tls_handshake_message_c::u16_t_to_network_order(unsigned short *, class abs_eap_am_tools_c *)
	?process_tls_records@tls_record_c@@AAE?AW4eap_status_e@@XZ @ 440 NONAME ; enum eap_status_e tls_record_c::process_tls_records(void)
	?configure@eap_type_tls_peap_c@@UAE?AW4eap_status_e@@XZ @ 441 NONAME ; enum eap_status_e eap_type_tls_peap_c::configure(void)
	?ttls_tunneled_message_state_complete_success_request@tls_application_eap_core_c@@AAE?AW4eap_status_e@@PAVeap_header_wr_c@@@Z @ 442 NONAME ; enum eap_status_e tls_application_eap_core_c::ttls_tunneled_message_state_complete_success_request(class eap_header_wr_c *)
	?set_value_size@mschapv2_challenge_c@@QAEXXZ @ 443 NONAME ; void mschapv2_challenge_c::set_value_size(void)
	?get_is_tunneled_tls@tls_record_c@@QAE_NXZ @ 444 NONAME ; bool tls_record_c::get_is_tunneled_tls(void)
	?set_application_partner@tls_application_eap_core_c@@UAE?AW4eap_status_e@@PAVabs_tls_base_application_c@@@Z @ 445 NONAME ; enum eap_status_e tls_application_eap_core_c::set_application_partner(class abs_tls_base_application_c *)
	?completion_action_check@tls_record_c@@AAE?AW4eap_status_e@@XZ @ 446 NONAME ; enum eap_status_e tls_record_c::completion_action_check(void)
	?get_completion_action_string@tls_completion_c@@QBEPBDXZ @ 447 NONAME ; char const * tls_completion_c::get_completion_action_string(void) const
	?get_state@eap_type_tls_peap_c@@ABE?AW4eap_type_tls_peap_state_variable_e@@XZ @ 448 NONAME ; enum eap_type_tls_peap_state_variable_e eap_type_tls_peap_c::get_state(void) const
	?complete_query_cipher_suites_and_previous_session@tls_record_c@@UAE?AW4eap_status_e@@W4tls_session_type_e@@PBV?$eap_array_c@G@@PBV?$eap_array_c@E@@PBVeap_variable_data_c@@3W4tls_cipher_suites_e@@W42@@Z @ 449 NONAME ; enum eap_status_e tls_record_c::complete_query_cipher_suites_and_previous_session(enum tls_session_type_e, class eap_array_c<unsigned short> const *, class eap_array_c<unsigned char> const *, class eap_variable_data_c const *, class eap_variable_data_c const *, enum tls_cipher_suites_e, enum eap_status_e)
	?get_name@mschapv2_challenge_c@@QBEPBEXZ @ 450 NONAME ; unsigned char const * mschapv2_challenge_c::get_name(void) const
	?get_tls_flags@eap_tls_peap_header_c@@QBEPAEXZ @ 451 NONAME ; unsigned char * eap_tls_peap_header_c::get_tls_flags(void) const
	?alert_received@tls_application_eap_core_c@@UAE?AW4eap_status_e@@W4tls_alert_level_e@@W4tls_alert_description_e@@@Z @ 452 NONAME ; enum eap_status_e tls_application_eap_core_c::alert_received(enum tls_alert_level_e, enum tls_alert_description_e)
	??1eap_diameter_variable_data_c@@UAE@XZ @ 453 NONAME ; eap_diameter_variable_data_c::~eap_diameter_variable_data_c(void)
	?parse_handshake_type_certificate_request@tls_record_c@@AAE?AW4eap_status_e@@PAVtls_record_message_c@@PAVtls_handshake_header_c@@K@Z @ 454 NONAME ; enum eap_status_e tls_record_c::parse_handshake_type_certificate_request(class tls_record_message_c *, class tls_handshake_header_c *, unsigned long)
	?check_version_list@eap_type_tls_peap_c@@AAE?AW4eap_status_e@@GPAE@Z @ 455 NONAME ; enum eap_status_e eap_type_tls_peap_c::check_version_list(unsigned short, unsigned char *)
	?create_handshake_type_client_key_exchange@tls_record_c@@AAE?AW4eap_status_e@@XZ @ 456 NONAME ; enum eap_status_e tls_record_c::create_handshake_type_client_key_exchange(void)
	?packet_data_crypto_keys@dummy_eap_core_c@@UAE?AW4eap_status_e@@PBVeap_am_network_id_c@@PBVeap_master_session_key_c@@@Z @ 457 NONAME ; enum eap_status_e dummy_eap_core_c::packet_data_crypto_keys(class eap_am_network_id_c const *, class eap_master_session_key_c const *)
	?get_extra_padding_length@tls_record_c@@AAEEEK@Z @ 458 NONAME ; unsigned char tls_record_c::get_extra_padding_length(unsigned char, unsigned long)
	?get_is_mandatory@eap_diameter_variable_data_c@@QBE_NXZ @ 459 NONAME ; bool eap_diameter_variable_data_c::get_is_mandatory(void) const
	?packet_process_peap_v2@tls_application_eap_core_c@@AAE?AW4eap_status_e@@PAVeap_variable_data_c@@EPAK@Z @ 460 NONAME ; enum eap_status_e tls_application_eap_core_c::packet_process_peap_v2(class eap_variable_data_c *, unsigned char, unsigned long *)
	?client_proposes_eap_types@dummy_eap_core_c@@AAE?AW4eap_status_e@@PBVeap_am_network_id_c@@E@Z @ 461 NONAME ; enum eap_status_e dummy_eap_core_c::client_proposes_eap_types(class eap_am_network_id_c const *, unsigned char)
	?get_payload_code@eap_diameter_variable_data_c@@QBE?AVeap_diameter_avp_code_c@@XZ @ 462 NONAME ; class eap_diameter_avp_code_c eap_diameter_variable_data_c::get_payload_code(void) const
	?get_received_eap_identifier@tls_message_c@@QAEEXZ @ 463 NONAME ; unsigned char tls_message_c::get_received_eap_identifier(void)
	?parse_handshake_type_server_hello@tls_record_c@@AAE?AW4eap_status_e@@PAVtls_record_message_c@@PAVtls_handshake_header_c@@K@Z @ 464 NONAME ; enum eap_status_e tls_record_c::parse_handshake_type_server_hello(class tls_record_message_c *, class tls_handshake_header_c *, unsigned long)
	?restore_saved_previous_state@eap_type_tls_peap_c@@AAEXXZ @ 465 NONAME ; void eap_type_tls_peap_c::restore_saved_previous_state(void)
	?complete_sign_with_private_key@tls_record_c@@UAE?AW4eap_status_e@@PBVeap_variable_data_c@@W42@@Z @ 466 NONAME ; enum eap_status_e tls_record_c::complete_sign_with_private_key(class eap_variable_data_c const *, enum eap_status_e)
	?get_reassembly_state_string@eap_type_tls_peap_c@@SAPBDW4eap_type_tls_peap_reassembly_state_e@@@Z @ 467 NONAME ; char const * eap_type_tls_peap_c::get_reassembly_state_string(enum eap_type_tls_peap_reassembly_state_e)
	?reset@eap_diameter_payloads_c@@QAE?AW4eap_status_e@@XZ @ 468 NONAME ; enum eap_status_e eap_diameter_payloads_c::reset(void)
	?get_public_dhe_key@tls_handshake_message_c@@QBEPBVeap_variable_data_c@@XZ @ 469 NONAME ; class eap_variable_data_c const * tls_handshake_message_c::get_public_dhe_key(void) const
	?set_last_eap_identifier@eap_type_tls_peap_c@@AAEXE@Z @ 470 NONAME ; void eap_type_tls_peap_c::set_last_eap_identifier(unsigned char)
	?copy@eap_diameter_variable_data_c@@QBEPAV1@XZ @ 471 NONAME ; class eap_diameter_variable_data_c * eap_diameter_variable_data_c::copy(void) const
	?initialize_asynchronous_init_remove_eap_session@dummy_eap_core_c@@AAE?AW4eap_status_e@@K@Z @ 472 NONAME ; enum eap_status_e dummy_eap_core_c::initialize_asynchronous_init_remove_eap_session(unsigned long)
	?get_handshake@tls_record_message_c@@QBEPAVtls_handshake_message_c@@K@Z @ 473 NONAME ; class tls_handshake_message_c * tls_record_message_c::get_handshake(unsigned long) const
	?reset_operation@dummy_eap_core_c@@CA?AW4eap_status_e@@PAVeap_base_type_c@@PAVabs_eap_am_tools_c@@@Z @ 474 NONAME ; enum eap_status_e dummy_eap_core_c::reset_operation(class eap_base_type_c *, class abs_eap_am_tools_c *)
	?handle_eap_identity_query@eap_type_tls_peap_c@@AAE?AW4eap_status_e@@PBVeap_variable_data_c@@PBVeap_am_network_id_c@@E_N020@Z @ 475 NONAME ; enum eap_status_e eap_type_tls_peap_c::handle_eap_identity_query(class eap_variable_data_c const *, class eap_am_network_id_c const *, unsigned char, bool, class eap_variable_data_c const *, bool, class eap_variable_data_c const *)
	?get_tls_flag_value@eap_tls_peap_header_c@@QBEEKK@Z @ 476 NONAME ; unsigned char eap_tls_peap_header_c::get_tls_flag_value(unsigned long, unsigned long) const
	?query_ttls_pap_username_and_password@eap_am_type_tls_peap_symbian_c@@UAE?AW4eap_status_e@@PBVeap_variable_data_c@@@Z @ 477 NONAME ; enum eap_status_e eap_am_type_tls_peap_symbian_c::query_ttls_pap_username_and_password(class eap_variable_data_c const *)
	?reset@dummy_eap_core_c@@QAE?AW4eap_status_e@@XZ @ 478 NONAME ; enum eap_status_e dummy_eap_core_c::reset(void)
	?get_data_length@eap_tls_peap_header_c@@QBEGXZ @ 479 NONAME ; unsigned short eap_tls_peap_header_c::get_data_length(void) const
	?packet_data_crypto_keys@tls_application_eap_core_c@@UAE?AW4eap_status_e@@PBVeap_am_network_id_c@@PBVeap_master_session_key_c@@@Z @ 480 NONAME ; enum eap_status_e tls_application_eap_core_c::packet_data_crypto_keys(class eap_am_network_id_c const *, class eap_master_session_key_c const *)
	??0tls_application_data_message_c@@QAE@PAVabs_eap_am_tools_c@@_N@Z @ 481 NONAME ; tls_application_data_message_c::tls_application_data_message_c(class abs_eap_am_tools_c *, bool)
	?send_tls_message@tls_record_c@@AAE?AW4eap_status_e@@XZ @ 482 NONAME ; enum eap_status_e tls_record_c::send_tls_message(void)
	?cancel_timer@dummy_eap_core_c@@UAE?AW4eap_status_e@@PAVabs_eap_base_timer_c@@K@Z @ 483 NONAME ; enum eap_status_e dummy_eap_core_c::cancel_timer(class abs_eap_base_timer_c *, unsigned long)
	?get_is_valid@tls_completion_c@@QAE_NXZ @ 484 NONAME ; bool tls_completion_c::get_is_valid(void)
	?cipher_suite_is_RC4_128_SHA@tls_record_c@@ABE_NW4tls_cipher_suites_e@@@Z @ 485 NONAME ; bool tls_record_c::cipher_suite_is_RC4_128_SHA(enum tls_cipher_suites_e) const
	?set_session_timeout@eap_type_tls_peap_c@@UAE?AW4eap_status_e@@K@Z @ 486 NONAME ; enum eap_status_e eap_type_tls_peap_c::set_session_timeout(unsigned long)
	?allocate_handshake_message@tls_record_c@@AAE?AW4eap_status_e@@PAPAVtls_handshake_message_c@@PAV?$eap_automatic_variable_c@Vtls_handshake_message_c@@@@W4tls_handshake_type_e@@@Z @ 487 NONAME ; enum eap_status_e tls_record_c::allocate_handshake_message(class tls_handshake_message_c * *, class eap_automatic_variable_c<class tls_handshake_message_c> *, enum tls_handshake_type_e)
	?get_data@mschapv2_header_c@@QBEPAEXZ @ 488 NONAME ; unsigned char * mschapv2_header_c::get_data(void) const
	?get_next_tls_record_message_protocol@tls_record_c@@EAE?AW4tls_record_protocol_e@@XZ @ 489 NONAME ; enum tls_record_protocol_e tls_record_c::get_next_tls_record_message_protocol(void)
	?query_eap_identity@eap_type_tls_peap_c@@UAE?AW4eap_status_e@@_NPAVeap_variable_data_c@@PBVeap_am_network_id_c@@E@Z @ 490 NONAME ; enum eap_status_e eap_type_tls_peap_c::query_eap_identity(bool, class eap_variable_data_c *, class eap_am_network_id_c const *, unsigned char)
	??0tls_change_cipher_spec_message_c@@QAE@PAVabs_eap_am_tools_c@@PAVabs_tls_change_cipher_spec_c@@_N@Z @ 491 NONAME ; tls_change_cipher_spec_message_c::tls_change_cipher_spec_message_c(class abs_eap_am_tools_c *, class abs_tls_change_cipher_spec_c *, bool)
	?cipher_suite_is_AES_128_CBC_SHA@tls_record_c@@ABE_NW4tls_cipher_suites_e@@@Z @ 492 NONAME ; bool tls_record_c::cipher_suite_is_AES_128_CBC_SHA(enum tls_cipher_suites_e) const
	?get_mschapv2_id@mschapv2_header_c@@QBEEXZ @ 493 NONAME ; unsigned char mschapv2_header_c::get_mschapv2_id(void) const
	?check_is_valid_eap_type@tls_application_eap_core_c@@UAE?AW4eap_status_e@@Veap_expanded_type_c@@@Z @ 494 NONAME ; enum eap_status_e tls_application_eap_core_c::check_is_valid_eap_type(class eap_expanded_type_c)
	?get_tls_flag_bit@eap_tls_peap_header_c@@QBE_NK@Z @ 495 NONAME ; bool eap_tls_peap_header_c::get_tls_flag_bit(unsigned long) const
	??0eap_type_tls_peap_c@@QAE@PAVabs_eap_am_tools_c@@PAVabs_eap_base_type_c@@PAVeap_am_type_tls_peap_c@@_NPAVtls_base_record_c@@33Veap_expanded_type_c@@PBVeap_am_network_id_c@@@Z @ 496 NONAME ; eap_type_tls_peap_c::eap_type_tls_peap_c(class abs_eap_am_tools_c *, class abs_eap_base_type_c *, class eap_am_type_tls_peap_c *, bool, class tls_base_record_c *, bool, bool, class eap_expanded_type_c, class eap_am_network_id_c const *)
	??0eap_type_tls_peap_state_notification_c@@QAE@PAVabs_eap_am_tools_c@@PBVeap_am_network_id_c@@_NW4eap_state_notification_eap_e@@W4eap_protocol_layer_e@@W4eap_type_ietf_values_e@@KKE2@Z @ 497 NONAME ; eap_type_tls_peap_state_notification_c::eap_type_tls_peap_state_notification_c(class abs_eap_am_tools_c *, class eap_am_network_id_c const *, bool, enum eap_state_notification_eap_e, enum eap_protocol_layer_e, enum eap_type_ietf_values_e, unsigned long, unsigned long, unsigned char, bool)
	?get_eap_type_string@eap_tls_peap_header_c@@QBEPBDXZ @ 498 NONAME ; char const * eap_tls_peap_header_c::get_eap_type_string(void) const
	?set_handshake_type@tls_handshake_message_c@@QAE?AW4eap_status_e@@W4tls_handshake_type_e@@@Z @ 499 NONAME ; enum eap_status_e tls_handshake_message_c::set_handshake_type(enum tls_handshake_type_e)
	?ttls_tunneled_message_state_complete_error_request@tls_application_eap_core_c@@AAE?AW4eap_status_e@@PAVeap_header_wr_c@@@Z @ 500 NONAME ; enum eap_status_e tls_application_eap_core_c::ttls_tunneled_message_state_complete_error_request(class eap_header_wr_c *)
	?add_change_cipher_spec_message@tls_record_message_c@@QAE?AW4eap_status_e@@PAVtls_change_cipher_spec_message_c@@_N@Z @ 501 NONAME ; enum eap_status_e tls_record_message_c::add_change_cipher_spec_message(class tls_change_cipher_spec_message_c *, bool)
	?handle_tls_peap_packet@eap_type_tls_peap_c@@AAE?AW4eap_status_e@@PBVeap_am_network_id_c@@PAVeap_tls_peap_header_c@@K@Z @ 502 NONAME ; enum eap_status_e eap_type_tls_peap_c::handle_tls_peap_packet(class eap_am_network_id_c const *, class eap_tls_peap_header_c *, unsigned long)
	?send_empty_eap_ack@eap_type_tls_peap_c@@AAE?AW4eap_status_e@@XZ @ 503 NONAME ; enum eap_status_e eap_type_tls_peap_c::send_empty_eap_ack(void)
	?get_is_valid@eap_diameter_payloads_c@@QBE_NXZ @ 504 NONAME ; bool eap_diameter_payloads_c::get_is_valid(void) const
	?set_tls_session_type@tls_record_c@@AAE?AW4eap_status_e@@W4tls_session_type_e@@@Z @ 505 NONAME ; enum eap_status_e tls_record_c::set_tls_session_type(enum tls_session_type_e)
	?ttls_client_handles_ms_chapv2_success@tls_application_eap_core_c@@AAE?AW4eap_status_e@@PAVeap_diameter_payloads_c@@E@Z @ 506 NONAME ; enum eap_status_e tls_application_eap_core_c::ttls_client_handles_ms_chapv2_success(class eap_diameter_payloads_c *, unsigned char)
	?get_tls_prf_data@tls_record_c@@AAE?AW4eap_status_e@@PBVeap_variable_data_c@@000PAV3@K@Z @ 507 NONAME ; enum eap_status_e tls_record_c::get_tls_prf_data(class eap_variable_data_c const *, class eap_variable_data_c const *, class eap_variable_data_c const *, class eap_variable_data_c const *, class eap_variable_data_c *, unsigned long)
	?get_is_valid@tls_alert_message_c@@QAE_NXZ @ 508 NONAME ; bool tls_alert_message_c::get_is_valid(void)
	?set_ms_length@mschapv2_header_c@@QAEXG@Z @ 509 NONAME ; void mschapv2_header_c::set_ms_length(unsigned short)
	??1dummy_eap_core_c@@UAE@XZ @ 510 NONAME ; dummy_eap_core_c::~dummy_eap_core_c(void)
	?timer_expired@dummy_eap_core_c@@UAE?AW4eap_status_e@@KPAX@Z @ 511 NONAME ; enum eap_status_e dummy_eap_core_c::timer_expired(unsigned long, void *)
	??1tls_base_record_c@@UAE@XZ @ 512 NONAME ; tls_base_record_c::~tls_base_record_c(void)
	?reset@tls_application_eap_core_c@@UAE?AW4eap_status_e@@XZ @ 513 NONAME ; enum eap_status_e tls_application_eap_core_c::reset(void)
	?analyse_tls_protocol_change_cipher_spec@tls_record_c@@AAE?AW4eap_status_e@@PBVtls_record_message_c@@@Z @ 514 NONAME ; enum eap_status_e tls_record_c::analyse_tls_protocol_change_cipher_spec(class tls_record_message_c const *)
	?get_state@tls_record_c@@ABE?AW4tls_peap_state_e@@XZ @ 515 NONAME ; enum tls_peap_state_e tls_record_c::get_state(void) const
	?rsa_decrypt_with_private_key@eap_am_type_tls_peap_symbian_c@@UAE?AW4eap_status_e@@PBVeap_variable_data_c@@@Z @ 516 NONAME ; enum eap_status_e eap_am_type_tls_peap_symbian_c::rsa_decrypt_with_private_key(class eap_variable_data_c const *)
	?check_ttls_plain_mschapv2_payloads@tls_application_eap_core_c@@AAE?AW4eap_status_e@@PAVeap_diameter_payloads_c@@PAW4eap_ttls_tunneled_message_type_e@@@Z @ 517 NONAME ; enum eap_status_e tls_application_eap_core_c::check_ttls_plain_mschapv2_payloads(class eap_diameter_payloads_c *, enum eap_ttls_tunneled_message_type_e *)
	?set_buffer@eap_diameter_variable_data_c@@QAE?AW4eap_status_e@@Veap_diameter_avp_code_c@@_NPBEK11@Z @ 518 NONAME ; enum eap_status_e eap_diameter_variable_data_c::set_buffer(class eap_diameter_avp_code_c, bool, unsigned char const *, unsigned long, bool, bool)
	?set_alert_level@tls_alert_message_c@@QAE?AW4eap_status_e@@W4tls_alert_level_e@@@Z @ 519 NONAME ; enum eap_status_e tls_alert_message_c::set_alert_level(enum tls_alert_level_e)
	?set_timer@tls_application_eap_core_c@@UAE?AW4eap_status_e@@PAVabs_eap_base_timer_c@@KPAXK@Z @ 520 NONAME ; enum eap_status_e tls_application_eap_core_c::set_timer(class abs_eap_base_timer_c *, unsigned long, void *, unsigned long)
	?start_tls_peap_authentication@eap_type_tls_peap_c@@AAE?AW4eap_status_e@@PBVeap_variable_data_c@@@Z @ 521 NONAME ; enum eap_status_e eap_type_tls_peap_c::start_tls_peap_authentication(class eap_variable_data_c const *)
	?set_nt_response@mschapv2_change_password_c@@QAEXPBE@Z @ 522 NONAME ; void mschapv2_change_password_c::set_nt_response(unsigned char const *)
	?analyse_handshake_type_hello_request@tls_record_c@@AAE?AW4eap_status_e@@PBVtls_handshake_message_c@@@Z @ 523 NONAME ; enum eap_status_e tls_record_c::analyse_handshake_type_hello_request(class tls_handshake_message_c const *)
	??Ieap_diameter_avp_code_c@@QAEPAV0@XZ @ 524 NONAME ; class eap_diameter_avp_code_c * eap_diameter_avp_code_c::operator&(void)
	?query_ttls_pap_username_and_password@tls_record_c@@UAE?AW4eap_status_e@@PBVeap_variable_data_c@@@Z @ 525 NONAME ; enum eap_status_e tls_record_c::query_ttls_pap_username_and_password(class eap_variable_data_c const *)
	?change_cipher_spec@tls_record_c@@UAE?AW4eap_status_e@@_N@Z @ 526 NONAME ; enum eap_status_e tls_record_c::change_cipher_spec(bool)
	?create_compound_session_key_peap_v2@tls_application_eap_core_c@@AAE?AW4eap_status_e@@XZ @ 527 NONAME ; enum eap_status_e tls_application_eap_core_c::create_compound_session_key_peap_v2(void)
	?get_partner@dummy_eap_core_c@@QAEPAVabs_eap_core_c@@XZ @ 528 NONAME ; class abs_eap_core_c * dummy_eap_core_c::get_partner(void)
	?set_constants@mschapv2_change_password_c@@QAE?AW4eap_status_e@@XZ @ 529 NONAME ; enum eap_status_e mschapv2_change_password_c::set_constants(void)
	?are_pending_queries_completed@tls_record_c@@AAE?AW4eap_status_e@@XZ @ 530 NONAME ; enum eap_status_e tls_record_c::are_pending_queries_completed(void)
	?plain_eap_success_failure_packet_received@tls_record_c@@UAE?AW4eap_status_e@@PBVeap_am_network_id_c@@W4eap_code_value_e@@E@Z @ 531 NONAME ; enum eap_status_e tls_record_c::plain_eap_success_failure_packet_received(class eap_am_network_id_c const *, enum eap_code_value_e, unsigned char)
	?generate_key_material@tls_record_c@@QAE?AW4eap_status_e@@XZ @ 532 NONAME ; enum eap_status_e tls_record_c::generate_key_material(void)
	?peap_tunnel_ready@eap_type_tls_peap_c@@UAE?AW4eap_status_e@@XZ @ 533 NONAME ; enum eap_status_e eap_type_tls_peap_c::peap_tunnel_ready(void)
	?set_record_header_copy@tls_record_message_c@@QAE?AW4eap_status_e@@PBVtls_record_header_c@@@Z @ 534 NONAME ; enum eap_status_e tls_record_message_c::set_record_header_copy(class tls_record_header_c const *)
	?read_configure@tls_record_c@@UAE?AW4eap_status_e@@PBVeap_configuration_field_c@@PAVeap_variable_data_c@@@Z @ 535 NONAME ; enum eap_status_e tls_record_c::read_configure(class eap_configuration_field_c const *, class eap_variable_data_c *)
	?get_code_string@eap_tls_peap_header_c@@QBEPBDXZ @ 536 NONAME ; char const * eap_tls_peap_header_c::get_code_string(void) const
	?state_notification@tls_application_eap_core_c@@UAEXPBVabs_eap_state_notification_c@@@Z @ 537 NONAME ; void tls_application_eap_core_c::state_notification(class abs_eap_state_notification_c const *)
	?set_version@tls_record_message_c@@QAE?AW4eap_status_e@@W4tls_version_e@@@Z @ 538 NONAME ; enum eap_status_e tls_record_message_c::set_version(enum tls_version_e)
	?get_signed_message_hash@tls_handshake_message_c@@QBEPBVeap_variable_data_c@@XZ @ 539 NONAME ; class eap_variable_data_c const * tls_handshake_message_c::get_signed_message_hash(void) const
	?read_authority_identity@tls_record_c@@UAE?AW4eap_status_e@@PAVeap_variable_data_c@@@Z @ 540 NONAME ; enum eap_status_e tls_record_c::read_authority_identity(class eap_variable_data_c *)
	?get_change_cipher_spec_type@tls_change_cipher_spec_message_c@@QBE?AW4tls_change_cipher_spec_type_e@@XZ @ 541 NONAME ; enum tls_change_cipher_spec_type_e tls_change_cipher_spec_message_c::get_change_cipher_spec_type(void) const
	?create_server_key_exchange_md5_hash@tls_record_c@@AAE?AW4eap_status_e@@PBVeap_variable_data_c@@00PAV3@@Z @ 542 NONAME ; enum eap_status_e tls_record_c::create_server_key_exchange_md5_hash(class eap_variable_data_c const *, class eap_variable_data_c const *, class eap_variable_data_c const *, class eap_variable_data_c *)
	?get_certificate_chain@tls_handshake_message_c@@QBEPBV?$eap_array_c@Veap_variable_data_c@@@@XZ @ 543 NONAME ; class eap_array_c<class eap_variable_data_c> const * tls_handshake_message_c::get_certificate_chain(void) const
	?get_code_data@eap_diameter_avp_code_c@@QAE?AW4eap_status_e@@PAVabs_eap_am_tools_c@@PAV1@@Z @ 544 NONAME ; enum eap_status_e eap_diameter_avp_code_c::get_code_data(class abs_eap_am_tools_c *, class eap_diameter_avp_code_c *)
	?get_tls_length_offset@eap_tls_peap_header_c@@QBEKXZ @ 545 NONAME ; unsigned long eap_tls_peap_header_c::get_tls_length_offset(void) const
	??0tls_record_message_c@@QAE@PAVabs_eap_am_tools_c@@PAVabs_tls_message_hash_c@@_N@Z @ 546 NONAME ; tls_record_message_c::tls_record_message_c(class abs_eap_am_tools_c *, class abs_tls_message_hash_c *, bool)
	??1tls_application_eap_core_c@@UAE@XZ @ 547 NONAME ; tls_application_eap_core_c::~tls_application_eap_core_c(void)
	?get_record_message_count@tls_message_c@@QBEKXZ @ 548 NONAME ; unsigned long tls_message_c::get_record_message_count(void) const
	?get_session_id@tls_handshake_message_c@@QBEPBVeap_variable_data_c@@XZ @ 549 NONAME ; class eap_variable_data_c const * tls_handshake_message_c::get_session_id(void) const
	?apply_receive_block_cipher_suite@tls_record_c@@AAE?AW4eap_status_e@@PAVeap_variable_data_c@@PAVabs_crypto_cbc_block_algorithm_c@@PAVabs_crypto_hmac_algorithm_c@@@Z @ 550 NONAME ; enum eap_status_e tls_record_c::apply_receive_block_cipher_suite(class eap_variable_data_c *, class abs_crypto_cbc_block_algorithm_c *, class abs_crypto_hmac_algorithm_c *)
	?alert_received@eap_am_type_tls_peap_symbian_c@@UAE?AW4eap_status_e@@W4tls_alert_level_e@@W4tls_alert_description_e@@@Z @ 551 NONAME ; enum eap_status_e eap_am_type_tls_peap_symbian_c::alert_received(enum tls_alert_level_e, enum tls_alert_description_e)
	?set_is_valid@tls_record_c@@EAEXXZ @ 552 NONAME ; void tls_record_c::set_is_valid(void)
	?get_application_data@tls_record_message_c@@QBEPAVtls_application_data_message_c@@K@Z @ 553 NONAME ; class tls_application_data_message_c * tls_record_message_c::get_application_data(unsigned long) const
	?u16_t_to_host_order@tls_record_c@@CA?AW4eap_status_e@@PAGPAVabs_eap_am_tools_c@@@Z @ 554 NONAME ; enum eap_status_e tls_record_c::u16_t_to_host_order(unsigned short *, class abs_eap_am_tools_c *)
	?send_eap_success@dummy_eap_core_c@@QAE?AW4eap_status_e@@PBVeap_am_network_id_c@@E@Z @ 555 NONAME ; enum eap_status_e dummy_eap_core_c::send_eap_success(class eap_am_network_id_c const *, unsigned char)
	?reset@tls_message_c@@QAE?AW4eap_status_e@@XZ @ 556 NONAME ; enum eap_status_e tls_message_c::reset(void)
	?complete_query_certificate_chain@tls_record_c@@UAE?AW4eap_status_e@@PBV?$eap_array_c@Veap_variable_data_c@@@@W42@@Z @ 557 NONAME ; enum eap_status_e tls_record_c::complete_query_certificate_chain(class eap_array_c<class eap_variable_data_c> const *, enum eap_status_e)
	?parse_tls_protocol_application_data@tls_record_c@@AAE?AW4eap_status_e@@PAVtls_record_message_c@@PAVeap_variable_data_c@@@Z @ 558 NONAME ; enum eap_status_e tls_record_c::parse_tls_protocol_application_data(class tls_record_message_c *, class eap_variable_data_c *)
	?set_cipher_suite_applied@tls_record_message_c@@QAEXXZ @ 559 NONAME ; void tls_record_message_c::set_cipher_suite_applied(void)
	?read_configure@tls_application_eap_core_c@@UAE?AW4eap_status_e@@PBVeap_configuration_field_c@@PAVeap_variable_data_c@@@Z @ 560 NONAME ; enum eap_status_e tls_application_eap_core_c::read_configure(class eap_configuration_field_c const *, class eap_variable_data_c *)
	?set_dhe_group_generator@tls_handshake_message_c@@QAE?AW4eap_status_e@@PBVeap_variable_data_c@@@Z @ 561 NONAME ; enum eap_status_e tls_handshake_message_c::set_dhe_group_generator(class eap_variable_data_c const *)
	?set_tls_master_secret@tls_record_c@@QAE?AW4eap_status_e@@PBVeap_variable_data_c@@00@Z @ 562 NONAME ; enum eap_status_e tls_record_c::set_tls_master_secret(class eap_variable_data_c const *, class eap_variable_data_c const *, class eap_variable_data_c const *)
	?set_peer_challenge@mschapv2_change_password_c@@QAEXPBE@Z @ 563 NONAME ; void mschapv2_change_password_c::set_peer_challenge(unsigned char const *)
	?cipher_suite_initialization_stream@tls_record_c@@AAE?AW4eap_status_e@@PAVabs_crypto_stream_algorithm_c@@PBVeap_variable_data_c@@_N@Z @ 564 NONAME ; enum eap_status_e tls_record_c::cipher_suite_initialization_stream(class abs_crypto_stream_algorithm_c *, class eap_variable_data_c const *, bool)
	?unset_marked_removed@dummy_eap_core_c@@QAEXXZ @ 565 NONAME ; void dummy_eap_core_c::unset_marked_removed(void)
	?complete_rsa_decrypt_with_private_key@tls_record_c@@UAE?AW4eap_status_e@@PBVeap_variable_data_c@@W42@@Z @ 566 NONAME ; enum eap_status_e tls_record_c::complete_rsa_decrypt_with_private_key(class eap_variable_data_c const *, enum eap_status_e)
	?set_copy_of_buffer@peap_tlv_variable_data_c@@QAE?AW4eap_status_e@@PBVtls_peap_tlv_header_c@@@Z @ 567 NONAME ; enum eap_status_e peap_tlv_variable_data_c::set_copy_of_buffer(class tls_peap_tlv_header_c const *)
	?is_ietf_code@eap_diameter_avp_code_c@@SA_NV1@@Z @ 568 NONAME ; bool eap_diameter_avp_code_c::is_ietf_code(class eap_diameter_avp_code_c)
	?parse_handshake_type_server_key_exchange@tls_record_c@@AAE?AW4eap_status_e@@PAVtls_record_message_c@@PAVtls_handshake_header_c@@K@Z @ 569 NONAME ; enum eap_status_e tls_record_c::parse_handshake_type_server_key_exchange(class tls_record_message_c *, class tls_handshake_header_c *, unsigned long)
	?get_state_string@eap_tls_trace_string_c@@SAPBDW4tls_peap_state_e@@@Z @ 570 NONAME ; char const * eap_tls_trace_string_c::get_state_string(enum tls_peap_state_e)
	?analyse_handshake_type_certificate@tls_record_c@@AAE?AW4eap_status_e@@PBVtls_handshake_message_c@@@Z @ 571 NONAME ; enum eap_status_e tls_record_c::analyse_handshake_type_certificate(class tls_handshake_message_c const *)
	?add_data_length@tls_record_message_c@@QAE?AW4eap_status_e@@K@Z @ 572 NONAME ; enum eap_status_e tls_record_message_c::add_data_length(unsigned long)
	?set_record_message_data@tls_record_message_c@@QAE?AW4eap_status_e@@PAXK@Z @ 573 NONAME ; enum eap_status_e tls_record_message_c::set_record_message_data(void *, unsigned long)
	?analyse_handshake_type_client_key_exchange@tls_record_c@@AAE?AW4eap_status_e@@PBVtls_handshake_message_c@@@Z @ 574 NONAME ; enum eap_status_e tls_record_c::analyse_handshake_type_client_key_exchange(class tls_handshake_message_c const *)
	?create_message_data@tls_handshake_message_c@@QAE?AW4eap_status_e@@XZ @ 575 NONAME ; enum eap_status_e tls_handshake_message_c::create_message_data(void)
	??8eap_diameter_avp_code_c@@QBE_NABV0@@Z @ 576 NONAME ; bool eap_diameter_avp_code_c::operator==(class eap_diameter_avp_code_c const &) const
	?add_data@eap_diameter_variable_data_c@@QAE?AW4eap_status_e@@PBEK@Z @ 577 NONAME ; enum eap_status_e eap_diameter_variable_data_c::add_data(unsigned char const *, unsigned long)
	?convert_eap_diameter_avp_code_to_u32_t@@YAKVeap_diameter_avp_code_c@@@Z @ 578 NONAME ; unsigned long convert_eap_diameter_avp_code_to_u32_t(class eap_diameter_avp_code_c)
	??0eap_diameter_avp_code_c@@QAE@W4eap_diameter_vendor_id_e@@K@Z @ 579 NONAME ; eap_diameter_avp_code_c::eap_diameter_avp_code_c(enum eap_diameter_vendor_id_e, unsigned long)
	?get_dhe_group_generator@tls_handshake_message_c@@QBEPBVeap_variable_data_c@@XZ @ 580 NONAME ; class eap_variable_data_c const * tls_handshake_message_c::get_dhe_group_generator(void) const
	?parse_tls_protocol_handshake@tls_record_c@@AAE?AW4eap_status_e@@PAVtls_record_message_c@@PAVeap_variable_data_c@@@Z @ 581 NONAME ; enum eap_status_e tls_record_c::parse_tls_protocol_handshake(class tls_record_message_c *, class eap_variable_data_c *)
	?cipher_suite_initialization@tls_record_c@@AAE?AW4eap_status_e@@_N@Z @ 582 NONAME ; enum eap_status_e tls_record_c::cipher_suite_initialization(bool)
	??9eap_diameter_avp_code_c@@QBE_NABV0@@Z @ 583 NONAME ; bool eap_diameter_avp_code_c::operator!=(class eap_diameter_avp_code_c const &) const
	?eap_tls_peap_fragment_send@eap_type_tls_peap_c@@AAE?AW4eap_status_e@@XZ @ 584 NONAME ; enum eap_status_e eap_type_tls_peap_c::eap_tls_peap_fragment_send(void)
	?save_analyse_index@tls_record_message_c@@QAEXK@Z @ 585 NONAME ; void tls_record_message_c::save_analyse_index(unsigned long)
	?complete_query_ttls_pap_username_and_password@tls_record_c@@UAE?AW4eap_status_e@@PBVeap_variable_data_c@@0W42@@Z @ 586 NONAME ; enum eap_status_e tls_record_c::complete_query_ttls_pap_username_and_password(class eap_variable_data_c const *, class eap_variable_data_c const *, enum eap_status_e)
	?packet_process@tls_record_c@@UAE?AW4eap_status_e@@PAVeap_variable_data_c@@E@Z @ 587 NONAME ; enum eap_status_e tls_record_c::packet_process(class eap_variable_data_c *, unsigned char)
	?set_eap_failure_timeout@dummy_eap_core_c@@AAE?AW4eap_status_e@@XZ @ 588 NONAME ; enum eap_status_e dummy_eap_core_c::set_eap_failure_timeout(void)
	??1mschapv2_header_c@@UAE@XZ @ 589 NONAME ; mschapv2_header_c::~mschapv2_header_c(void)
	?get_header_offset@dummy_eap_core_c@@UAEKPAK0@Z @ 590 NONAME ; unsigned long dummy_eap_core_c::get_header_offset(unsigned long *, unsigned long *)
	?get_tls_message_length@eap_tls_peap_header_c@@QBE?AW4eap_status_e@@PAK@Z @ 591 NONAME ; enum eap_status_e eap_tls_peap_header_c::get_tls_message_length(unsigned long *) const
	?allocate_handshake_message_copy@tls_record_c@@AAE?AW4eap_status_e@@PAPAVtls_handshake_message_c@@PAV?$eap_automatic_variable_c@Vtls_handshake_message_c@@@@PAVtls_handshake_header_c@@@Z @ 592 NONAME ; enum eap_status_e tls_record_c::allocate_handshake_message_copy(class tls_handshake_message_c * *, class eap_automatic_variable_c<class tls_handshake_message_c> *, class tls_handshake_header_c *)
	?cancel_session_timeout@dummy_eap_core_c@@AAE?AW4eap_status_e@@XZ @ 593 NONAME ; enum eap_status_e dummy_eap_core_c::cancel_session_timeout(void)
	?apply_send_stream_cipher_suite@tls_record_c@@AAE?AW4eap_status_e@@PAVeap_variable_data_c@@PAVabs_crypto_stream_algorithm_c@@PAVabs_crypto_hmac_algorithm_c@@@Z @ 594 NONAME ; enum eap_status_e tls_record_c::apply_send_stream_cipher_suite(class eap_variable_data_c *, class abs_crypto_stream_algorithm_c *, class abs_crypto_hmac_algorithm_c *)
	?add_record_message@tls_record_c@@AAE?AW4eap_status_e@@PAVtls_handshake_message_c@@@Z @ 595 NONAME ; enum eap_status_e tls_record_c::add_record_message(class tls_handshake_message_c *)
	??0eap_diameter_avp_code_c@@QAE@XZ @ 596 NONAME ; eap_diameter_avp_code_c::eap_diameter_avp_code_c(void)
	?get_tls_session_type_string@eap_tls_trace_string_c@@SAPBDW4tls_session_type_e@@@Z @ 597 NONAME ; char const * eap_tls_trace_string_c::get_tls_session_type_string(enum tls_session_type_e)
	?set_selected_compression_method@tls_handshake_message_c@@QAE?AW4eap_status_e@@W4tls_compression_method_e@@@Z @ 598 NONAME ; enum eap_status_e tls_handshake_message_c::set_selected_compression_method(enum tls_compression_method_e)
	?complete_verify_certificate_chain@tls_record_c@@UAE?AW4eap_status_e@@W42@@Z @ 599 NONAME ; enum eap_status_e tls_record_c::complete_verify_certificate_chain(enum eap_status_e)
	?add_message_data@tls_message_c@@QAE?AW4eap_status_e@@PAVeap_variable_data_c@@PA_N@Z @ 600 NONAME ; enum eap_status_e tls_message_c::add_message_data(class eap_variable_data_c *, bool *)
	?complete_verify_ttls_pap_username_and_password@tls_record_c@@UAE?AW4eap_status_e@@W42@PBVeap_variable_data_c@@@Z @ 601 NONAME ; enum eap_status_e tls_record_c::complete_verify_ttls_pap_username_and_password(enum eap_status_e, class eap_variable_data_c const *)
	?unload_module@dummy_eap_core_c@@UAE?AW4eap_status_e@@Veap_expanded_type_c@@@Z @ 602 NONAME ; enum eap_status_e dummy_eap_core_c::unload_module(class eap_expanded_type_c)
	?get_nak_tlv@peap_tlv_payloads_c@@QAEPAVpeap_tlv_variable_data_c@@XZ @ 603 NONAME ; class peap_tlv_variable_data_c * peap_tlv_payloads_c::get_nak_tlv(void)
	?set_session_id@tls_handshake_message_c@@QAE?AW4eap_status_e@@PBVeap_variable_data_c@@@Z @ 604 NONAME ; enum eap_status_e tls_handshake_message_c::set_session_id(class eap_variable_data_c const *)
	?get_data@eap_tls_peap_header_c@@QBEPAEPAVabs_eap_am_tools_c@@K@Z @ 605 NONAME ; unsigned char * eap_tls_peap_header_c::get_data(class abs_eap_am_tools_c *, unsigned long) const
	?set_code_values@eap_diameter_avp_code_c@@QAEXW4eap_diameter_vendor_id_e@@K@Z @ 606 NONAME ; void eap_diameter_avp_code_c::set_code_values(enum eap_diameter_vendor_id_e, unsigned long)
	??1mschapv2_change_password_c@@UAE@XZ @ 607 NONAME ; mschapv2_change_password_c::~mschapv2_change_password_c(void)
	?set_session_timeout@tls_application_eap_core_c@@UAE?AW4eap_status_e@@K@Z @ 608 NONAME ; enum eap_status_e tls_application_eap_core_c::set_session_timeout(unsigned long)
	?create_server_key_exchange_sha1_hash@tls_record_c@@AAE?AW4eap_status_e@@PBVeap_variable_data_c@@00PAV3@@Z @ 609 NONAME ; enum eap_status_e tls_record_c::create_server_key_exchange_sha1_hash(class eap_variable_data_c const *, class eap_variable_data_c const *, class eap_variable_data_c const *, class eap_variable_data_c *)
	?analyse_handshake_type_server_key_exchange@tls_record_c@@AAE?AW4eap_status_e@@PBVtls_handshake_message_c@@@Z @ 610 NONAME ; enum eap_status_e tls_record_c::analyse_handshake_type_server_key_exchange(class tls_handshake_message_c const *)
	??1tls_message_c@@UAE@XZ @ 611 NONAME ; tls_message_c::~tls_message_c(void)
	?ttls_tunneled_message_state_process_success_request@tls_application_eap_core_c@@AAE?AW4eap_status_e@@PAVeap_header_wr_c@@@Z @ 612 NONAME ; enum eap_status_e tls_application_eap_core_c::ttls_tunneled_message_state_process_success_request(class eap_header_wr_c *)
	?reset_hmac_algorithms@tls_record_c@@AAEX_N@Z @ 613 NONAME ; void tls_record_c::reset_hmac_algorithms(bool)
	?get_eap_length@eap_tls_peap_header_c@@QBEGXZ @ 614 NONAME ; unsigned short eap_tls_peap_header_c::get_eap_length(void) const
	?convert_eap_diameter_avp_code_to_u64_t@@YA_KVeap_diameter_avp_code_c@@@Z @ 615 NONAME ; unsigned long long convert_eap_diameter_avp_code_to_u64_t(class eap_diameter_avp_code_c)
	?set_is_valid@tls_record_message_c@@AAEXXZ @ 616 NONAME ; void tls_record_message_c::set_is_valid(void)
	?get_header_length@eap_tls_peap_header_c@@QBEKXZ @ 617 NONAME ; unsigned long eap_tls_peap_header_c::get_header_length(void) const
	?set_is_valid@tls_completion_c@@AAEXXZ @ 618 NONAME ; void tls_completion_c::set_is_valid(void)
	?generate_nai@eap_type_tls_peap_c@@AAE?AW4eap_status_e@@PAVeap_variable_data_c@@PBV3@1@Z @ 619 NONAME ; enum eap_status_e eap_type_tls_peap_c::generate_nai(class eap_variable_data_c *, class eap_variable_data_c const *, class eap_variable_data_c const *)
	?add_rogue_ap@dummy_eap_core_c@@UAE?AW4eap_status_e@@AAV?$eap_array_c@Veap_rogue_ap_entry_c@@@@@Z @ 620 NONAME ; enum eap_status_e dummy_eap_core_c::add_rogue_ap(class eap_array_c<class eap_rogue_ap_entry_c> &)
	?reset@eap_am_type_tls_peap_symbian_c@@UAE?AW4eap_status_e@@XZ @ 621 NONAME ; enum eap_status_e eap_am_type_tls_peap_symbian_c::reset(void)
	?restart_with_new_type@dummy_eap_core_c@@AAE?AW4eap_status_e@@Veap_expanded_type_c@@PBVeap_am_network_id_c@@E@Z @ 622 NONAME ; enum eap_status_e dummy_eap_core_c::restart_with_new_type(class eap_expanded_type_c, class eap_am_network_id_c const *, unsigned char)
	?indicate_state_to_lower_layer@tls_record_c@@AAE?AW4eap_status_e@@W4tls_peap_state_e@@@Z @ 623 NONAME ; enum eap_status_e tls_record_c::indicate_state_to_lower_layer(enum tls_peap_state_e)
	?start_peap_tunneled_authentication@tls_application_eap_core_c@@UAE?AW4eap_status_e@@PBVeap_am_network_id_c@@_NEW4tls_session_type_e@@1@Z @ 624 NONAME ; enum eap_status_e tls_application_eap_core_c::start_peap_tunneled_authentication(class eap_am_network_id_c const *, bool, unsigned char, enum tls_session_type_e, bool)
	?get_application_partner@tls_application_eap_core_c@@UAEPAVabs_tls_base_application_c@@XZ @ 625 NONAME ; class abs_tls_base_application_c * tls_application_eap_core_c::get_application_partner(void)
	?get_saved_eap_identity@dummy_eap_core_c@@UAE?AW4eap_status_e@@PAVeap_variable_data_c@@@Z @ 626 NONAME ; enum eap_status_e dummy_eap_core_c::get_saved_eap_identity(class eap_variable_data_c *)
	?set_data_length@eap_tls_peap_header_c@@QAEXK_N@Z @ 627 NONAME ; void eap_tls_peap_header_c::set_data_length(unsigned long, bool)
	?generate_dhe_keys@tls_record_c@@AAE?AW4eap_status_e@@XZ @ 628 NONAME ; enum eap_status_e tls_record_c::generate_dhe_keys(void)
	?cancel_query_tunnel_PAC@tls_application_eap_core_c@@UAE?AW4eap_status_e@@XZ @ 629 NONAME ; enum eap_status_e tls_application_eap_core_c::cancel_query_tunnel_PAC(void)
	?configure@dummy_eap_core_c@@UAE?AW4eap_status_e@@XZ @ 630 NONAME ; enum eap_status_e dummy_eap_core_c::configure(void)
	?create_tls_application_data@tls_record_c@@AAE?AW4eap_status_e@@PAVeap_buf_chain_wr_c@@K@Z @ 631 NONAME ; enum eap_status_e tls_record_c::create_tls_application_data(class eap_buf_chain_wr_c *, unsigned long)
	?tls_peap_packet_send@eap_type_tls_peap_c@@UAE?AW4eap_status_e@@PAVeap_buf_chain_wr_c@@KKK_N@Z @ 632 NONAME ; enum eap_status_e eap_type_tls_peap_c::tls_peap_packet_send(class eap_buf_chain_wr_c *, unsigned long, unsigned long, unsigned long, bool)
	?unset_failure_message_received@eap_type_tls_peap_c@@AAEXXZ @ 633 NONAME ; void eap_type_tls_peap_c::unset_failure_message_received(void)
	?set_tls_message_length@eap_tls_peap_header_c@@QAEXK@Z @ 634 NONAME ; void eap_tls_peap_header_c::set_tls_message_length(unsigned long)
	?cancel_timer@tls_application_eap_core_c@@UAE?AW4eap_status_e@@PAVabs_eap_base_timer_c@@K@Z @ 635 NONAME ; enum eap_status_e tls_application_eap_core_c::cancel_timer(class abs_eap_base_timer_c *, unsigned long)
	?eap_acknowledge@eap_type_tls_peap_c@@UAE?AW4eap_status_e@@PBVeap_am_network_id_c@@@Z @ 636 NONAME ; enum eap_status_e eap_type_tls_peap_c::eap_acknowledge(class eap_am_network_id_c const *)
	?create_nonce_peap_v2@tls_application_eap_core_c@@AAE?AW4eap_status_e@@_N@Z @ 637 NONAME ; enum eap_status_e tls_application_eap_core_c::create_nonce_peap_v2(bool)
	?store_nonce_peap_v2@tls_application_eap_core_c@@AAE?AW4eap_status_e@@_NPAVpeap_tlv_payloads_c@@@Z @ 638 NONAME ; enum eap_status_e tls_application_eap_core_c::store_nonce_peap_v2(bool, class peap_tlv_payloads_c *)
	?sign_with_private_key@eap_am_type_tls_peap_symbian_c@@UAE?AW4eap_status_e@@PBVeap_variable_data_c@@@Z @ 639 NONAME ; enum eap_status_e eap_am_type_tls_peap_symbian_c::sign_with_private_key(class eap_variable_data_c const *)
	?create_eap_payload_tlv_message@tls_application_eap_core_c@@AAE?AW4eap_status_e@@PAVeap_buf_chain_wr_c@@PBVeap_header_wr_c@@E@Z @ 640 NONAME ; enum eap_status_e tls_application_eap_core_c::create_eap_payload_tlv_message(class eap_buf_chain_wr_c *, class eap_header_wr_c const *, unsigned char)
	?set_tunneled_state@tls_application_eap_core_c@@UAEXW4tls_session_type_e@@@Z @ 641 NONAME ; void tls_application_eap_core_c::set_tunneled_state(enum tls_session_type_e)
	?reset@eap_type_tls_peap_c@@UAE?AW4eap_status_e@@XZ @ 642 NONAME ; enum eap_status_e eap_type_tls_peap_c::reset(void)
	?get_alert_description@tls_alert_message_c@@QBE?AW4tls_alert_description_e@@XZ @ 643 NONAME ; enum tls_alert_description_e tls_alert_message_c::get_alert_description(void) const
	?set_signed_message_hash@tls_handshake_message_c@@QAE?AW4eap_status_e@@PBVeap_variable_data_c@@@Z @ 644 NONAME ; enum eap_status_e tls_handshake_message_c::set_signed_message_hash(class eap_variable_data_c const *)
	?save_current_state@eap_type_tls_peap_c@@AAEXXZ @ 645 NONAME ; void eap_type_tls_peap_c::save_current_state(void)
	?object_increase_reference_count@eap_diameter_variable_data_c@@QAEXXZ @ 646 NONAME ; void eap_diameter_variable_data_c::object_increase_reference_count(void)
	?get_name_length@mschapv2_response_c@@QBEKXZ @ 647 NONAME ; unsigned long mschapv2_response_c::get_name_length(void) const
	?get_opcode@mschapv2_header_c@@QBE?AW4mschapv2_opcode_e@@XZ @ 648 NONAME ; enum mschapv2_opcode_e mschapv2_header_c::get_opcode(void) const
	?set_selected_cipher_suite@tls_record_c@@AAEXW4tls_cipher_suites_e@@@Z @ 649 NONAME ; void tls_record_c::set_selected_cipher_suite(enum tls_cipher_suites_e)
	?get_eap_type@eap_tls_peap_header_c@@QBE?AVeap_expanded_type_c@@XZ @ 650 NONAME ; class eap_expanded_type_c eap_tls_peap_header_c::get_eap_type(void) const
	?cancel_retransmission@dummy_eap_core_c@@AAE?AW4eap_status_e@@XZ @ 651 NONAME ; enum eap_status_e dummy_eap_core_c::cancel_retransmission(void)
	?get_eap_identifier@eap_tls_peap_header_c@@QBEEXZ @ 652 NONAME ; unsigned char eap_tls_peap_header_c::get_eap_identifier(void) const
	??1eap_am_type_tls_peap_symbian_c@@UAE@XZ @ 653 NONAME ; eap_am_type_tls_peap_symbian_c::~eap_am_type_tls_peap_symbian_c(void)
	?send_final_notification@eap_type_tls_peap_c@@AAE?AW4eap_status_e@@XZ @ 654 NONAME ; enum eap_status_e eap_type_tls_peap_c::send_final_notification(void)
	?set_is_analysed@tls_handshake_message_c@@QAEXXZ @ 655 NONAME ; void tls_handshake_message_c::set_is_analysed(void)
	?add_message_data@tls_application_data_message_c@@QAE?AW4eap_status_e@@PAVeap_variable_data_c@@@Z @ 656 NONAME ; enum eap_status_e tls_application_data_message_c::add_message_data(class eap_variable_data_c *)
	?get_header_minimum_size@mschapv2_response_c@@SAKXZ @ 657 NONAME ; unsigned long mschapv2_response_c::get_header_minimum_size(void)
	?packet_trace@eap_type_tls_peap_c@@AAEXPBDPBVeap_am_network_id_c@@PAVeap_header_wr_c@@K@Z @ 658 NONAME ; void eap_type_tls_peap_c::packet_trace(char const *, class eap_am_network_id_c const *, class eap_header_wr_c *, unsigned long)
	?shutdown@eap_type_tls_peap_c@@UAE?AW4eap_status_e@@XZ @ 659 NONAME ; enum eap_status_e eap_type_tls_peap_c::shutdown(void)
	?get_tls_session_type@tls_record_c@@AAE?AW4tls_session_type_e@@XZ @ 660 NONAME ; enum tls_session_type_e tls_record_c::get_tls_session_type(void)
	?get_alert_level@tls_alert_message_c@@QBE?AW4tls_alert_level_e@@XZ @ 661 NONAME ; enum tls_alert_level_e tls_alert_message_c::get_alert_level(void) const
	?process_tls_message@tls_record_c@@AAE?AW4eap_status_e@@XZ @ 662 NONAME ; enum eap_status_e tls_record_c::process_tls_message(void)
	?cancel_rsa_decrypt_with_private_key@eap_am_type_tls_peap_symbian_c@@UAE?AW4eap_status_e@@XZ @ 663 NONAME ; enum eap_status_e eap_am_type_tls_peap_symbian_c::cancel_rsa_decrypt_with_private_key(void)
	?timer_delete_data@eap_type_tls_peap_c@@UAE?AW4eap_status_e@@KPAX@Z @ 664 NONAME ; enum eap_status_e eap_type_tls_peap_c::timer_delete_data(unsigned long, void *)
	?get_finished_data@tls_handshake_message_c@@QBEPBVeap_variable_data_c@@XZ @ 665 NONAME ; class eap_variable_data_c const * tls_handshake_message_c::get_finished_data(void) const
	?peap_tunnel_ready@tls_application_eap_core_c@@UAE?AW4eap_status_e@@XZ @ 666 NONAME ; enum eap_status_e tls_application_eap_core_c::peap_tunnel_ready(void)
	?set_initial_eap_identifier@eap_type_tls_peap_c@@UAE?AW4eap_status_e@@PBVeap_am_network_id_c@@E@Z @ 667 NONAME ; enum eap_status_e eap_type_tls_peap_c::set_initial_eap_identifier(class eap_am_network_id_c const *, unsigned char)
	?check_mandatory_payloads@eap_diameter_payloads_c@@QAE?AW4eap_status_e@@PBV?$eap_array_c@Veap_diameter_avp_code_c@@@@@Z @ 668 NONAME ; enum eap_status_e eap_diameter_payloads_c::check_mandatory_payloads(class eap_array_c<class eap_diameter_avp_code_c> const *)
	?set_name@mschapv2_challenge_c@@QAEXPBE@Z @ 669 NONAME ; void mschapv2_challenge_c::set_name(unsigned char const *)
	?create_compound_mac_key_peap_v2@tls_application_eap_core_c@@AAE?AW4eap_status_e@@_N@Z @ 670 NONAME ; enum eap_status_e tls_application_eap_core_c::create_compound_mac_key_peap_v2(bool)
	?cipher_suite_initialization_cbc@tls_record_c@@AAE?AW4eap_status_e@@PAPAVabs_crypto_cbc_block_algorithm_c@@PAVabs_crypto_block_algorithm_c@@PBVeap_variable_data_c@@2_N@Z @ 671 NONAME ; enum eap_status_e tls_record_c::cipher_suite_initialization_cbc(class abs_crypto_cbc_block_algorithm_c * *, class abs_crypto_block_algorithm_c *, class eap_variable_data_c const *, class eap_variable_data_c const *, bool)
	?parse_handshake_type_client_key_exchange@tls_record_c@@AAE?AW4eap_status_e@@PAVtls_record_message_c@@PAVtls_handshake_header_c@@K@Z @ 672 NONAME ; enum eap_status_e tls_record_c::parse_handshake_type_client_key_exchange(class tls_record_message_c *, class tls_handshake_header_c *, unsigned long)
	??0tls_application_eap_core_c@@QAE@PAVabs_eap_am_tools_c@@PAVeap_core_c@@_N2Veap_expanded_type_c@@PBVeap_am_network_id_c@@@Z @ 673 NONAME ; tls_application_eap_core_c::tls_application_eap_core_c(class abs_eap_am_tools_c *, class eap_core_c *, bool, bool, class eap_expanded_type_c, class eap_am_network_id_c const *)
	?restart_authentication@tls_application_eap_core_c@@UAE?AW4eap_status_e@@PBVeap_am_network_id_c@@_N11@Z @ 674 NONAME ; enum eap_status_e tls_application_eap_core_c::restart_authentication(class eap_am_network_id_c const *, bool, bool, bool)
	?handle_ttls_plain_pap_payloads@tls_application_eap_core_c@@AAE?AW4eap_status_e@@PAVeap_diameter_payloads_c@@W4eap_ttls_tunneled_message_type_e@@E@Z @ 675 NONAME ; enum eap_status_e tls_application_eap_core_c::handle_ttls_plain_pap_payloads(class eap_diameter_payloads_c *, enum eap_ttls_tunneled_message_type_e, unsigned char)
	?cipher_suite_is_TLS_RSA@tls_record_c@@ABE_NXZ @ 676 NONAME ; bool tls_record_c::cipher_suite_is_TLS_RSA(void) const
	?cipher_suite_initialization_hmac_sha1@tls_record_c@@AAE?AW4eap_status_e@@_N@Z @ 677 NONAME ; enum eap_status_e tls_record_c::cipher_suite_initialization_hmac_sha1(bool)
	?set_partner@dummy_eap_core_c@@QAEXPAVabs_eap_core_c@@@Z @ 678 NONAME ; void dummy_eap_core_c::set_partner(class abs_eap_core_c *)
	?packet_data_crypto_keys@eap_type_tls_peap_c@@UAE?AW4eap_status_e@@PBVeap_am_network_id_c@@PBVeap_master_session_key_c@@@Z @ 679 NONAME ; enum eap_status_e eap_type_tls_peap_c::packet_data_crypto_keys(class eap_am_network_id_c const *, class eap_master_session_key_c const *)
	?save_analyse_index@tls_message_c@@QAEXK@Z @ 680 NONAME ; void tls_message_c::save_analyse_index(unsigned long)
	?get_is_client@eap_type_tls_peap_c@@UAE_NXZ @ 681 NONAME ; bool eap_type_tls_peap_c::get_is_client(void)
	?cipher_suite_is_RC4_128_MD5@tls_record_c@@ABE_NW4tls_cipher_suites_e@@@Z @ 682 NONAME ; bool tls_record_c::cipher_suite_is_RC4_128_MD5(enum tls_cipher_suites_e) const
	?packet_forward_to_tunnel@tls_application_eap_core_c@@AAE?AW4eap_status_e@@PBVeap_am_network_id_c@@PAVeap_header_wr_c@@K@Z @ 683 NONAME ; enum eap_status_e tls_application_eap_core_c::packet_forward_to_tunnel(class eap_am_network_id_c const *, class eap_header_wr_c *, unsigned long)
	?create_random_eap_identity@eap_type_tls_peap_c@@AAE?AW4eap_status_e@@PAVeap_variable_data_c@@@Z @ 684 NONAME ; enum eap_status_e eap_type_tls_peap_c::create_random_eap_identity(class eap_variable_data_c *)
	??0eap_tls_trace_string_c@@QAE@XZ @ 685 NONAME ; eap_tls_trace_string_c::eap_tls_trace_string_c(void)
	?read_configure@dummy_eap_core_c@@UAE?AW4eap_status_e@@PBVeap_configuration_field_c@@PAVeap_variable_data_c@@@Z @ 686 NONAME ; enum eap_status_e dummy_eap_core_c::read_configure(class eap_configuration_field_c const *, class eap_variable_data_c *)
	?cipher_suite_initialization_hmac_md5@tls_record_c@@AAE?AW4eap_status_e@@_N@Z @ 687 NONAME ; enum eap_status_e tls_record_c::cipher_suite_initialization_hmac_md5(bool)
	?parse_handshake_type_client_hello@tls_record_c@@AAE?AW4eap_status_e@@PAVtls_record_message_c@@PAVtls_handshake_header_c@@K@Z @ 688 NONAME ; enum eap_status_e tls_record_c::parse_handshake_type_client_hello(class tls_record_message_c *, class tls_handshake_header_c *, unsigned long)
	?fragment_tls_records@tls_message_c@@QAE?AW4eap_status_e@@PAVtls_record_message_c@@PAV?$eap_array_c@Vtls_record_message_c@@@@@Z @ 689 NONAME ; enum eap_status_e tls_message_c::fragment_tls_records(class tls_record_message_c *, class eap_array_c<class tls_record_message_c> *)
	?apply_send_block_cipher_suite@tls_record_c@@AAE?AW4eap_status_e@@PAVeap_variable_data_c@@PAVabs_crypto_cbc_block_algorithm_c@@PAVabs_crypto_hmac_algorithm_c@@@Z @ 690 NONAME ; enum eap_status_e tls_record_c::apply_send_block_cipher_suite(class eap_variable_data_c *, class abs_crypto_cbc_block_algorithm_c *, class abs_crypto_hmac_algorithm_c *)
	?get_name@mschapv2_response_c@@QBEPBEXZ @ 691 NONAME ; unsigned char const * mschapv2_response_c::get_name(void) const
	?create_message_data@tls_alert_message_c@@QAE?AW4eap_status_e@@XZ @ 692 NONAME ; enum eap_status_e tls_alert_message_c::create_message_data(void)
	?state_notification@tls_record_c@@UAEXPBVabs_eap_state_notification_c@@@Z @ 693 NONAME ; void tls_record_c::state_notification(class abs_eap_state_notification_c const *)
	?start_tls_peap_authentication@tls_record_c@@UAE?AW4eap_status_e@@PBVeap_variable_data_c@@@Z @ 694 NONAME ; enum eap_status_e tls_record_c::start_tls_peap_authentication(class eap_variable_data_c const *)
	?get_data_length@mschapv2_header_c@@QBEKXZ @ 695 NONAME ; unsigned long mschapv2_header_c::get_data_length(void) const
	?update_buffer_indexes@eap_type_tls_peap_c@@AAEXKKPAK0@Z @ 696 NONAME ; void eap_type_tls_peap_c::update_buffer_indexes(unsigned long, unsigned long, unsigned long *, unsigned long *)
	?initialize_session_timeout@dummy_eap_core_c@@AAE?AW4eap_status_e@@K@Z @ 697 NONAME ; enum eap_status_e dummy_eap_core_c::initialize_session_timeout(unsigned long)
	?set_type_partner@tls_base_record_c@@QAEXPAVabs_tls_base_record_c@@@Z @ 698 NONAME ; void tls_base_record_c::set_type_partner(class abs_tls_base_record_c *)
	??0dummy_eap_core_c@@QAE@PAVabs_eap_am_tools_c@@PAVabs_eap_core_c@@_NPBVeap_am_network_id_c@@2@Z @ 699 NONAME ; dummy_eap_core_c::dummy_eap_core_c(class abs_eap_am_tools_c *, class abs_eap_core_c *, bool, class eap_am_network_id_c const *, bool)
	?restart_authentication@eap_type_tls_peap_c@@UAE?AW4eap_status_e@@PBVeap_am_network_id_c@@_N11@Z @ 700 NONAME ; enum eap_status_e eap_type_tls_peap_c::restart_authentication(class eap_am_network_id_c const *, bool, bool, bool)
	?add_application_data_message@tls_record_message_c@@QAE?AW4eap_status_e@@PAVtls_application_data_message_c@@_N@Z @ 701 NONAME ; enum eap_status_e tls_record_message_c::add_application_data_message(class tls_application_data_message_c *, bool)
	?verify_signature_of_server_key_exchange@tls_record_c@@AAE?AW4eap_status_e@@PBVeap_variable_data_c@@@Z @ 702 NONAME ; enum eap_status_e tls_record_c::verify_signature_of_server_key_exchange(class eap_variable_data_c const *)
	?set_random_value@tls_handshake_message_c@@QAE?AW4eap_status_e@@PBVeap_variable_data_c@@@Z @ 703 NONAME ; enum eap_status_e tls_handshake_message_c::set_random_value(class eap_variable_data_c const *)
	?set_is_valid@eap_am_type_tls_peap_symbian_c@@QAEXXZ @ 704 NONAME ; void eap_am_type_tls_peap_symbian_c::set_is_valid(void)
	?message_hash_save_certificate_verify@tls_record_c@@EAE?AW4eap_status_e@@XZ @ 705 NONAME ; enum eap_status_e tls_record_c::message_hash_save_certificate_verify(void)
	??1tls_handshake_message_c@@UAE@XZ @ 706 NONAME ; tls_handshake_message_c::~tls_handshake_message_c(void)
	?set_tls_flag_value@eap_tls_peap_header_c@@QBEXEKK@Z @ 707 NONAME ; void eap_tls_peap_header_c::set_tls_flag_value(unsigned char, unsigned long, unsigned long) const
	?get_NAI@eap_type_tls_peap_c@@AAEPAVeap_variable_data_c@@XZ @ 708 NONAME ; class eap_variable_data_c * eap_type_tls_peap_c::get_NAI(void)
	?create_message_data@tls_change_cipher_spec_message_c@@QAE?AW4eap_status_e@@XZ @ 709 NONAME ; enum eap_status_e tls_change_cipher_spec_message_c::create_message_data(void)
	?indicate_messages_processed@tls_record_c@@AAE?AW4eap_status_e@@XZ @ 710 NONAME ; enum eap_status_e tls_record_c::indicate_messages_processed(void)
	?ttls_tunneled_message_state_process_challenge_request@tls_application_eap_core_c@@AAE?AW4eap_status_e@@PAVeap_header_wr_c@@@Z @ 711 NONAME ; enum eap_status_e tls_application_eap_core_c::ttls_tunneled_message_state_process_challenge_request(class eap_header_wr_c *)
	?create_handshake_type_client_hello@tls_record_c@@AAE?AW4eap_status_e@@XZ @ 712 NONAME ; enum eap_status_e tls_record_c::create_handshake_type_client_hello(void)
	??8eap_diameter_avp_code_c@@QBE_NW4eap_diameter_avp_code_of_ietf_e@@@Z @ 713 NONAME ; bool eap_diameter_avp_code_c::operator==(enum eap_diameter_avp_code_of_ietf_e) const
	?get_application_data@tls_application_data_message_c@@QAEPAVeap_variable_data_c@@XZ @ 714 NONAME ; class eap_variable_data_c * tls_application_data_message_c::get_application_data(void)
	?save_current_reassembly_state@eap_type_tls_peap_c@@AAEXXZ @ 715 NONAME ; void eap_type_tls_peap_c::save_current_reassembly_state(void)
	?parse_generic_payload@eap_diameter_payloads_c@@QAE?AW4eap_status_e@@Veap_diameter_avp_code_c@@PBVeap_diameter_avp_header_c@@@Z @ 716 NONAME ; enum eap_status_e eap_diameter_payloads_c::parse_generic_payload(class eap_diameter_avp_code_c, class eap_diameter_avp_header_c const *)
	?set_constants@mschapv2_response_c@@QAE?AW4eap_status_e@@XZ @ 717 NONAME ; enum eap_status_e mschapv2_response_c::set_constants(void)
	?ttls_tunneled_message_state_process_response@tls_application_eap_core_c@@AAE?AW4eap_status_e@@PAVeap_header_wr_c@@@Z @ 718 NONAME ; enum eap_status_e tls_application_eap_core_c::ttls_tunneled_message_state_process_response(class eap_header_wr_c *)
	?set_session_timeout@tls_record_c@@UAE?AW4eap_status_e@@K@Z @ 719 NONAME ; enum eap_status_e tls_record_c::set_session_timeout(unsigned long)
	?get_flag_tls_length_included@eap_tls_peap_header_c@@QBE_NXZ @ 720 NONAME ; bool eap_tls_peap_header_c::get_flag_tls_length_included(void) const
	?set_is_valid@dummy_eap_core_c@@UAEXXZ @ 721 NONAME ; void dummy_eap_core_c::set_is_valid(void)
	?cancel_query_certificate_chain@eap_am_type_tls_peap_symbian_c@@UAE?AW4eap_status_e@@XZ @ 722 NONAME ; enum eap_status_e eap_am_type_tls_peap_symbian_c::cancel_query_certificate_chain(void)
	?reset_block_ciphers@tls_record_c@@AAEX_N@Z @ 723 NONAME ; void tls_record_c::reset_block_ciphers(bool)
	?create_eap_diameter_avp_message@tls_application_eap_core_c@@AAE?AW4eap_status_e@@PAVeap_buf_chain_wr_c@@PBVeap_header_wr_c@@E@Z @ 724 NONAME ; enum eap_status_e tls_application_eap_core_c::create_eap_diameter_avp_message(class eap_buf_chain_wr_c *, class eap_header_wr_c const *, unsigned char)
	?get_random_value@tls_handshake_message_c@@QBEPBVeap_variable_data_c@@XZ @ 725 NONAME ; class eap_variable_data_c const * tls_handshake_message_c::get_random_value(void) const
	?set_tls_master_secret@eap_type_tls_peap_c@@UAE?AW4eap_status_e@@PBVeap_variable_data_c@@@Z @ 726 NONAME ; enum eap_status_e eap_type_tls_peap_c::set_tls_master_secret(class eap_variable_data_c const *)
	?load_module@tls_record_c@@UAE?AW4eap_status_e@@Veap_expanded_type_c@@0PAVabs_eap_base_type_c@@PAPAVeap_base_type_c@@_NPBVeap_am_network_id_c@@@Z @ 727 NONAME ; enum eap_status_e tls_record_c::load_module(class eap_expanded_type_c, class eap_expanded_type_c, class abs_eap_base_type_c *, class eap_base_type_c * *, bool, class eap_am_network_id_c const *)
	?timer_delete_data@dummy_eap_core_c@@UAE?AW4eap_status_e@@KPAX@Z @ 728 NONAME ; enum eap_status_e dummy_eap_core_c::timer_delete_data(unsigned long, void *)
	?complete_query_realm@tls_record_c@@UAE?AW4eap_status_e@@PBVeap_variable_data_c@@W42@@Z @ 729 NONAME ; enum eap_status_e tls_record_c::complete_query_realm(class eap_variable_data_c const *, enum eap_status_e)
	??0mschapv2_challenge_c@@QAE@PAVabs_eap_am_tools_c@@PAXK@Z @ 730 NONAME ; mschapv2_challenge_c::mschapv2_challenge_c(class abs_eap_am_tools_c *, void *, unsigned long)
	?set_timer@eap_type_tls_peap_c@@UAE?AW4eap_status_e@@PAVabs_eap_base_timer_c@@KPAXK@Z @ 731 NONAME ; enum eap_status_e eap_type_tls_peap_c::set_timer(class abs_eap_base_timer_c *, unsigned long, void *, unsigned long)
	?verify_with_public_key@eap_am_type_tls_peap_symbian_c@@UAE?AW4eap_status_e@@PBVeap_variable_data_c@@0@Z @ 732 NONAME ; enum eap_status_e eap_am_type_tls_peap_symbian_c::verify_with_public_key(class eap_variable_data_c const *, class eap_variable_data_c const *)
	?type_configure_read@eap_am_type_tls_peap_symbian_c@@UAE?AW4eap_status_e@@PBVeap_configuration_field_c@@PAVeap_variable_data_c@@@Z @ 733 NONAME ; enum eap_status_e eap_am_type_tls_peap_symbian_c::type_configure_read(class eap_configuration_field_c const *, class eap_variable_data_c *)
	?get_header_offset@eap_type_tls_peap_c@@UAEKPAK0@Z @ 734 NONAME ; unsigned long eap_type_tls_peap_c::get_header_offset(unsigned long *, unsigned long *)
	?check_selected_compression_method@tls_record_c@@AAE?AW4eap_status_e@@W4tls_compression_method_e@@@Z @ 735 NONAME ; enum eap_status_e tls_record_c::check_selected_compression_method(enum tls_compression_method_e)
	?get_is_valid@tls_handshake_message_c@@QAE_NXZ @ 736 NONAME ; bool tls_handshake_message_c::get_is_valid(void)
	?get_header_offset@tls_application_eap_core_c@@UAEKPAK0@Z @ 737 NONAME ; unsigned long tls_application_eap_core_c::get_header_offset(unsigned long *, unsigned long *)
	?resend_packet@dummy_eap_core_c@@AAE?AW4eap_status_e@@PBVeap_am_network_id_c@@PAVeap_buf_chain_wr_c@@KKKK@Z @ 738 NONAME ; enum eap_status_e dummy_eap_core_c::resend_packet(class eap_am_network_id_c const *, class eap_buf_chain_wr_c *, unsigned long, unsigned long, unsigned long, unsigned long)
	?set_marked_removed@dummy_eap_core_c@@QAEXXZ @ 739 NONAME ; void dummy_eap_core_c::set_marked_removed(void)

