EXPORTS
	?ImplementationGroupProxy@@YAPBUTImplementationProxy@@AAH@Z @ 1 NONAME ; struct TImplementationProxy const * ImplementationGroupProxy(int &)
	?configure@eap_core_client_message_if_c@@UAE?AW4eap_status_e@@XZ @ 2 NONAME ; enum eap_status_e eap_core_client_message_if_c::configure(void)
	?process_message@eap_core_client_message_if_c@@AAE?AW4eap_status_e@@PAVeap_process_tlv_message_data_c@@@Z @ 3 NONAME ; enum eap_status_e eap_core_client_message_if_c::process_message(class eap_process_tlv_message_data_c *)
	?timer_expired@eap_core_client_message_if_c@@UAE?AW4eap_status_e@@KPAX@Z @ 4 NONAME ; enum eap_status_e eap_core_client_message_if_c::timer_expired(unsigned long, void *)
	?new_eap_am_client_message_if_c@@YAPAVeap_am_message_if_c@@PAVabs_eap_am_tools_c@@_NK@Z @ 5 NONAME ; class eap_am_message_if_c * new_eap_am_client_message_if_c(class abs_eap_am_tools_c *, bool, unsigned long)
	?eap_acknowledge@eap_core_client_message_if_c@@UAE?AW4eap_status_e@@PBVeap_am_network_id_c@@@Z @ 6 NONAME ; enum eap_status_e eap_core_client_message_if_c::eap_acknowledge(class eap_am_network_id_c const *)
	?SendData@CEapCoreInterface@@UAEHPBXH@Z @ 7 NONAME ; int CEapCoreInterface::SendData(void const *, int)
	?send_data@eap_core_client_message_if_c@@UAE?AW4eap_status_e@@PBXK@Z @ 8 NONAME ; enum eap_status_e eap_core_client_message_if_c::send_data(void const *, unsigned long)
	??1eap_core_client_message_if_c@@UAE@XZ @ 9 NONAME ; eap_core_client_message_if_c::~eap_core_client_message_if_c(void)
	?reset@eap_core_client_message_if_c@@UAE?AW4eap_status_e@@XZ @ 10 NONAME ; enum eap_status_e eap_core_client_message_if_c::reset(void)
	?send_eap_identity_request@eap_core_client_message_if_c@@UAE?AW4eap_status_e@@PBVeap_am_network_id_c@@@Z @ 11 NONAME ; enum eap_status_e eap_core_client_message_if_c::send_eap_identity_request(class eap_am_network_id_c const *)
	?remove_eap_session@eap_core_client_message_if_c@@UAE?AW4eap_status_e@@_NPBVeap_am_network_id_c@@@Z @ 12 NONAME ; enum eap_status_e eap_core_client_message_if_c::remove_eap_session(bool, class eap_am_network_id_c const *)
	?create_eap_session@eap_core_client_message_if_c@@UAE?AW4eap_status_e@@PBVeap_am_network_id_c@@@Z @ 13 NONAME ; enum eap_status_e eap_core_client_message_if_c::create_eap_session(class eap_am_network_id_c const *)
	?get_802_11_authentication_mode@eap_core_client_message_if_c@@UAE?AW4eap_status_e@@PBVeap_am_network_id_c@@W4eapol_key_authentication_type_e@@PBVeap_variable_data_c@@2@Z @ 14 NONAME ; enum eap_status_e eap_core_client_message_if_c::get_802_11_authentication_mode(class eap_am_network_id_c const *, enum eapol_key_authentication_type_e, class eap_variable_data_c const *, class eap_variable_data_c const *)
	?packet_process@eap_core_client_message_if_c@@UAE?AW4eap_status_e@@PBVeap_am_network_id_c@@PAVeap_general_header_base_c@@K@Z @ 15 NONAME ; enum eap_status_e eap_core_client_message_if_c::packet_process(class eap_am_network_id_c const *, class eap_general_header_base_c *, unsigned long)
	?timer_delete_data@eap_core_client_message_if_c@@UAE?AW4eap_status_e@@KPAX@Z @ 16 NONAME ; enum eap_status_e eap_core_client_message_if_c::timer_delete_data(unsigned long, void *)
	?process_data@CEapCoreInterface@@UAE?AW4eap_status_e@@PBXK@Z @ 17 NONAME ; enum eap_status_e CEapCoreInterface::process_data(void const *, unsigned long)
	?configure@CEapCoreInterface@@UAE?AW4eap_status_e@@PBVeap_variable_data_c@@@Z @ 18 NONAME ; enum eap_status_e CEapCoreInterface::configure(class eap_variable_data_c const *)
	?get_is_valid@CEapCoreInterface@@UAE_NXZ @ 19 NONAME ; bool CEapCoreInterface::get_is_valid(void)
	?set_is_valid@eap_core_client_message_if_c@@EAEXXZ @ 20 NONAME ; void eap_core_client_message_if_c::set_is_valid(void)
	?set_eap_database_reference_values@eap_core_client_message_if_c@@UAE?AW4eap_status_e@@PBVeap_variable_data_c@@@Z @ 21 NONAME ; enum eap_status_e eap_core_client_message_if_c::set_eap_database_reference_values(class eap_variable_data_c const *)
	?ConstrucL@CEapCoreInterface@@QAEPAVCEapProcessInterface@@PAVabs_eap_am_tools_c@@@Z @ 22 NONAME ; class CEapProcessInterface * CEapCoreInterface::ConstrucL(class abs_eap_am_tools_c *)
	??0eap_core_client_message_if_c@@QAE@PAVabs_eap_am_tools_c@@PAVeap_am_message_if_c@@PAVabs_eap_session_core_c@@_N@Z @ 23 NONAME ; eap_core_client_message_if_c::eap_core_client_message_if_c(class abs_eap_am_tools_c *, class eap_am_message_if_c *, class abs_eap_session_core_c *, bool)
	?set_partner@CEapCoreInterface@@UAEXPAVabs_eap_am_message_if_c@@@Z @ 24 NONAME ; void CEapCoreInterface::set_partner(class abs_eap_am_message_if_c *)
	?shutdown@CEapCoreInterface@@UAE?AW4eap_status_e@@XZ @ 25 NONAME ; enum eap_status_e CEapCoreInterface::shutdown(void)
	?cancel_all_eap_sessions@eap_core_client_message_if_c@@UAE?AW4eap_status_e@@XZ @ 26 NONAME ; enum eap_status_e eap_core_client_message_if_c::cancel_all_eap_sessions(void)
	?shutdown@eap_core_client_message_if_c@@UAE?AW4eap_status_e@@XZ @ 27 NONAME ; enum eap_status_e eap_core_client_message_if_c::shutdown(void)
	?get_is_valid@eap_core_client_message_if_c@@UAE_NXZ @ 28 NONAME ; bool eap_core_client_message_if_c::get_is_valid(void)

