EXPORTS
	_Z24ImplementationGroupProxyRi @ 1 NONAME
	_ZN12aka_header_c11set_subtypeE13aka_subtype_e @ 2 NONAME
	_ZN12aka_header_c12reset_headerEmb @ 3 NONAME
	_ZN12aka_header_c12set_reservedEt @ 4 NONAME
	_ZN12aka_header_c15set_data_lengthEmb @ 5 NONAME
	_ZN12aka_header_cC1EP18abs_eap_am_tools_cPhm @ 6 NONAME
	_ZN12aka_header_cC2EP18abs_eap_am_tools_cPhm @ 7 NONAME
	_ZN12aka_header_cD0Ev @ 8 NONAME
	_ZN12aka_header_cD1Ev @ 9 NONAME
	_ZN12aka_header_cD2Ev @ 10 NONAME
	_ZN14aka_payloads_c14check_payloadsENS_24eap_aka_payload_status_eES0_S0_S0_S0_S0_S0_S0_S0_S0_S0_S0_S0_S0_S0_S0_S0_S0_S0_S0_S0_ @ 11 NONAME
	_ZN14aka_payloads_c17check_one_payloadENS_24eap_aka_payload_status_eEPK19aka_variable_data_c @ 12 NONAME
	_ZN14aka_payloads_c30get_includes_unknown_attributeEv @ 13 NONAME
	_ZN14aka_payloads_c30set_includes_unknown_attributeE21aka_payload_AT_type_e @ 14 NONAME
	_ZN14aka_payloads_c33get_includes_other_version_than_1Ev @ 15 NONAME
	_ZN14aka_payloads_c33set_includes_other_version_than_1Eb @ 16 NONAME
	_ZN14aka_payloads_cC1EP18abs_eap_am_tools_c @ 17 NONAME
	_ZN14aka_payloads_cC2EP18abs_eap_am_tools_c @ 18 NONAME
	_ZN14aka_payloads_cD0Ev @ 19 NONAME
	_ZN14aka_payloads_cD1Ev @ 20 NONAME
	_ZN14aka_payloads_cD2Ev @ 21 NONAME
	_ZN14eap_type_aka_c11new_handlerEPK19eap_am_network_id_cb @ 22 NONAME
	_ZN14eap_type_aka_c11packet_sendEPK19eap_am_network_id_cP18eap_buf_chain_wr_cmmm @ 23 NONAME
	_ZN14eap_type_aka_c12cancel_timerEP20abs_eap_base_timer_cm @ 24 NONAME
	_ZN14eap_type_aka_c12generate_naiEP19eap_variable_data_cbPKS0_S3_bS3_S3_m @ 25 NONAME
	_ZN14eap_type_aka_c12get_is_validEv @ 26 NONAME
	_ZN14eap_type_aka_c12set_is_validEv @ 27 NONAME
	_ZN14eap_type_aka_c13get_is_clientEv @ 28 NONAME
	_ZN14eap_type_aka_c13get_nai_realmEv @ 29 NONAME
	_ZN14eap_type_aka_c13query_AKA_RESEP36eap_type_aka_authentication_vector_c @ 30 NONAME
	_ZN14eap_type_aka_c13timer_expiredEmPv @ 31 NONAME
	_ZN14eap_type_aka_c14checkcode_initEv @ 32 NONAME
	_ZN14eap_type_aka_c14generate_nonceEmP19eap_variable_data_c @ 33 NONAME
	_ZN14eap_type_aka_c14packet_processEPK19eap_am_network_id_cP15eap_header_wr_cm @ 34 NONAME
	_ZN14eap_type_aka_c14parse_identityEPKhm @ 35 NONAME
	_ZN14eap_type_aka_c14read_configureEPK25eap_configuration_field_cP19eap_variable_data_c @ 36 NONAME
	_ZN14eap_type_aka_c14store_identityEPK19eap_variable_data_cb @ 37 NONAME
	_ZN14eap_type_aka_c15add_RES_payloadEP12aka_header_cmmPmS2_S2_S2_PK19eap_variable_data_c21aka_payload_AT_type_e @ 38 NONAME
	_ZN14eap_type_aka_c15add_mac_payloadEP12aka_header_cmmPmS2_S2_S2_PPhS2_ @ 39 NONAME
	_ZN14eap_type_aka_c15checkcode_finalEP19eap_variable_data_c @ 40 NONAME
	_ZN14eap_type_aka_c15eap_acknowledgeEPK19eap_am_network_id_c @ 41 NONAME
	_ZN14eap_type_aka_c15write_configureEPK25eap_configuration_field_cP19eap_variable_data_c @ 42 NONAME
	_ZN14eap_type_aka_c16add_AUTS_payloadEP12aka_header_cmmPmS2_S2_S2_PK19eap_variable_data_c21aka_payload_AT_type_e @ 43 NONAME
	_ZN14eap_type_aka_c16checkcode_updateEPKvm @ 44 NONAME
	_ZN14eap_type_aka_c16checkcode_verifyEPK19eap_variable_data_c @ 45 NONAME
	_ZN14eap_type_aka_c16get_state_stringE29eap_type_aka_state_variable_e @ 46 NONAME
	_ZN14eap_type_aka_c16initialize_stateE29eap_type_aka_state_variable_ebb13aka_subtype_eS1_S1_S1_S1_ @ 47 NONAME
	_ZN14eap_type_aka_c16parse_aka_packetEP12aka_header_cmP14aka_payloads_c @ 48 NONAME
	_ZN14eap_type_aka_c16random_selectionEv @ 49 NONAME
	_ZN14eap_type_aka_c17check_valid_stateE13aka_subtype_e @ 50 NONAME
	_ZN14eap_type_aka_c17get_header_offsetEPmS0_ @ 51 NONAME
	_ZN14eap_type_aka_c17handle_aka_packetEPK19eap_am_network_id_cP12aka_header_cmP14aka_payloads_c @ 52 NONAME
	_ZN14eap_type_aka_c17parse_aka_payloadEPK23aka_payload_AT_header_cPmP14aka_payloads_c13aka_subtype_e @ 53 NONAME
	_ZN14eap_type_aka_c17timer_delete_dataEmPv @ 54 NONAME
	_ZN14eap_type_aka_c18add_simple_payloadEP12aka_header_cmmPmS2_S2_S2_21aka_payload_AT_type_e @ 55 NONAME
	_ZN14eap_type_aka_c18aka_packet_processEPK19eap_am_network_id_cP12aka_header_cmb @ 56 NONAME
	_ZN14eap_type_aka_c18analyse_aka_packetEPK19eap_am_network_id_cP12aka_header_cmP14aka_payloads_c @ 57 NONAME
	_ZN14eap_type_aka_c18delete_unused_keysEv @ 58 NONAME
	_ZN14eap_type_aka_c18get_state_variableEv @ 59 NONAME
	_ZN14eap_type_aka_c18query_eap_identityEbP19eap_variable_data_cPK19eap_am_network_id_ch @ 60 NONAME
	_ZN14eap_type_aka_c18state_notificationEPK28abs_eap_state_notification_c @ 61 NONAME
	_ZN14eap_type_aka_c19add_counter_payloadEP12aka_header_cmmPmS2_S2_S2_t @ 62 NONAME
	_ZN14eap_type_aka_c19add_padding_payloadEP12aka_header_cmmPmS2_S2_S2_m @ 63 NONAME
	_ZN14eap_type_aka_c19get_identity_stringE26eap_type_aka_identity_type @ 64 NONAME
	_ZN14eap_type_aka_c19handle_DATA_payloadE13aka_subtype_eP14aka_payloads_c @ 65 NONAME
	_ZN14eap_type_aka_c19handle_error_packetEv @ 66 NONAME
	_ZN14eap_type_aka_c19process_AKA_kc_sresEPK36eap_type_aka_authentication_vector_c @ 67 NONAME
	_ZN14eap_type_aka_c20add_variable_payloadEP12aka_header_cmmPmS2_S2_S2_PK19eap_variable_data_c21aka_payload_AT_type_e @ 68 NONAME
	_ZN14eap_type_aka_c20decrypt_DATA_payloadEP14aka_payloads_cPK19eap_variable_data_c @ 69 NONAME
	_ZN14eap_type_aka_c20encrypt_DATA_payloadEPhmPK19eap_variable_data_cS3_ @ 70 NONAME
	_ZN14eap_type_aka_c21parse_generic_payloadE21aka_payload_AT_type_ePK23aka_payload_AT_header_cP14aka_payloads_c13aka_subtype_e @ 71 NONAME
	_ZN14eap_type_aka_c21update_buffer_indexesEmmPmS0_ @ 72 NONAME
	_ZN14eap_type_aka_c22complete_AKA_RES_queryEPK36eap_type_aka_authentication_vector_c12eap_status_e @ 73 NONAME
	_ZN14eap_type_aka_c22update_payload_indexesEmmmPmS0_S0_S0_ @ 74 NONAME
	_ZN14eap_type_aka_c23send_final_notificationEv @ 75 NONAME
	_ZN14eap_type_aka_c24add_client_error_payloadEP12aka_header_cmmPmS2_S2_S2_27eap_aka_client_error_code_e @ 76 NONAME
	_ZN14eap_type_aka_c24add_notification_payloadEP12aka_header_cmmPmS2_S2_S2_28eap_aka_notification_codes_e @ 77 NONAME
	_ZN14eap_type_aka_c24initialize_error_messageE12eap_status_e @ 78 NONAME
	_ZN14eap_type_aka_c25checkcode_verify_payloadsEP14aka_payloads_c @ 79 NONAME
	_ZN14eap_type_aka_c25handle_eap_identity_queryEPK19eap_am_network_id_cP19eap_variable_data_chPKS3_S6_S6_S6_mb @ 80 NONAME
	_ZN14eap_type_aka_c25handle_imsi_from_usernameEhPK19eap_am_network_id_cPK19eap_variable_data_cS5_26eap_type_aka_identity_type @ 81 NONAME
	_ZN14eap_type_aka_c25process_re_syncronizationEhPK36eap_type_aka_authentication_vector_c @ 82 NONAME
	_ZN14eap_type_aka_c26handle_notification_packetEv @ 83 NONAME
	_ZN14eap_type_aka_c26set_initial_eap_identifierEPK19eap_am_network_id_ch @ 84 NONAME
	_ZN14eap_type_aka_c27complete_imsi_from_usernameEhPK19eap_am_network_id_cPK19eap_variable_data_cS5_26eap_type_aka_identity_type12eap_status_e23eap_type_aka_complete_e @ 85 NONAME
	_ZN14eap_type_aka_c27generate_shared_secred_keysEmPK19eap_variable_data_cS2_PS0_S3_S3_S3_ @ 86 NONAME
	_ZN14eap_type_aka_c28randomly_refuse_eap_identityEv @ 87 NONAME
	_ZN14eap_type_aka_c29add_pseudonym_or_imsi_payloadEP12aka_header_cmmPmS2_S2_S2_PK19eap_variable_data_c21aka_payload_AT_type_e @ 88 NONAME
	_ZN14eap_type_aka_c29checkcode_save_message_clientEPKvmP14aka_payloads_c @ 89 NONAME
	_ZN14eap_type_aka_c29checkcode_save_message_serverEPKvm @ 90 NONAME
	_ZN14eap_type_aka_c29compare_payload_first_is_lessEPK21aka_payload_AT_type_eS2_P18abs_eap_am_tools_c @ 91 NONAME
	_ZN14eap_type_aka_c29send_aka_notification_requestE28eap_aka_notification_codes_eb @ 92 NONAME
	_ZN14eap_type_aka_c29set_error_message_delay_timerEv @ 93 NONAME
	_ZN14eap_type_aka_c30checkcode_update_saved_messageEv @ 94 NONAME
	_ZN14eap_type_aka_c30send_aka_client_error_responseEv @ 95 NONAME
	_ZN14eap_type_aka_c30send_aka_notification_responseE28eap_aka_notification_codes_eb @ 96 NONAME
	_ZN14eap_type_aka_c30send_challenge_request_messageEh @ 97 NONAME
	_ZN14eap_type_aka_c31initialize_notification_messageEv @ 98 NONAME
	_ZN14eap_type_aka_c31query_AKA_authentication_vectorEhP26eap_type_aka_identity_type @ 99 NONAME
	_ZN14eap_type_aka_c31send_challenge_response_messageEP19eap_variable_data_c @ 100 NONAME
	_ZN14eap_type_aka_c32cancel_error_message_delay_timerEv @ 101 NONAME
	_ZN14eap_type_aka_c32check_challenge_response_messageEPK19eap_am_network_id_cP12aka_header_cmP14aka_payloads_c @ 102 NONAME
	_ZN14eap_type_aka_c32complete_re_syncronization_queryEhPK36eap_type_aka_authentication_vector_c @ 103 NONAME
	_ZN14eap_type_aka_c32finish_successful_authenticationEPK19eap_am_network_id_c @ 104 NONAME
	_ZN14eap_type_aka_c32handle_challenge_request_messageEPK19eap_am_network_id_cP12aka_header_cmP14aka_payloads_c @ 105 NONAME
	_ZN14eap_type_aka_c32handle_identity_response_messageEP15eap_header_rd_cm @ 106 NONAME
	_ZN14eap_type_aka_c33check_message_authentication_codeEPK19eap_variable_data_cP14aka_payloads_cPK12aka_header_cm @ 107 NONAME
	_ZN14eap_type_aka_c33handle_challenge_response_messageEPK19eap_am_network_id_cP12aka_header_cmP14aka_payloads_c @ 108 NONAME
	_ZN14eap_type_aka_c33send_aka_identity_request_messageEbh @ 109 NONAME
	_ZN14eap_type_aka_c34create_message_authentication_codeEP29eap_type_aka_MAC_attributes_c13aka_subtype_e16eap_code_value_ePK19eap_variable_data_c @ 110 NONAME
	_ZN14eap_type_aka_c34generate_reauth_shared_secred_keysEmPK19eap_variable_data_cmS2_S2_PS0_ @ 111 NONAME
	_ZN14eap_type_aka_c34send_aka_identity_response_messageEPK19eap_am_network_id_ch21aka_payload_AT_type_ePK19eap_variable_data_c @ 112 NONAME
	_ZN14eap_type_aka_c35handle_aka_identity_request_messageEPK19eap_am_network_id_cP12aka_header_cmP14aka_payloads_c @ 113 NONAME
	_ZN14eap_type_aka_c36handle_aka_identity_response_messageEP12aka_header_cmP14aka_payloads_c @ 114 NONAME
	_ZN14eap_type_aka_c36handle_client_error_response_messageEPK19eap_am_network_id_cP12aka_header_cmP14aka_payloads_c @ 115 NONAME
	_ZN14eap_type_aka_c36handle_notification_response_messageEPK19eap_am_network_id_cP12aka_header_cmP14aka_payloads_c @ 116 NONAME
	_ZN14eap_type_aka_c36set_notification_message_delay_timerEv @ 117 NONAME
	_ZN14eap_type_aka_c37send_reauthentication_request_messageEPK19eap_variable_data_cbh @ 118 NONAME
	_ZN14eap_type_aka_c38send_reauthentication_response_messageEPK19eap_variable_data_cS2_S2_S2_S2_thb @ 119 NONAME
	_ZN14eap_type_aka_c39cancel_notification_message_delay_timerEv @ 120 NONAME
	_ZN14eap_type_aka_c39extra_message_authentication_code_bytesE13aka_subtype_e16eap_code_value_eP13crypto_hmac_c @ 121 NONAME
	_ZN14eap_type_aka_c39handle_aka_notification_request_messageEPK19eap_am_network_id_cP12aka_header_cmP14aka_payloads_c @ 122 NONAME
	_ZN14eap_type_aka_c39handle_reauthentication_request_messageEPK19eap_am_network_id_cP12aka_header_cmP14aka_payloads_c @ 123 NONAME
	_ZN14eap_type_aka_c40complete_AKA_authentication_vector_queryEP36eap_type_aka_authentication_vector_cPK19eap_variable_data_c38eap_aka_authentication_vector_status_e26eap_type_aka_identity_type12eap_status_eh @ 124 NONAME
	_ZN14eap_type_aka_c40handle_reauthentication_response_messageEPK19eap_am_network_id_cP12aka_header_cmP14aka_payloads_c @ 125 NONAME
	_ZN14eap_type_aka_c46check_synchronization_failure_response_messageEPK19eap_am_network_id_cP12aka_header_cmP14aka_payloads_c @ 126 NONAME
	_ZN14eap_type_aka_c47handle_aka_identity_response_message_completionEh12eap_status_e26eap_type_aka_identity_typeb @ 127 NONAME
	_ZN14eap_type_aka_c47handle_synchronization_failure_response_messageEPK19eap_am_network_id_cP12aka_header_cmP14aka_payloads_c @ 128 NONAME
	_ZN14eap_type_aka_c47send_aka_authentication_reject_response_messageEPK36eap_type_aka_authentication_vector_c @ 129 NONAME
	_ZN14eap_type_aka_c49send_aka_synchronization_failure_response_messageEPK36eap_type_aka_authentication_vector_c @ 130 NONAME
	_ZN14eap_type_aka_c50query_AKA_IMSI_or_pseudonym_or_reauthentication_idEP19eap_variable_data_cS1_S1_S1_Pmb21aka_payload_AT_type_e23eap_type_aka_complete_eh @ 131 NONAME
	_ZN14eap_type_aka_c53handle_notification_response_message_reauthenticationEPK19eap_am_network_id_cP12aka_header_cmP14aka_payloads_c @ 132 NONAME
	_ZN14eap_type_aka_c56handle_aka_notification_request_message_reauthenticationEPK19eap_am_network_id_cP12aka_header_cmP14aka_payloads_c @ 133 NONAME
	_ZN14eap_type_aka_c56handle_notification_response_message_full_authenticationEPK19eap_am_network_id_cP12aka_header_cmP14aka_payloads_c @ 134 NONAME
	_ZN14eap_type_aka_c59complete_AKA_IMSI_or_pseudonym_or_reauthentication_id_queryEPK19eap_variable_data_cS2_S2_S2_m23eap_type_aka_complete_eh12eap_status_e @ 135 NONAME
	_ZN14eap_type_aka_c59handle_aka_notification_request_message_full_authenticationEPK19eap_am_network_id_cP12aka_header_cmP14aka_payloads_c @ 136 NONAME
	_ZN14eap_type_aka_c5resetEv @ 137 NONAME
	_ZN14eap_type_aka_c8data_expEmP19eap_variable_data_cPKS0_S3_ @ 138 NONAME
	_ZN14eap_type_aka_c8shutdownEv @ 139 NONAME
	_ZN14eap_type_aka_c9check_NAIEPKhmS1_ @ 140 NONAME
	_ZN14eap_type_aka_c9configureEv @ 141 NONAME
	_ZN14eap_type_aka_c9set_timerEP20abs_eap_base_timer_cmPvm @ 142 NONAME
	_ZN14eap_type_aka_cC1EP18abs_eap_am_tools_cP19abs_eap_base_type_cP17eap_am_type_aka_cbbPK19eap_am_network_id_c @ 143 NONAME
	_ZN14eap_type_aka_cC2EP18abs_eap_am_tools_cP19abs_eap_base_type_cP17eap_am_type_aka_cbbPK19eap_am_network_id_c @ 144 NONAME
	_ZN14eap_type_aka_cD0Ev @ 145 NONAME
	_ZN14eap_type_aka_cD1Ev @ 146 NONAME
	_ZN14eap_type_aka_cD2Ev @ 147 NONAME
	_ZN16aka_fixed_data_c19get_original_headerEv @ 148 NONAME
	_ZN16aka_fixed_data_c8set_dataEPK23aka_payload_AT_header_ctt @ 149 NONAME
	_ZN16aka_fixed_data_cC1EP18abs_eap_am_tools_c @ 150 NONAME
	_ZN16aka_fixed_data_cC2EP18abs_eap_am_tools_c @ 151 NONAME
	_ZN16aka_fixed_data_cD0Ev @ 152 NONAME
	_ZN16aka_fixed_data_cD1Ev @ 153 NONAME
	_ZN16aka_fixed_data_cD2Ev @ 154 NONAME
	_ZN19aka_variable_data_c10set_bufferEPK23aka_payload_AT_header_cPhmbb @ 155 NONAME
	_ZN19aka_variable_data_c18get_payload_bufferEv @ 156 NONAME
	_ZN19aka_variable_data_c5resetEv @ 157 NONAME
	_ZN19aka_variable_data_cC1EP18abs_eap_am_tools_c @ 158 NONAME
	_ZN19aka_variable_data_cC2EP18abs_eap_am_tools_c @ 159 NONAME
	_ZN19aka_variable_data_cD0Ev @ 160 NONAME
	_ZN19aka_variable_data_cD1Ev @ 161 NONAME
	_ZN19aka_variable_data_cD2Ev @ 162 NONAME
	_ZN23aka_payload_AT_header_c12reset_headerEt @ 163 NONAME
	_ZN23aka_payload_AT_header_c12set_reservedEt @ 164 NONAME
	_ZN23aka_payload_AT_header_c15set_data_lengthEt @ 165 NONAME
	_ZN23aka_payload_AT_header_c17get_header_lengthEv @ 166 NONAME
	_ZN23aka_payload_AT_header_c19set_current_payloadE21aka_payload_AT_type_e @ 167 NONAME
	_ZN23aka_payload_AT_header_c21get_payload_AT_stringE21aka_payload_AT_type_e @ 168 NONAME
	_ZN23aka_payload_AT_header_c27get_max_payload_data_lengthEv @ 169 NONAME
	_ZN23aka_payload_AT_header_cC1EP18abs_eap_am_tools_cPvm @ 170 NONAME
	_ZN23aka_payload_AT_header_cC2EP18abs_eap_am_tools_cPvm @ 171 NONAME
	_ZN23aka_payload_AT_header_cD0Ev @ 172 NONAME
	_ZN23aka_payload_AT_header_cD1Ev @ 173 NONAME
	_ZN23aka_payload_AT_header_cD2Ev @ 174 NONAME
	_ZN25eap_am_type_aka_symbian_c12get_is_validEv @ 175 NONAME
	_ZN25eap_am_type_aka_symbian_c12set_is_validEv @ 176 NONAME
	_ZN25eap_am_type_aka_symbian_c13query_AKA_RESEP36eap_type_aka_authentication_vector_c @ 177 NONAME
	_ZN25eap_am_type_aka_symbian_c16is_session_validEv @ 178 NONAME
	_ZN25eap_am_type_aka_symbian_c18complete_AKA_RES_LEP19eap_variable_data_cS1_S1_S1_12eap_status_eS2_ @ 179 NONAME
	_ZN25eap_am_type_aka_symbian_c18store_pseudonym_idEPK19eap_am_network_id_cPK19eap_variable_data_c @ 180 NONAME
	_ZN25eap_am_type_aka_symbian_c19complete_AKA_imsi_LEPK19eap_variable_data_c12eap_status_e @ 181 NONAME
	_ZN25eap_am_type_aka_symbian_c19type_configure_readEPK25eap_configuration_field_cP19eap_variable_data_c @ 182 NONAME
	_ZN25eap_am_type_aka_symbian_c20cancel_AKA_RES_queryEv @ 183 NONAME
	_ZN25eap_am_type_aka_symbian_c20type_configure_writeEPK25eap_configuration_field_cP19eap_variable_data_c @ 184 NONAME
	_ZN25eap_am_type_aka_symbian_c21generate_pseudonym_idEPK19eap_am_network_id_cPK19eap_variable_data_cPS3_m @ 185 NONAME
	_ZN25eap_am_type_aka_symbian_c22generate_encryption_IVEP19eap_variable_data_cm @ 186 NONAME
	_ZN25eap_am_type_aka_symbian_c23authentication_finishedEb29eap_aka_authentication_type_e26eap_type_aka_identity_type @ 187 NONAME
	_ZN25eap_am_type_aka_symbian_c23handle_aka_notificationE28eap_aka_notification_codes_e @ 188 NONAME
	_ZN25eap_am_type_aka_symbian_c23increase_reauth_counterEv @ 189 NONAME
	_ZN25eap_am_type_aka_symbian_c23query_re_syncronizationEhP36eap_type_aka_authentication_vector_c @ 190 NONAME
	_ZN25eap_am_type_aka_symbian_c23query_reauth_parametersEP19eap_variable_data_cS1_S1_Pm @ 191 NONAME
	_ZN25eap_am_type_aka_symbian_c23store_reauth_parametersEPK19eap_variable_data_cS2_S2_m @ 192 NONAME
	_ZN25eap_am_type_aka_symbian_c24query_imsi_from_usernameEhPK19eap_am_network_id_cPK19eap_variable_data_cPS3_P26eap_type_aka_identity_type23eap_type_aka_complete_e @ 193 NONAME
	_ZN25eap_am_type_aka_symbian_c25store_reauthentication_idEPK19eap_am_network_id_cPK19eap_variable_data_c @ 194 NONAME
	_ZN25eap_am_type_aka_symbian_c28generate_reauthentication_idEPK19eap_am_network_id_cPK19eap_variable_data_cPS3_m @ 195 NONAME
	_ZN25eap_am_type_aka_symbian_c31cancel_imsi_from_username_queryEv @ 196 NONAME
	_ZN25eap_am_type_aka_symbian_c31query_AKA_authentication_vectorEPK19eap_variable_data_chPS0_P36eap_type_aka_authentication_vector_cP26eap_type_aka_identity_type @ 197 NONAME
	_ZN25eap_am_type_aka_symbian_c38cancel_AKA_authentication_vector_queryEv @ 198 NONAME
	_ZN25eap_am_type_aka_symbian_c4NewLEP18abs_eap_am_tools_cP19abs_eap_base_type_c10TIndexTypei19eap_expanded_type_cbPK19eap_am_network_id_c @ 199 NONAME
	_ZN25eap_am_type_aka_symbian_c50query_AKA_IMSI_or_pseudonym_or_reauthentication_idEP19eap_variable_data_cS1_S1_S1_Pm21aka_payload_AT_type_e23eap_type_aka_complete_eh @ 200 NONAME
	_ZN25eap_am_type_aka_symbian_c57cancel_AKA_IMSI_or_pseudonym_or_reauthentication_id_queryEv @ 201 NONAME
	_ZN25eap_am_type_aka_symbian_c5resetEv @ 202 NONAME
	_ZN25eap_am_type_aka_symbian_c8shutdownEv @ 203 NONAME
	_ZN25eap_am_type_aka_symbian_c9configureEv @ 204 NONAME
	_ZN25eap_am_type_aka_symbian_cD0Ev @ 205 NONAME
	_ZN25eap_am_type_aka_symbian_cD1Ev @ 206 NONAME
	_ZN25eap_am_type_aka_symbian_cD2Ev @ 207 NONAME
	_ZN33eap_type_aka_state_notification_cC1EP18abs_eap_am_tools_cPK19eap_am_network_id_cb28eap_state_notification_eap_e20eap_protocol_layer_e19eap_expanded_type_cmmhb @ 208 NONAME
	_ZN33eap_type_aka_state_notification_cC1EP18abs_eap_am_tools_cPK19eap_am_network_id_cb28eap_state_notification_eap_e20eap_protocol_layer_e22eap_type_ietf_values_emmhb @ 209 NONAME
	_ZN33eap_type_aka_state_notification_cC1EP18abs_eap_am_tools_cPK19eap_am_network_id_cb32eap_state_notification_generic_e20eap_protocol_layer_emmmhb @ 210 NONAME
	_ZN33eap_type_aka_state_notification_cC2EP18abs_eap_am_tools_cPK19eap_am_network_id_cb28eap_state_notification_eap_e20eap_protocol_layer_e19eap_expanded_type_cmmhb @ 211 NONAME
	_ZN33eap_type_aka_state_notification_cC2EP18abs_eap_am_tools_cPK19eap_am_network_id_cb28eap_state_notification_eap_e20eap_protocol_layer_e22eap_type_ietf_values_emmhb @ 212 NONAME
	_ZN33eap_type_aka_state_notification_cC2EP18abs_eap_am_tools_cPK19eap_am_network_id_cb32eap_state_notification_generic_e20eap_protocol_layer_emmmhb @ 213 NONAME
	_ZN33eap_type_aka_state_notification_cD0Ev @ 214 NONAME
	_ZN33eap_type_aka_state_notification_cD1Ev @ 215 NONAME
	_ZN33eap_type_aka_state_notification_cD2Ev @ 216 NONAME
	_ZN36eap_type_aka_authentication_vector_c17set_vector_statusE12eap_status_e @ 217 NONAME
	_ZN36eap_type_aka_authentication_vector_c5resetEv @ 218 NONAME
	_ZN36eap_type_aka_authentication_vector_cC1EP18abs_eap_am_tools_c @ 219 NONAME
	_ZN36eap_type_aka_authentication_vector_cC2EP18abs_eap_am_tools_c @ 220 NONAME
	_ZN36eap_type_aka_authentication_vector_cD0Ev @ 221 NONAME
	_ZN36eap_type_aka_authentication_vector_cD1Ev @ 222 NONAME
	_ZN36eap_type_aka_authentication_vector_cD2Ev @ 223 NONAME
	_ZN40eap_type_aka_state_variable_parameters_c10init_stateEbb13aka_subtype_eS0_S0_S0_S0_ @ 224 NONAME
	_ZN40eap_type_aka_state_variable_parameters_cC1Ev @ 225 NONAME
	_ZN40eap_type_aka_state_variable_parameters_cC2Ev @ 226 NONAME
	_ZN40eap_type_aka_state_variable_parameters_cD0Ev @ 227 NONAME
	_ZN40eap_type_aka_state_variable_parameters_cD1Ev @ 228 NONAME
	_ZN40eap_type_aka_state_variable_parameters_cD2Ev @ 229 NONAME
	_ZNK12aka_header_c11get_subtypeEv @ 230 NONAME
	_ZNK12aka_header_c12check_headerEv @ 231 NONAME
	_ZNK12aka_header_c12get_reservedEv @ 232 NONAME
	_ZNK12aka_header_c15get_code_stringEv @ 233 NONAME
	_ZNK12aka_header_c15get_data_lengthEv @ 234 NONAME
	_ZNK12aka_header_c15get_data_offsetEmm @ 235 NONAME
	_ZNK12aka_header_c17get_header_lengthEv @ 236 NONAME
	_ZNK12aka_header_c18get_subtype_stringEv @ 237 NONAME
	_ZNK12aka_header_c19get_eap_type_stringEv @ 238 NONAME
	_ZNK12aka_header_c19get_sub_type_offsetEv @ 239 NONAME
	_ZNK12aka_header_c8get_dataEm @ 240 NONAME
	_ZNK14aka_payloads_c12get_is_validEv @ 241 NONAME
	_ZNK14eap_type_aka_c16get_state_stringEv @ 242 NONAME
	_ZNK14eap_type_aka_c31get_saved_previous_state_stringEv @ 243 NONAME
	_ZNK16aka_fixed_data_c12get_is_validEv @ 244 NONAME
	_ZNK16aka_fixed_data_c8get_dataEP18abs_eap_am_tools_c @ 245 NONAME
	_ZNK16aka_fixed_data_c8get_typeEP18abs_eap_am_tools_c @ 246 NONAME
	_ZNK19aka_variable_data_c12get_is_validEv @ 247 NONAME
	_ZNK19aka_variable_data_c15get_data_lengthEv @ 248 NONAME
	_ZNK19aka_variable_data_c19get_original_headerEv @ 249 NONAME
	_ZNK19aka_variable_data_c20get_payload_includedEv @ 250 NONAME
	_ZNK19aka_variable_data_c8get_dataEm @ 251 NONAME
	_ZNK23aka_payload_AT_header_c12check_headerEv @ 252 NONAME
	_ZNK23aka_payload_AT_header_c12get_reservedEv @ 253 NONAME
	_ZNK23aka_payload_AT_header_c15get_data_lengthEv @ 254 NONAME
	_ZNK23aka_payload_AT_header_c15get_data_offsetEmm @ 255 NONAME
	_ZNK23aka_payload_AT_header_c15get_next_headerEv @ 256 NONAME
	_ZNK23aka_payload_AT_header_c18get_payload_lengthEv @ 257 NONAME
	_ZNK23aka_payload_AT_header_c19get_current_payloadEv @ 258 NONAME
	_ZNK23aka_payload_AT_header_c20get_reserved_pointerEm @ 259 NONAME
	_ZNK23aka_payload_AT_header_c21get_payload_AT_stringEv @ 260 NONAME
	_ZNK23aka_payload_AT_header_c8get_dataEm @ 261 NONAME
	_ZNK36eap_type_aka_authentication_vector_c12get_is_validEv @ 262 NONAME
	_ZNK36eap_type_aka_authentication_vector_c17get_vector_statusEv @ 263 NONAME
	_ZNK36eap_type_aka_authentication_vector_c4copyEv @ 264 NONAME
	_ZNK36eap_type_aka_authentication_vector_c6get_CKEv @ 265 NONAME
	_ZNK36eap_type_aka_authentication_vector_c6get_IKEv @ 266 NONAME
	_ZNK36eap_type_aka_authentication_vector_c7get_RESEv @ 267 NONAME
	_ZNK36eap_type_aka_authentication_vector_c8get_AUTNEv @ 268 NONAME
	_ZNK36eap_type_aka_authentication_vector_c8get_AUTSEv @ 269 NONAME
	_ZNK36eap_type_aka_authentication_vector_c8get_RANDEv @ 270 NONAME
	_ZNK40eap_type_aka_state_variable_parameters_c15check_initiatorEb @ 271 NONAME
	_ZNK40eap_type_aka_state_variable_parameters_c17check_valid_typesE13aka_subtype_e @ 272 NONAME
	_ZTI12CEapTypeInfo @ 273 NONAME
	_ZTI12aka_header_c @ 274 NONAME
	_ZTI14aka_payloads_c @ 275 NONAME
	_ZTI14eap_type_aka_c @ 276 NONAME
	_ZTI16CEapAkaInterface @ 277 NONAME
	_ZTI16aka_fixed_data_c @ 278 NONAME
	_ZTI19aka_variable_data_c @ 279 NONAME
	_ZTI23aka_payload_AT_header_c @ 280 NONAME
	_ZTI25eap_am_type_aka_symbian_c @ 281 NONAME
	_ZTI29eap_type_aka_MAC_attributes_c @ 282 NONAME
	_ZTI33eap_type_aka_state_notification_c @ 283 NONAME
	_ZTI36eap_type_aka_authentication_vector_c @ 284 NONAME
	_ZTI40eap_type_aka_state_variable_parameters_c @ 285 NONAME
	_ZTI7CEapAka @ 286 NONAME
	_ZTV12CEapTypeInfo @ 287 NONAME
	_ZTV12aka_header_c @ 288 NONAME
	_ZTV14aka_payloads_c @ 289 NONAME
	_ZTV14eap_type_aka_c @ 290 NONAME
	_ZTV16CEapAkaInterface @ 291 NONAME
	_ZTV16aka_fixed_data_c @ 292 NONAME
	_ZTV19aka_variable_data_c @ 293 NONAME
	_ZTV23aka_payload_AT_header_c @ 294 NONAME
	_ZTV25eap_am_type_aka_symbian_c @ 295 NONAME
	_ZTV29eap_type_aka_MAC_attributes_c @ 296 NONAME
	_ZTV33eap_type_aka_state_notification_c @ 297 NONAME
	_ZTV36eap_type_aka_authentication_vector_c @ 298 NONAME
	_ZTV40eap_type_aka_state_variable_parameters_c @ 299 NONAME
	_ZTV7CEapAka @ 300 NONAME
	_ZThn4_N14eap_type_aka_c13timer_expiredEmPv @ 301 NONAME
	_ZThn4_N14eap_type_aka_c17timer_delete_dataEmPv @ 302 NONAME
	_ZThn4_N14eap_type_aka_cD0Ev @ 303 NONAME
	_ZThn4_N14eap_type_aka_cD1Ev @ 304 NONAME
	_ZThn4_N25eap_am_type_aka_symbian_c13query_AKA_RESEP36eap_type_aka_authentication_vector_c @ 305 NONAME
	_ZThn4_N25eap_am_type_aka_symbian_c18store_pseudonym_idEPK19eap_am_network_id_cPK19eap_variable_data_c @ 306 NONAME
	_ZThn4_N25eap_am_type_aka_symbian_c19type_configure_readEPK25eap_configuration_field_cP19eap_variable_data_c @ 307 NONAME
	_ZThn4_N25eap_am_type_aka_symbian_c20cancel_AKA_RES_queryEv @ 308 NONAME
	_ZThn4_N25eap_am_type_aka_symbian_c20type_configure_writeEPK25eap_configuration_field_cP19eap_variable_data_c @ 309 NONAME
	_ZThn4_N25eap_am_type_aka_symbian_c21generate_pseudonym_idEPK19eap_am_network_id_cPK19eap_variable_data_cPS3_m @ 310 NONAME
	_ZThn4_N25eap_am_type_aka_symbian_c22generate_encryption_IVEP19eap_variable_data_cm @ 311 NONAME
	_ZThn4_N25eap_am_type_aka_symbian_c23authentication_finishedEb29eap_aka_authentication_type_e26eap_type_aka_identity_type @ 312 NONAME
	_ZThn4_N25eap_am_type_aka_symbian_c23handle_aka_notificationE28eap_aka_notification_codes_e @ 313 NONAME
	_ZThn4_N25eap_am_type_aka_symbian_c23increase_reauth_counterEv @ 314 NONAME
	_ZThn4_N25eap_am_type_aka_symbian_c23query_re_syncronizationEhP36eap_type_aka_authentication_vector_c @ 315 NONAME
	_ZThn4_N25eap_am_type_aka_symbian_c23query_reauth_parametersEP19eap_variable_data_cS1_S1_Pm @ 316 NONAME
	_ZThn4_N25eap_am_type_aka_symbian_c23store_reauth_parametersEPK19eap_variable_data_cS2_S2_m @ 317 NONAME
	_ZThn4_N25eap_am_type_aka_symbian_c24query_imsi_from_usernameEhPK19eap_am_network_id_cPK19eap_variable_data_cPS3_P26eap_type_aka_identity_type23eap_type_aka_complete_e @ 318 NONAME
	_ZThn4_N25eap_am_type_aka_symbian_c25store_reauthentication_idEPK19eap_am_network_id_cPK19eap_variable_data_c @ 319 NONAME
	_ZThn4_N25eap_am_type_aka_symbian_c28generate_reauthentication_idEPK19eap_am_network_id_cPK19eap_variable_data_cPS3_m @ 320 NONAME
	_ZThn4_N25eap_am_type_aka_symbian_c31cancel_imsi_from_username_queryEv @ 321 NONAME
	_ZThn4_N25eap_am_type_aka_symbian_c31query_AKA_authentication_vectorEPK19eap_variable_data_chPS0_P36eap_type_aka_authentication_vector_cP26eap_type_aka_identity_type @ 322 NONAME
	_ZThn4_N25eap_am_type_aka_symbian_c38cancel_AKA_authentication_vector_queryEv @ 323 NONAME
	_ZThn4_N25eap_am_type_aka_symbian_c50query_AKA_IMSI_or_pseudonym_or_reauthentication_idEP19eap_variable_data_cS1_S1_S1_Pm21aka_payload_AT_type_e23eap_type_aka_complete_eh @ 324 NONAME
	_ZThn4_N25eap_am_type_aka_symbian_c57cancel_AKA_IMSI_or_pseudonym_or_reauthentication_id_queryEv @ 325 NONAME
	_ZThn4_N25eap_am_type_aka_symbian_c5resetEv @ 326 NONAME
	_ZThn4_N25eap_am_type_aka_symbian_c8shutdownEv @ 327 NONAME
	_ZThn4_N25eap_am_type_aka_symbian_c9configureEv @ 328 NONAME
	_ZThn4_N25eap_am_type_aka_symbian_cD0Ev @ 329 NONAME
	_ZThn4_N25eap_am_type_aka_symbian_cD1Ev @ 330 NONAME
	_ZThn8_N14eap_type_aka_c12get_is_validEv @ 331 NONAME
	_ZThn8_N14eap_type_aka_c12set_is_validEv @ 332 NONAME
	_ZThn8_N14eap_type_aka_c14packet_processEPK19eap_am_network_id_cP15eap_header_wr_cm @ 333 NONAME
	_ZThn8_N14eap_type_aka_c15eap_acknowledgeEPK19eap_am_network_id_c @ 334 NONAME
	_ZThn8_N14eap_type_aka_c18query_eap_identityEbP19eap_variable_data_cPK19eap_am_network_id_ch @ 335 NONAME
	_ZThn8_N14eap_type_aka_c26set_initial_eap_identifierEPK19eap_am_network_id_ch @ 336 NONAME
	_ZThn8_N14eap_type_aka_c5resetEv @ 337 NONAME
	_ZThn8_N14eap_type_aka_c8shutdownEv @ 338 NONAME
	_ZThn8_N14eap_type_aka_c9configureEv @ 339 NONAME
	_ZThn8_N14eap_type_aka_cD0Ev @ 340 NONAME
	_ZThn8_N14eap_type_aka_cD1Ev @ 341 NONAME
	_ZN14eap_type_aka_c12packet_traceEPKcPK19eap_am_network_id_cP15eap_header_wr_cm @ 342 NONAME

