EXPORTS
	_Z24ImplementationGroupProxyRi @ 1 NONAME
	_ZN11EapClientIf19GetServerNameAndExeEP4TBufILi24EES2_ @ 2 NONAME
	_ZN11EapClientIfC1Ev @ 3 NONAME
	_ZN11EapClientIfC2Ev @ 4 NONAME
	_ZN11EapClientIfD0Ev @ 5 NONAME
	_ZN11EapClientIfD1Ev @ 6 NONAME
	_ZN11EapClientIfD2Ev @ 7 NONAME
	_ZN23network_key_and_index_c12get_is_validEv @ 8 NONAME
	_ZN23network_key_and_index_c15get_network_keyEv @ 9 NONAME
	_ZN23network_key_and_index_c17get_is_valid_dataEv @ 10 NONAME
	_ZN23network_key_and_index_c21set_network_key_indexEh @ 11 NONAME
	_ZN23network_key_and_index_c4copyEv @ 12 NONAME
	_ZN23network_key_and_index_cC1EP18abs_eap_am_tools_c @ 13 NONAME
	_ZN23network_key_and_index_cC2EP18abs_eap_am_tools_c @ 14 NONAME
	_ZN23network_key_and_index_cD0Ev @ 15 NONAME
	_ZN23network_key_and_index_cD1Ev @ 16 NONAME
	_ZN23network_key_and_index_cD2Ev @ 17 NONAME
	_ZN23simple_config_message_c11add_paddingEm @ 18 NONAME
	_ZN23simple_config_message_c12get_is_validEv @ 19 NONAME
	_ZN23simple_config_message_c30get_simple_config_message_dataEv @ 20 NONAME
	_ZN23simple_config_message_c30set_simple_config_message_dataEP19eap_variable_data_ch @ 21 NONAME
	_ZN23simple_config_message_c5resetEv @ 22 NONAME
	_ZN23simple_config_message_cC1EP18abs_eap_am_tools_cb @ 23 NONAME
	_ZN23simple_config_message_cC2EP18abs_eap_am_tools_cb @ 24 NONAME
	_ZN23simple_config_message_cD0Ev @ 25 NONAME
	_ZN23simple_config_message_cD1Ev @ 26 NONAME
	_ZN23simple_config_message_cD2Ev @ 27 NONAME
	_ZN24simple_config_payloads_c13add_attributeEP29simple_config_variable_data_c @ 28 NONAME
	_ZN24simple_config_payloads_c14copy_attributeEPKS_30simple_config_Attribute_Type_e @ 29 NONAME
	_ZN24simple_config_payloads_c14verify_paddingEPKhm @ 30 NONAME
	_ZN24simple_config_payloads_c19copy_attribute_dataE30simple_config_Attribute_Type_ebPKvm @ 31 NONAME
	_ZN24simple_config_payloads_c21parse_generic_payloadE30simple_config_Attribute_Type_ePK26simple_config_tlv_header_c @ 32 NONAME
	_ZN24simple_config_payloads_c28parse_simple_config_payloadsEPvPmS1_ @ 33 NONAME
	_ZN24simple_config_payloads_c5resetEv @ 34 NONAME
	_ZN24simple_config_payloads_cC1EP18abs_eap_am_tools_c @ 35 NONAME
	_ZN24simple_config_payloads_cC2EP18abs_eap_am_tools_c @ 36 NONAME
	_ZN24simple_config_payloads_cD0Ev @ 37 NONAME
	_ZN24simple_config_payloads_cD1Ev @ 38 NONAME
	_ZN24simple_config_payloads_cD2Ev @ 39 NONAME
	_ZN25eap_plugin_message_base_c34new_eap_plugin_client_message_if_cEP18abs_eap_am_tools_cP24abs_eap_plugin_message_c @ 40 NONAME
	_ZN25eap_plugin_message_base_cC2Ev @ 41 NONAME
	_ZN25eap_plugin_message_base_cD0Ev @ 42 NONAME
	_ZN25eap_plugin_message_base_cD1Ev @ 43 NONAME
	_ZN25eap_plugin_message_base_cD2Ev @ 44 NONAME
	_ZN26simple_config_credential_c12get_is_validEv @ 45 NONAME
	_ZN26simple_config_credential_c15get_MAC_addressEv @ 46 NONAME
	_ZN26simple_config_credential_c16get_network_keysEv @ 47 NONAME
	_ZN26simple_config_credential_c17set_network_indexEh @ 48 NONAME
	_ZN26simple_config_credential_c19get_Encryption_TypeEv @ 49 NONAME
	_ZN26simple_config_credential_c19set_Encryption_TypeE31simple_config_Encryption_Type_e @ 50 NONAME
	_ZN26simple_config_credential_c23get_Authentication_TypeEv @ 51 NONAME
	_ZN26simple_config_credential_c23set_Authentication_TypeE35simple_config_Authentication_Type_e @ 52 NONAME
	_ZN26simple_config_credential_c8get_SSIDEv @ 53 NONAME
	_ZN26simple_config_credential_cC1EP18abs_eap_am_tools_c @ 54 NONAME
	_ZN26simple_config_credential_cC2EP18abs_eap_am_tools_c @ 55 NONAME
	_ZN26simple_config_credential_cD0Ev @ 56 NONAME
	_ZN26simple_config_credential_cD1Ev @ 57 NONAME
	_ZN26simple_config_credential_cD2Ev @ 58 NONAME
	_ZN27eap_am_message_if_symbian_c11set_partnerEP23abs_eap_am_message_if_c @ 59 NONAME
	_ZN27eap_am_message_if_symbian_c12get_is_validEv @ 60 NONAME
	_ZN27eap_am_message_if_symbian_c12process_dataEPKvm @ 61 NONAME
	_ZN27eap_am_message_if_symbian_c8shutdownEv @ 62 NONAME
	_ZN27eap_am_message_if_symbian_c9configureEPK19eap_variable_data_c @ 63 NONAME
	_ZN27eap_am_message_if_symbian_c9send_dataERK6TDesC8 @ 64 NONAME
	_ZN27eap_am_message_if_symbian_cC1EP18abs_eap_am_tools_c12TEapRequests @ 65 NONAME
	_ZN27eap_am_message_if_symbian_cC2EP18abs_eap_am_tools_c12TEapRequests @ 66 NONAME
	_ZN27eap_am_message_if_symbian_cD0Ev @ 67 NONAME
	_ZN27eap_am_message_if_symbian_cD1Ev @ 68 NONAME
	_ZN27eap_am_message_if_symbian_cD2Ev @ 69 NONAME
	_ZN29simple_config_variable_data_c10get_headerEv @ 70 NONAME
	_ZN29simple_config_variable_data_c18set_attribute_typeE30simple_config_Attribute_Type_e @ 71 NONAME
	_ZN29simple_config_variable_data_c18set_copy_of_bufferE30simple_config_Attribute_Type_ebPKvm @ 72 NONAME
	_ZN29simple_config_variable_data_c25get_full_attribute_bufferEv @ 73 NONAME
	_ZN29simple_config_variable_data_c31object_increase_reference_countEv @ 74 NONAME
	_ZN29simple_config_variable_data_c41add_next_payload_with_same_attribute_typeEPS_ @ 75 NONAME
	_ZN29simple_config_variable_data_c41get_next_payload_with_same_attribute_typeEv @ 76 NONAME
	_ZN29simple_config_variable_data_c41set_next_payload_with_same_attribute_typeEPS_ @ 77 NONAME
	_ZN29simple_config_variable_data_c8add_dataEPKvm @ 78 NONAME
	_ZN29simple_config_variable_data_cC1EP18abs_eap_am_tools_c @ 79 NONAME
	_ZN29simple_config_variable_data_cC2EP18abs_eap_am_tools_c @ 80 NONAME
	_ZN29simple_config_variable_data_cD0Ev @ 81 NONAME
	_ZN29simple_config_variable_data_cD1Ev @ 82 NONAME
	_ZN29simple_config_variable_data_cD2Ev @ 83 NONAME
	_ZN30eap_plugin_client_message_if_c12get_is_validEv @ 84 NONAME
	_ZN30eap_plugin_client_message_if_c13get_type_infoEPK21eap_method_settings_c @ 85 NONAME
	_ZN30eap_plugin_client_message_if_c15process_messageEP30eap_process_tlv_message_data_c @ 86 NONAME
	_ZN30eap_plugin_client_message_if_c17get_configurationEPK21eap_method_settings_c @ 87 NONAME
	_ZN30eap_plugin_client_message_if_c17set_configurationEPK21eap_method_settings_c @ 88 NONAME
	_ZN30eap_plugin_client_message_if_c18copy_configurationEPK21eap_method_settings_c @ 89 NONAME
	_ZN30eap_plugin_client_message_if_c20delete_configurationEPK21eap_method_settings_c @ 90 NONAME
	_ZN30eap_plugin_client_message_if_c5resetEv @ 91 NONAME
	_ZN30eap_plugin_client_message_if_c8shutdownEv @ 92 NONAME
	_ZN30eap_plugin_client_message_if_c9configureEv @ 93 NONAME
	_ZN30eap_plugin_client_message_if_c9invoke_uiEPK21eap_method_settings_c @ 94 NONAME
	_ZN30eap_plugin_client_message_if_c9send_dataEPKvm @ 95 NONAME
	_ZN30eap_plugin_client_message_if_c9set_indexEPK21eap_method_settings_c @ 96 NONAME
	_ZN30eap_plugin_client_message_if_cC1EP18abs_eap_am_tools_cP19eap_am_message_if_cP24abs_eap_plugin_message_c @ 97 NONAME
	_ZN30eap_plugin_client_message_if_cC2EP18abs_eap_am_tools_cP19eap_am_message_if_cP24abs_eap_plugin_message_c @ 98 NONAME
	_ZN30eap_plugin_client_message_if_cD0Ev @ 99 NONAME
	_ZN30eap_plugin_client_message_if_cD1Ev @ 100 NONAME
	_ZN30eap_plugin_client_message_if_cD2Ev @ 101 NONAME
	_ZN32eap_simple_config_trace_string_cC1Ev @ 102 NONAME
	_ZN32eap_simple_config_trace_string_cC2Ev @ 103 NONAME
	_ZN32eap_simple_config_trace_string_cD0Ev @ 104 NONAME
	_ZN32eap_simple_config_trace_string_cD1Ev @ 105 NONAME
	_ZN32eap_simple_config_trace_string_cD2Ev @ 106 NONAME
	_ZNK23network_key_and_index_c21get_network_key_constEv @ 107 NONAME
	_ZNK23network_key_and_index_c21get_network_key_indexEv @ 108 NONAME
	_ZNK24simple_config_payloads_c12get_is_validEv @ 109 NONAME
	_ZNK24simple_config_payloads_c13get_attributeEm @ 110 NONAME
	_ZNK24simple_config_payloads_c18get_attribute_dataE30simple_config_Attribute_Type_eP19eap_variable_data_c @ 111 NONAME
	_ZNK24simple_config_payloads_c18get_attribute_dataE30simple_config_Attribute_Type_ePh @ 112 NONAME
	_ZNK24simple_config_payloads_c18get_attribute_dataE30simple_config_Attribute_Type_ePm @ 113 NONAME
	_ZNK24simple_config_payloads_c18get_attribute_dataE30simple_config_Attribute_Type_ePt @ 114 NONAME
	_ZNK24simple_config_payloads_c18get_attribute_dataE30simple_config_Attribute_Type_ePvm @ 115 NONAME
	_ZNK24simple_config_payloads_c18get_attribute_dataE30simple_config_Attribute_Type_ePy @ 116 NONAME
	_ZNK24simple_config_payloads_c19get_attribute_countEv @ 117 NONAME
	_ZNK24simple_config_payloads_c21get_attribute_pointerE30simple_config_Attribute_Type_e @ 118 NONAME
	_ZNK24simple_config_payloads_c21get_attribute_pointerE30simple_config_Attribute_Type_em @ 119 NONAME
	_ZNK24simple_config_payloads_c24check_mandatory_payloadsEPK11eap_array_cI30simple_config_Attribute_Type_eE @ 120 NONAME
	_ZNK24simple_config_payloads_c24check_payloads_existenseEPK11eap_array_cI30simple_config_Attribute_Type_eE @ 121 NONAME
	_ZNK24simple_config_payloads_c24check_payloads_existenseEPK30simple_config_Attribute_Type_em @ 122 NONAME
	_ZNK24simple_config_payloads_c28create_simple_config_messageEP23simple_config_message_cb @ 123 NONAME
	_ZNK24simple_config_payloads_c43add_payloads_to_simple_config_authenticatorEP13crypto_hmac_cb @ 124 NONAME
	_ZNK24simple_config_payloads_c4copyEv @ 125 NONAME
	_ZNK26simple_config_credential_c14get_SSID_constEv @ 126 NONAME
	_ZNK26simple_config_credential_c17get_network_indexEv @ 127 NONAME
	_ZNK26simple_config_credential_c21get_MAC_address_constEv @ 128 NONAME
	_ZNK26simple_config_credential_c22get_network_keys_constEv @ 129 NONAME
	_ZNK29simple_config_variable_data_c12get_is_validEv @ 130 NONAME
	_ZNK29simple_config_variable_data_c15get_data_lengthEv @ 131 NONAME
	_ZNK29simple_config_variable_data_c16get_is_mandatoryEv @ 132 NONAME
	_ZNK29simple_config_variable_data_c18get_attribute_typeEv @ 133 NONAME
	_ZNK29simple_config_variable_data_c4copyEv @ 134 NONAME
	_ZNK29simple_config_variable_data_c8get_dataEm @ 135 NONAME
	_ZNK32eap_simple_config_trace_string_c16get_state_stringE21simple_config_state_e @ 136 NONAME
	_ZNK32eap_simple_config_trace_string_c23get_message_type_stringE28simple_config_Message_Type_e @ 137 NONAME
	_ZNK32eap_simple_config_trace_string_c25get_attribute_type_stringE30simple_config_Attribute_Type_e @ 138 NONAME
	_ZTI11CEapGeneric @ 139 NONAME
	_ZTI11EapClientIf @ 140 NONAME
	_ZTI12CEapTypeInfo @ 141 NONAME
	_ZTI19eap_method_values_c @ 142 NONAME
	_ZTI21eap_method_settings_c @ 143 NONAME
	_ZTI23eap_certificate_entry_c @ 144 NONAME
	_ZTI23network_key_and_index_c @ 145 NONAME
	_ZTI23simple_config_message_c @ 146 NONAME
	_ZTI24simple_config_payloads_c @ 147 NONAME
	_ZTI25eap_plugin_message_base_c @ 148 NONAME
	_ZTI26simple_config_credential_c @ 149 NONAME
	_ZTI26simple_config_tlv_header_c @ 150 NONAME
	_ZTI27eap_am_message_if_symbian_c @ 151 NONAME
	_ZTI29simple_config_variable_data_c @ 152 NONAME
	_ZTI30eap_plugin_client_message_if_c @ 153 NONAME
	_ZTI32eap_simple_config_trace_string_c @ 154 NONAME
	_ZTV11CEapGeneric @ 155 NONAME
	_ZTV11EapClientIf @ 156 NONAME
	_ZTV12CEapTypeInfo @ 157 NONAME
	_ZTV19eap_method_values_c @ 158 NONAME
	_ZTV21eap_method_settings_c @ 159 NONAME
	_ZTV23eap_certificate_entry_c @ 160 NONAME
	_ZTV23network_key_and_index_c @ 161 NONAME
	_ZTV23simple_config_message_c @ 162 NONAME
	_ZTV24simple_config_payloads_c @ 163 NONAME
	_ZTV25eap_plugin_message_base_c @ 164 NONAME
	_ZTV26simple_config_credential_c @ 165 NONAME
	_ZTV26simple_config_tlv_header_c @ 166 NONAME
	_ZTV27eap_am_message_if_symbian_c @ 167 NONAME
	_ZTV29simple_config_variable_data_c @ 168 NONAME
	_ZTV30eap_plugin_client_message_if_c @ 169 NONAME
	_ZTV32eap_simple_config_trace_string_c @ 170 NONAME
	_ZThn4_N27eap_am_message_if_symbian_c9send_dataERK6TDesC8 @ 171 NONAME
	_ZThn4_N30eap_plugin_client_message_if_c9send_dataEPKvm @ 172 NONAME
	_ZThn4_N30eap_plugin_client_message_if_cD0Ev @ 173 NONAME
	_ZThn4_N30eap_plugin_client_message_if_cD1Ev @ 174 NONAME
	_ZThn8_N27eap_am_message_if_symbian_cD0Ev @ 175 NONAME
	_ZThn8_N27eap_am_message_if_symbian_cD1Ev @ 176 NONAME

