EXPORTS
	_Z24ImplementationGroupProxyRi @ 1 NONAME
	_ZN17mschapv2_header_c10set_opcodeE17mschapv2_opcode_e @ 2 NONAME
	_ZN17mschapv2_header_c13set_ms_lengthEt @ 3 NONAME
	_ZN17mschapv2_header_c15set_mschapv2_idEh @ 4 NONAME
	_ZN17mschapv2_header_cC1EP18abs_eap_am_tools_cPvm @ 5 NONAME
	_ZN17mschapv2_header_cC2EP18abs_eap_am_tools_cPvm @ 6 NONAME
	_ZN17mschapv2_header_cD0Ev @ 7 NONAME
	_ZN17mschapv2_header_cD1Ev @ 8 NONAME
	_ZN17mschapv2_header_cD2Ev @ 9 NONAME
	_ZN19eap_type_mschapv2_c12get_is_validEv @ 10 NONAME
	_ZN19eap_type_mschapv2_c12set_is_validEv @ 11 NONAME
	_ZN19eap_type_mschapv2_c13get_is_clientEv @ 12 NONAME
	_ZN19eap_type_mschapv2_c14packet_processEPK19eap_am_network_id_cP15eap_header_wr_cm @ 13 NONAME
	_ZN19eap_type_mschapv2_c15eap_acknowledgeEPK19eap_am_network_id_c @ 14 NONAME
	_ZN19eap_type_mschapv2_c18query_eap_identityEbP19eap_variable_data_cPK19eap_am_network_id_ch @ 15 NONAME
	_ZN19eap_type_mschapv2_c26set_initial_eap_identifierEPK19eap_am_network_id_ch @ 16 NONAME
	_ZN19eap_type_mschapv2_c27complete_eap_identity_queryEv @ 17 NONAME
	_ZN19eap_type_mschapv2_c30complete_change_password_queryEv @ 18 NONAME
	_ZN19eap_type_mschapv2_c31complete_failure_retry_responseEv @ 19 NONAME
	_ZN19eap_type_mschapv2_c32finish_successful_authenticationEv @ 20 NONAME
	_ZN19eap_type_mschapv2_c32handle_identity_response_messageEv @ 21 NONAME
	_ZN19eap_type_mschapv2_c34finish_unsuccessful_authenticationEb @ 22 NONAME
	_ZN19eap_type_mschapv2_c5resetEv @ 23 NONAME
	_ZN19eap_type_mschapv2_c8shutdownEv @ 24 NONAME
	_ZN19eap_type_mschapv2_c9configureEv @ 25 NONAME
	_ZN19eap_type_mschapv2_cC1EP18abs_eap_am_tools_cP19abs_eap_base_type_cP22eap_am_type_mschapv2_cbbPK19eap_am_network_id_c @ 26 NONAME
	_ZN19eap_type_mschapv2_cC2EP18abs_eap_am_tools_cP19abs_eap_base_type_cP22eap_am_type_mschapv2_cbbPK19eap_am_network_id_c @ 27 NONAME
	_ZN19eap_type_mschapv2_cD0Ev @ 28 NONAME
	_ZN19eap_type_mschapv2_cD1Ev @ 29 NONAME
	_ZN19eap_type_mschapv2_cD2Ev @ 30 NONAME
	_ZN19mschapv2_response_c13set_constantsEv @ 31 NONAME
	_ZN19mschapv2_response_c15set_nt_responseEPKh @ 32 NONAME
	_ZN19mschapv2_response_c18set_peer_challengeEPKh @ 33 NONAME
	_ZN19mschapv2_response_c23get_header_minimum_sizeEv @ 34 NONAME
	_ZN19mschapv2_response_c8set_nameEPKh @ 35 NONAME
	_ZN19mschapv2_response_cC1EP18abs_eap_am_tools_cPvm @ 36 NONAME
	_ZN19mschapv2_response_cC2EP18abs_eap_am_tools_cPvm @ 37 NONAME
	_ZN19mschapv2_response_cD0Ev @ 38 NONAME
	_ZN19mschapv2_response_cD1Ev @ 39 NONAME
	_ZN19mschapv2_response_cD2Ev @ 40 NONAME
	_ZN20mschapv2_challenge_c13set_challengeEPKh @ 41 NONAME
	_ZN20mschapv2_challenge_c14set_value_sizeEv @ 42 NONAME
	_ZN20mschapv2_challenge_c23get_header_minimum_sizeEv @ 43 NONAME
	_ZN20mschapv2_challenge_c8set_nameEPKh @ 44 NONAME
	_ZN20mschapv2_challenge_cC1EP18abs_eap_am_tools_cPvm @ 45 NONAME
	_ZN20mschapv2_challenge_cC2EP18abs_eap_am_tools_cPvm @ 46 NONAME
	_ZN20mschapv2_challenge_cD0Ev @ 47 NONAME
	_ZN20mschapv2_challenge_cD1Ev @ 48 NONAME
	_ZN20mschapv2_challenge_cD2Ev @ 49 NONAME
	_ZN25eap_type_mschapv2_state_cD0Ev @ 50 NONAME
	_ZN25eap_type_mschapv2_state_cD1Ev @ 51 NONAME
	_ZN25eap_type_mschapv2_state_cD2Ev @ 52 NONAME
	_ZN26mschapv2_change_password_c13set_constantsEv @ 53 NONAME
	_ZN26mschapv2_change_password_c15set_nt_responseEPKh @ 54 NONAME
	_ZN26mschapv2_change_password_c18set_encrypted_hashEPKh @ 55 NONAME
	_ZN26mschapv2_change_password_c18set_peer_challengeEPKh @ 56 NONAME
	_ZN26mschapv2_change_password_c22set_encrypted_pw_blockEPKh @ 57 NONAME
	_ZN26mschapv2_change_password_c23get_header_minimum_sizeEv @ 58 NONAME
	_ZN26mschapv2_change_password_cC1EP18abs_eap_am_tools_cPvm @ 59 NONAME
	_ZN26mschapv2_change_password_cC2EP18abs_eap_am_tools_cPvm @ 60 NONAME
	_ZN26mschapv2_change_password_cD0Ev @ 61 NONAME
	_ZN26mschapv2_change_password_cD1Ev @ 62 NONAME
	_ZN26mschapv2_change_password_cD2Ev @ 63 NONAME
	_ZN30eap_am_type_mschapv2_symbian_c11DlgCompleteEi @ 64 NONAME
	_ZN30eap_am_type_mschapv2_symbian_c12get_is_validEv @ 65 NONAME
	_ZN30eap_am_type_mschapv2_symbian_c12set_is_validEv @ 66 NONAME
	_ZN30eap_am_type_mschapv2_symbian_c19type_configure_readEPK25eap_configuration_field_cP19eap_variable_data_c @ 67 NONAME
	_ZN30eap_am_type_mschapv2_symbian_c20get_memory_store_keyEP19eap_variable_data_c @ 68 NONAME
	_ZN30eap_am_type_mschapv2_symbian_c20type_configure_writeEPK25eap_configuration_field_cP19eap_variable_data_c @ 69 NONAME
	_ZN30eap_am_type_mschapv2_symbian_c24read_auth_failure_stringE20eap_mschapv2_error_eR19eap_variable_data_c @ 70 NONAME
	_ZN30eap_am_type_mschapv2_symbian_c24update_username_passwordEv @ 71 NONAME
	_ZN30eap_am_type_mschapv2_symbian_c5resetEv @ 72 NONAME
	_ZN30eap_am_type_mschapv2_symbian_c8shutdownEv @ 73 NONAME
	_ZN30eap_am_type_mschapv2_symbian_c9configureEv @ 74 NONAME
	_ZN30eap_am_type_mschapv2_symbian_cD0Ev @ 75 NONAME
	_ZN30eap_am_type_mschapv2_symbian_cD1Ev @ 76 NONAME
	_ZN30eap_am_type_mschapv2_symbian_cD2Ev @ 77 NONAME
	_ZNK17mschapv2_header_c10get_opcodeEv @ 78 NONAME
	_ZNK17mschapv2_header_c12check_headerEv @ 79 NONAME
	_ZNK17mschapv2_header_c13get_ms_lengthEv @ 80 NONAME
	_ZNK17mschapv2_header_c15get_data_lengthEv @ 81 NONAME
	_ZNK17mschapv2_header_c15get_mschapv2_idEv @ 82 NONAME
	_ZNK17mschapv2_header_c8get_dataEv @ 83 NONAME
	_ZNK19mschapv2_response_c12check_headerEv @ 84 NONAME
	_ZNK19mschapv2_response_c15get_name_lengthEv @ 85 NONAME
	_ZNK19mschapv2_response_c15get_nt_responseEv @ 86 NONAME
	_ZNK19mschapv2_response_c18get_peer_challengeEv @ 87 NONAME
	_ZNK19mschapv2_response_c8get_nameEv @ 88 NONAME
	_ZNK20mschapv2_challenge_c12check_headerEv @ 89 NONAME
	_ZNK20mschapv2_challenge_c13get_challengeEv @ 90 NONAME
	_ZNK20mschapv2_challenge_c15get_name_lengthEv @ 91 NONAME
	_ZNK20mschapv2_challenge_c8get_nameEv @ 92 NONAME
	_ZNK26mschapv2_change_password_c12check_headerEv @ 93 NONAME
	_ZNK26mschapv2_change_password_c15get_nt_responseEv @ 94 NONAME
	_ZNK26mschapv2_change_password_c18get_encrypted_hashEv @ 95 NONAME
	_ZNK26mschapv2_change_password_c18get_peer_challengeEv @ 96 NONAME
	_ZNK26mschapv2_change_password_c22get_encrypted_pw_blockEv @ 97 NONAME
	_ZTI12CEapMsChapV2 @ 98 NONAME
	_ZTI12CEapTypeInfo @ 99 NONAME
	_ZTI17mschapv2_header_c @ 100 NONAME
	_ZTI19eap_type_mschapv2_c @ 101 NONAME
	_ZTI19mschapv2_response_c @ 102 NONAME
	_ZTI20mschapv2_challenge_c @ 103 NONAME
	_ZTI25eap_type_mschapv2_state_c @ 104 NONAME
	_ZTI26mschapv2_change_password_c @ 105 NONAME
	_ZTI30eap_am_type_mschapv2_symbian_c @ 106 NONAME
	_ZTV12CEapMsChapV2 @ 107 NONAME
	_ZTV12CEapTypeInfo @ 108 NONAME
	_ZTV17mschapv2_header_c @ 109 NONAME
	_ZTV19eap_type_mschapv2_c @ 110 NONAME
	_ZTV19mschapv2_response_c @ 111 NONAME
	_ZTV20mschapv2_challenge_c @ 112 NONAME
	_ZTV25eap_type_mschapv2_state_c @ 113 NONAME
	_ZTV26mschapv2_change_password_c @ 114 NONAME
	_ZTV30eap_am_type_mschapv2_symbian_c @ 115 NONAME
	_ZThn28_N30eap_am_type_mschapv2_symbian_c19type_configure_readEPK25eap_configuration_field_cP19eap_variable_data_c @ 116 NONAME
	_ZThn28_N30eap_am_type_mschapv2_symbian_c20get_memory_store_keyEP19eap_variable_data_c @ 117 NONAME
	_ZThn28_N30eap_am_type_mschapv2_symbian_c20type_configure_writeEPK25eap_configuration_field_cP19eap_variable_data_c @ 118 NONAME
	_ZThn28_N30eap_am_type_mschapv2_symbian_c24read_auth_failure_stringE20eap_mschapv2_error_eR19eap_variable_data_c @ 119 NONAME
	_ZThn28_N30eap_am_type_mschapv2_symbian_c24update_username_passwordEv @ 120 NONAME
	_ZThn28_N30eap_am_type_mschapv2_symbian_c5resetEv @ 121 NONAME
	_ZThn28_N30eap_am_type_mschapv2_symbian_c8shutdownEv @ 122 NONAME
	_ZThn28_N30eap_am_type_mschapv2_symbian_c9configureEv @ 123 NONAME
	_ZThn28_N30eap_am_type_mschapv2_symbian_cD0Ev @ 124 NONAME
	_ZThn28_N30eap_am_type_mschapv2_symbian_cD1Ev @ 125 NONAME
	_ZThn44_N30eap_am_type_mschapv2_symbian_c11DlgCompleteEi @ 126 NONAME
	_ZThn4_N19eap_type_mschapv2_c12get_is_validEv @ 127 NONAME
	_ZThn4_N19eap_type_mschapv2_c12set_is_validEv @ 128 NONAME
	_ZThn4_N19eap_type_mschapv2_c14packet_processEPK19eap_am_network_id_cP15eap_header_wr_cm @ 129 NONAME
	_ZThn4_N19eap_type_mschapv2_c15eap_acknowledgeEPK19eap_am_network_id_c @ 130 NONAME
	_ZThn4_N19eap_type_mschapv2_c18query_eap_identityEbP19eap_variable_data_cPK19eap_am_network_id_ch @ 131 NONAME
	_ZThn4_N19eap_type_mschapv2_c26set_initial_eap_identifierEPK19eap_am_network_id_ch @ 132 NONAME
	_ZThn4_N19eap_type_mschapv2_c5resetEv @ 133 NONAME
	_ZThn4_N19eap_type_mschapv2_c8shutdownEv @ 134 NONAME
	_ZThn4_N19eap_type_mschapv2_c9configureEv @ 135 NONAME
	_ZThn4_N19eap_type_mschapv2_cD0Ev @ 136 NONAME
	_ZThn4_N19eap_type_mschapv2_cD1Ev @ 137 NONAME

