EXPORTS
	_Z24ImplementationGroupProxyRi @ 1 NONAME
	_ZN22simple_config_record_c10keyed_hmacEPK19eap_variable_data_cS2_PS0_ @ 2 NONAME
	_ZN22simple_config_record_c10process_M2EPK24simple_config_payloads_c @ 3 NONAME
	_ZN22simple_config_record_c10process_M4EPK24simple_config_payloads_c @ 4 NONAME
	_ZN22simple_config_record_c10process_M6EPK24simple_config_payloads_c @ 5 NONAME
	_ZN22simple_config_record_c10process_M8EPK24simple_config_payloads_c @ 6 NONAME
	_ZN22simple_config_record_c11process_M2DEPK24simple_config_payloads_c @ 7 NONAME
	_ZN22simple_config_record_c12generate_kdkEPK19eap_variable_data_cS2_S2_S2_PS0_ @ 8 NONAME
	_ZN22simple_config_record_c12get_is_validEv @ 9 NONAME
	_ZN22simple_config_record_c12send_WSC_ACKEv @ 10 NONAME
	_ZN22simple_config_record_c12set_is_validEv @ 11 NONAME
	_ZN22simple_config_record_c12verify_stateE21simple_config_state_e @ 12 NONAME
	_ZN22simple_config_record_c13send_WSC_DoneEv @ 13 NONAME
	_ZN22simple_config_record_c13send_WSC_NACKEv @ 14 NONAME
	_ZN22simple_config_record_c13set_nai_realmEPK19eap_variable_data_c @ 15 NONAME
	_ZN22simple_config_record_c13timer_expiredEmPv @ 16 NONAME
	_ZN22simple_config_record_c14generate_nonceEP19eap_variable_data_cm @ 17 NONAME
	_ZN22simple_config_record_c14packet_processEP19eap_variable_data_ch @ 18 NONAME
	_ZN22simple_config_record_c14read_configureEPK25eap_configuration_field_cP19eap_variable_data_c @ 19 NONAME
	_ZN22simple_config_record_c15generate_erhashEbPK19eap_variable_data_cS2_S2_PS0_S3_S3_ @ 20 NONAME
	_ZN22simple_config_record_c15process_WSC_ACKEPK24simple_config_payloads_c @ 21 NONAME
	_ZN22simple_config_record_c15write_configureEPK25eap_configuration_field_cP19eap_variable_data_c @ 22 NONAME
	_ZN22simple_config_record_c16decrypt_payloadsEPK19eap_variable_data_cS2_P29simple_config_variable_data_cP24simple_config_payloads_c @ 23 NONAME
	_ZN22simple_config_record_c16encrypt_payloadsEPK19eap_variable_data_cS2_P24simple_config_payloads_cP29simple_config_variable_data_c @ 24 NONAME
	_ZN22simple_config_record_c16process_WSC_NACKEPK24simple_config_payloads_c @ 25 NONAME
	_ZN22simple_config_record_c17generate_dhe_keysEv @ 26 NONAME
	_ZN22simple_config_record_c17generate_er_hashsEbPK19eap_variable_data_cS2_S2_PS0_S3_S3_S3_S3_S3_ @ 27 NONAME
	_ZN22simple_config_record_c17timer_delete_dataEmPv @ 28 NONAME
	_ZN22simple_config_record_c21add_common_attributesEP24simple_config_payloads_c28simple_config_Message_Type_ebb @ 29 NONAME
	_ZN22simple_config_record_c21completion_action_addE33simple_config_completion_action_e @ 30 NONAME
	_ZN22simple_config_record_c22derive_additional_keysEPK19eap_variable_data_cPS0_S3_S3_ @ 31 NONAME
	_ZN22simple_config_record_c22generate_authenticatorEPK19eap_variable_data_cS2_PS0_ @ 32 NONAME
	_ZN22simple_config_record_c23completion_action_checkEv @ 33 NONAME
	_ZN22simple_config_record_c23key_derivation_functionEPK19eap_variable_data_cS2_mPS0_ @ 34 NONAME
	_ZN22simple_config_record_c23send_error_notificationE12eap_status_e @ 35 NONAME
	_ZN22simple_config_record_c24completion_action_clenupEv @ 36 NONAME
	_ZN22simple_config_record_c26generate_dhe_shared_secretEPK19eap_variable_data_cPS0_ @ 37 NONAME
	_ZN22simple_config_record_c26send_simple_config_messageEv @ 38 NONAME
	_ZN22simple_config_record_c27add_authenticator_attributeEP23simple_config_message_cS1_ @ 39 NONAME
	_ZN22simple_config_record_c27cancel_M2D_received_timeoutEv @ 40 NONAME
	_ZN22simple_config_record_c27indicate_messages_processedEv @ 41 NONAME
	_ZN22simple_config_record_c28cancel_error_message_timeoutEv @ 42 NONAME
	_ZN22simple_config_record_c29are_pending_queries_completedEv @ 43 NONAME
	_ZN22simple_config_record_c29indicate_state_to_lower_layerE21simple_config_state_e @ 44 NONAME
	_ZN22simple_config_record_c29process_simple_config_messageEv @ 45 NONAME
	_ZN22simple_config_record_c31initalize_error_message_timeoutEv @ 46 NONAME
	_ZN22simple_config_record_c31initialize_M2D_received_timeoutEv @ 47 NONAME
	_ZN22simple_config_record_c31verify_nonces_and_authenticatorEPK19eap_variable_data_cS2_S2_PK24simple_config_payloads_cbbb @ 48 NONAME
	_ZN22simple_config_record_c32check_sent_simple_config_messageEv @ 49 NONAME
	_ZN22simple_config_record_c32process_simple_config_attributesEPK24simple_config_payloads_c @ 50 NONAME
	_ZN22simple_config_record_c34start_simple_config_authenticationEPK19eap_variable_data_c @ 51 NONAME
	_ZN22simple_config_record_c44complete_query_network_and_device_parametersE21simple_config_state_eP24simple_config_payloads_c12eap_status_e @ 52 NONAME
	_ZN22simple_config_record_c5resetEv @ 53 NONAME
	_ZN22simple_config_record_c7send_M1EPK24simple_config_payloads_c @ 54 NONAME
	_ZN22simple_config_record_c7send_M3Ev @ 55 NONAME
	_ZN22simple_config_record_c7send_M5Ev @ 56 NONAME
	_ZN22simple_config_record_c7send_M7Ev @ 57 NONAME
	_ZN22simple_config_record_c8shutdownEv @ 58 NONAME
	_ZN22simple_config_record_c9configureEv @ 59 NONAME
	_ZN22simple_config_record_c9set_stateE21simple_config_state_e @ 60 NONAME
	_ZN22simple_config_record_cC1EP18abs_eap_am_tools_cP27simple_config_am_services_cbbPK19eap_am_network_id_c @ 61 NONAME
	_ZN22simple_config_record_cC2EP18abs_eap_am_tools_cP27simple_config_am_services_cbbPK19eap_am_network_id_c @ 62 NONAME
	_ZN22simple_config_record_cD0Ev @ 63 NONAME
	_ZN22simple_config_record_cD1Ev @ 64 NONAME
	_ZN22simple_config_record_cD2Ev @ 65 NONAME
	_ZN23network_key_and_index_c12get_is_validEv @ 66 NONAME
	_ZN23network_key_and_index_c15get_network_keyEv @ 67 NONAME
	_ZN23network_key_and_index_c17get_is_valid_dataEv @ 68 NONAME
	_ZN23network_key_and_index_c21set_network_key_indexEh @ 69 NONAME
	_ZN23network_key_and_index_c4copyEv @ 70 NONAME
	_ZN23network_key_and_index_cC1EP18abs_eap_am_tools_c @ 71 NONAME
	_ZN23network_key_and_index_cC2EP18abs_eap_am_tools_c @ 72 NONAME
	_ZN23network_key_and_index_cD0Ev @ 73 NONAME
	_ZN23network_key_and_index_cD1Ev @ 74 NONAME
	_ZN23network_key_and_index_cD2Ev @ 75 NONAME
	_ZN23simple_config_message_c11add_paddingEm @ 76 NONAME
	_ZN23simple_config_message_c12get_is_validEv @ 77 NONAME
	_ZN23simple_config_message_c30get_simple_config_message_dataEv @ 78 NONAME
	_ZN23simple_config_message_c30set_simple_config_message_dataEP19eap_variable_data_ch @ 79 NONAME
	_ZN23simple_config_message_c5resetEv @ 80 NONAME
	_ZN23simple_config_message_cC1EP18abs_eap_am_tools_cb @ 81 NONAME
	_ZN23simple_config_message_cC2EP18abs_eap_am_tools_cb @ 82 NONAME
	_ZN23simple_config_message_cD0Ev @ 83 NONAME
	_ZN23simple_config_message_cD1Ev @ 84 NONAME
	_ZN23simple_config_message_cD2Ev @ 85 NONAME
	_ZN24eap_type_simple_config_c11load_moduleE19eap_expanded_type_cS0_P19abs_eap_base_type_cPP15eap_base_type_cbPK19eap_am_network_id_c @ 86 NONAME
	_ZN24eap_type_simple_config_c11packet_sendEPK19eap_am_network_id_cP18eap_buf_chain_wr_cmmm @ 87 NONAME
	_ZN24eap_type_simple_config_c12add_rogue_apER11eap_array_cI20eap_rogue_ap_entry_cE @ 88 NONAME
	_ZN24eap_type_simple_config_c12cancel_timerEP20abs_eap_base_timer_cm @ 89 NONAME
	_ZN24eap_type_simple_config_c12get_is_validEv @ 90 NONAME
	_ZN24eap_type_simple_config_c12packet_traceEPKcPK19eap_am_network_id_cP15eap_header_wr_cm @ 91 NONAME
	_ZN24eap_type_simple_config_c12set_is_validEv @ 92 NONAME
	_ZN24eap_type_simple_config_c13get_is_clientEv @ 93 NONAME
	_ZN24eap_type_simple_config_c13get_nai_realmEv @ 94 NONAME
	_ZN24eap_type_simple_config_c13timer_expiredEmPv @ 95 NONAME
	_ZN24eap_type_simple_config_c13unload_moduleE19eap_expanded_type_c @ 96 NONAME
	_ZN24eap_type_simple_config_c14packet_processEPK19eap_am_network_id_cP15eap_header_wr_cm @ 97 NONAME
	_ZN24eap_type_simple_config_c14parse_identityEPKhm @ 98 NONAME
	_ZN24eap_type_simple_config_c14read_configureEPK25eap_configuration_field_cP19eap_variable_data_c @ 99 NONAME
	_ZN24eap_type_simple_config_c15eap_acknowledgeEPK19eap_am_network_id_c @ 100 NONAME
	_ZN24eap_type_simple_config_c15write_configureEPK25eap_configuration_field_cP19eap_variable_data_c @ 101 NONAME
	_ZN24eap_type_simple_config_c16get_state_stringE39eap_type_simple_config_state_variable_e @ 102 NONAME
	_ZN24eap_type_simple_config_c16send_sc_frag_ackEv @ 103 NONAME
	_ZN24eap_type_simple_config_c17get_eap_type_listEP11eap_array_cI19eap_expanded_type_cE @ 104 NONAME
	_ZN24eap_type_simple_config_c17get_header_offsetEPmS0_ @ 105 NONAME
	_ZN24eap_type_simple_config_c17timer_delete_dataEmPv @ 106 NONAME
	_ZN24eap_type_simple_config_c18query_eap_identityEbP19eap_variable_data_cPK19eap_am_network_id_ch @ 107 NONAME
	_ZN24eap_type_simple_config_c18save_current_stateEv @ 108 NONAME
	_ZN24eap_type_simple_config_c18state_notificationEPK28abs_eap_state_notification_c @ 109 NONAME
	_ZN24eap_type_simple_config_c19get_send_network_idEv @ 110 NONAME
	_ZN24eap_type_simple_config_c19set_session_timeoutEm @ 111 NONAME
	_ZN24eap_type_simple_config_c20set_reassembly_stateE41eap_type_simple_config_reassembly_state_e @ 112 NONAME
	_ZN24eap_type_simple_config_c21update_buffer_indexesEmmPmS0_ @ 113 NONAME
	_ZN24eap_type_simple_config_c22restart_authenticationEPK19eap_am_network_id_cbbb @ 114 NONAME
	_ZN24eap_type_simple_config_c22update_payload_indexesEmmmPmS0_S0_S0_ @ 115 NONAME
	_ZN24eap_type_simple_config_c23check_is_valid_eap_typeE19eap_expanded_type_c @ 116 NONAME
	_ZN24eap_type_simple_config_c23packet_data_crypto_keysEPK19eap_am_network_id_cPK24eap_master_session_key_c @ 117 NONAME
	_ZN24eap_type_simple_config_c23send_final_notificationEv @ 118 NONAME
	_ZN24eap_type_simple_config_c23set_last_eap_identifierEh @ 119 NONAME
	_ZN24eap_type_simple_config_c25handle_eap_identity_queryEPK19eap_am_network_id_chbPK19eap_variable_data_cbS5_ @ 120 NONAME
	_ZN24eap_type_simple_config_c25simple_config_packet_sendEP18eap_buf_chain_wr_c28simple_config_Message_Type_e @ 121 NONAME
	_ZN24eap_type_simple_config_c26set_initial_eap_identifierEPK19eap_am_network_id_ch @ 122 NONAME
	_ZN24eap_type_simple_config_c27complete_eap_identity_queryEPK19eap_am_network_id_ch12eap_status_ebPK19eap_variable_data_cbS6_ @ 123 NONAME
	_ZN24eap_type_simple_config_c27get_reassembly_state_stringE41eap_type_simple_config_reassembly_state_e @ 124 NONAME
	_ZN24eap_type_simple_config_c28restore_saved_previous_stateEv @ 125 NONAME
	_ZN24eap_type_simple_config_c28set_failure_message_receivedEv @ 126 NONAME
	_ZN24eap_type_simple_config_c28simple_config_packet_processEPK19eap_am_network_id_cP26eap_simple_config_header_cm @ 127 NONAME
	_ZN24eap_type_simple_config_c29save_current_reassembly_stateEv @ 128 NONAME
	_ZN24eap_type_simple_config_c29simple_config_message_processEPK19eap_am_network_id_cP26eap_simple_config_header_cm @ 129 NONAME
	_ZN24eap_type_simple_config_c30restore_saved_reassembly_stateEv @ 130 NONAME
	_ZN24eap_type_simple_config_c30unset_failure_message_receivedEv @ 131 NONAME
	_ZN24eap_type_simple_config_c31eap_simple_config_fragment_sendEv @ 132 NONAME
	_ZN24eap_type_simple_config_c32finish_successful_authenticationEv @ 133 NONAME
	_ZN24eap_type_simple_config_c32send_simple_config_start_messageEh @ 134 NONAME
	_ZN24eap_type_simple_config_c34start_simple_config_authenticationEPK19eap_am_network_id_cPK19eap_variable_data_c @ 135 NONAME
	_ZN24eap_type_simple_config_c36eap_identity_response_packet_processEPK19eap_am_network_id_cP15eap_header_wr_cm @ 136 NONAME
	_ZN24eap_type_simple_config_c5resetEv @ 137 NONAME
	_ZN24eap_type_simple_config_c7get_NAIEv @ 138 NONAME
	_ZN24eap_type_simple_config_c8shutdownEv @ 139 NONAME
	_ZN24eap_type_simple_config_c9check_NAIEPKhmS1_ @ 140 NONAME
	_ZN24eap_type_simple_config_c9configureEv @ 141 NONAME
	_ZN24eap_type_simple_config_c9set_stateE39eap_type_simple_config_state_variable_e @ 142 NONAME
	_ZN24eap_type_simple_config_c9set_timerEP20abs_eap_base_timer_cmPvm @ 143 NONAME
	_ZN24eap_type_simple_config_cC1EP18abs_eap_am_tools_cP19abs_eap_base_type_cP27eap_am_type_simple_config_cbP27simple_config_base_record_cbb19eap_expanded_type_cPK19eap_am_network_id_c @ 144 NONAME
	_ZN24eap_type_simple_config_cC2EP18abs_eap_am_tools_cP19abs_eap_base_type_cP27eap_am_type_simple_config_cbP27simple_config_base_record_cbb19eap_expanded_type_cPK19eap_am_network_id_c @ 145 NONAME
	_ZN24eap_type_simple_config_cD0Ev @ 146 NONAME
	_ZN24eap_type_simple_config_cD1Ev @ 147 NONAME
	_ZN24eap_type_simple_config_cD2Ev @ 148 NONAME
	_ZN24simple_config_payloads_c13add_attributeEP29simple_config_variable_data_c @ 149 NONAME
	_ZN24simple_config_payloads_c14copy_attributeEPKS_30simple_config_Attribute_Type_e @ 150 NONAME
	_ZN24simple_config_payloads_c14verify_paddingEPKhm @ 151 NONAME
	_ZN24simple_config_payloads_c19copy_attribute_dataE30simple_config_Attribute_Type_ebPKvm @ 152 NONAME
	_ZN24simple_config_payloads_c21parse_generic_payloadE30simple_config_Attribute_Type_ePK26simple_config_tlv_header_c @ 153 NONAME
	_ZN24simple_config_payloads_c28parse_simple_config_payloadsEPvPmS1_ @ 154 NONAME
	_ZN24simple_config_payloads_c5resetEv @ 155 NONAME
	_ZN24simple_config_payloads_cC1EP18abs_eap_am_tools_c @ 156 NONAME
	_ZN24simple_config_payloads_cC2EP18abs_eap_am_tools_c @ 157 NONAME
	_ZN24simple_config_payloads_cD0Ev @ 158 NONAME
	_ZN24simple_config_payloads_cD1Ev @ 159 NONAME
	_ZN24simple_config_payloads_cD2Ev @ 160 NONAME
	_ZN26eap_simple_config_header_c12reset_headerEP18abs_eap_am_tools_cmb @ 161 NONAME
	_ZN26eap_simple_config_header_c12set_eap_codeE16eap_code_value_e @ 162 NONAME
	_ZN26eap_simple_config_header_c12set_eap_typeE19eap_expanded_type_cb @ 163 NONAME
	_ZN26eap_simple_config_header_c14set_eap_lengthEtb @ 164 NONAME
	_ZN26eap_simple_config_header_c14set_sc_op_codeENS_9op_code_eE @ 165 NONAME
	_ZN26eap_simple_config_header_c15set_data_lengthEmb @ 166 NONAME
	_ZN26eap_simple_config_header_c17set_flag_reservedEh @ 167 NONAME
	_ZN26eap_simple_config_header_c18set_eap_identifierEh @ 168 NONAME
	_ZN26eap_simple_config_header_c23set_flag_more_fragmentsEb @ 169 NONAME
	_ZN26eap_simple_config_header_c32set_simple_config_message_lengthEm @ 170 NONAME
	_ZN26eap_simple_config_header_c35get_simple_config_max_header_lengthEv @ 171 NONAME
	_ZN26eap_simple_config_header_c38set_flag_simple_config_length_includedEb @ 172 NONAME
	_ZN26eap_simple_config_header_cC1EP18abs_eap_am_tools_cPhm @ 173 NONAME
	_ZN26eap_simple_config_header_cC2EP18abs_eap_am_tools_cPhm @ 174 NONAME
	_ZN26eap_simple_config_header_cD0Ev @ 175 NONAME
	_ZN26eap_simple_config_header_cD1Ev @ 176 NONAME
	_ZN26eap_simple_config_header_cD2Ev @ 177 NONAME
	_ZN26simple_config_completion_c12get_is_validEv @ 178 NONAME
	_ZN26simple_config_completion_c12set_is_validEv @ 179 NONAME
	_ZN26simple_config_completion_c21set_completion_actionE33simple_config_completion_action_e @ 180 NONAME
	_ZN26simple_config_completion_cC1EP18abs_eap_am_tools_c33simple_config_completion_action_e @ 181 NONAME
	_ZN26simple_config_completion_cC2EP18abs_eap_am_tools_c33simple_config_completion_action_e @ 182 NONAME
	_ZN26simple_config_completion_cD0Ev @ 183 NONAME
	_ZN26simple_config_completion_cD1Ev @ 184 NONAME
	_ZN26simple_config_completion_cD2Ev @ 185 NONAME
	_ZN26simple_config_credential_c12get_is_validEv @ 186 NONAME
	_ZN26simple_config_credential_c15get_MAC_addressEv @ 187 NONAME
	_ZN26simple_config_credential_c16get_network_keysEv @ 188 NONAME
	_ZN26simple_config_credential_c17set_network_indexEh @ 189 NONAME
	_ZN26simple_config_credential_c19get_Encryption_TypeEv @ 190 NONAME
	_ZN26simple_config_credential_c19set_Encryption_TypeE31simple_config_Encryption_Type_e @ 191 NONAME
	_ZN26simple_config_credential_c23get_Authentication_TypeEv @ 192 NONAME
	_ZN26simple_config_credential_c23set_Authentication_TypeE35simple_config_Authentication_Type_e @ 193 NONAME
	_ZN26simple_config_credential_c8get_SSIDEv @ 194 NONAME
	_ZN26simple_config_credential_cC1EP18abs_eap_am_tools_c @ 195 NONAME
	_ZN26simple_config_credential_cC2EP18abs_eap_am_tools_c @ 196 NONAME
	_ZN26simple_config_credential_cD0Ev @ 197 NONAME
	_ZN26simple_config_credential_cD1Ev @ 198 NONAME
	_ZN26simple_config_credential_cD2Ev @ 199 NONAME
	_ZN27CEapAmProtectedSetupSymbian11load_moduleE19eap_expanded_type_cS0_P19abs_eap_base_type_cPP15eap_base_type_cbPK19eap_am_network_id_c @ 200 NONAME
	_ZN27CEapAmProtectedSetupSymbian12get_is_validEv @ 201 NONAME
	_ZN27CEapAmProtectedSetupSymbian12set_is_validEv @ 202 NONAME
	_ZN27CEapAmProtectedSetupSymbian13unload_moduleE19eap_expanded_type_c @ 203 NONAME
	_ZN27CEapAmProtectedSetupSymbian14set_am_partnerEP31abs_eap_am_type_simple_config_c @ 204 NONAME
	_ZN27CEapAmProtectedSetupSymbian17get_eap_type_listEP11eap_array_cI19eap_expanded_type_cE @ 205 NONAME
	_ZN27CEapAmProtectedSetupSymbian18query_eap_identityEPK19eap_am_network_id_chPbP19eap_variable_data_cS3_S5_ @ 206 NONAME
	_ZN27CEapAmProtectedSetupSymbian19type_configure_readEPK25eap_configuration_field_cP19eap_variable_data_c @ 207 NONAME
	_ZN27CEapAmProtectedSetupSymbian20type_configure_writeEPK25eap_configuration_field_cP19eap_variable_data_c @ 208 NONAME
	_ZN27CEapAmProtectedSetupSymbian21cancel_identity_queryEv @ 209 NONAME
	_ZN27CEapAmProtectedSetupSymbian23authentication_finishedEbb @ 210 NONAME
	_ZN27CEapAmProtectedSetupSymbian23check_is_valid_eap_typeE19eap_expanded_type_c @ 211 NONAME
	_ZN27CEapAmProtectedSetupSymbian26save_simple_config_sessionE21simple_config_state_ePK11eap_array_cI26simple_config_credential_cEPK19eap_variable_data_c34simple_config_Device_Password_ID_ePK24simple_config_payloads_c @ 212 NONAME
	_ZN27CEapAmProtectedSetupSymbian28set_simple_config_am_partnerEP31abs_simple_config_am_services_c @ 213 NONAME
	_ZN27CEapAmProtectedSetupSymbian30received_registrar_informationEPK11eap_array_cI24simple_config_payloads_cE @ 214 NONAME
	_ZN27CEapAmProtectedSetupSymbian35query_network_and_device_parametersE21simple_config_state_e @ 215 NONAME
	_ZN27CEapAmProtectedSetupSymbian39complete_protected_setup_device_paramsLERKN12RMobilePhone22TMobilePhoneIdentityV1E12eap_status_e @ 216 NONAME
	_ZN27CEapAmProtectedSetupSymbian42cancel_query_network_and_device_parametersEv @ 217 NONAME
	_ZN27CEapAmProtectedSetupSymbian4NewLEP18abs_eap_am_tools_cP19abs_eap_base_type_c10TIndexTypei19eap_expanded_type_cS5_bPK19eap_am_network_id_cP26abs_eap_configuration_if_c @ 218 NONAME
	_ZN27CEapAmProtectedSetupSymbian5resetEv @ 219 NONAME
	_ZN27CEapAmProtectedSetupSymbian8shutdownEv @ 220 NONAME
	_ZN27CEapAmProtectedSetupSymbian9configureEv @ 221 NONAME
	_ZN27CEapAmProtectedSetupSymbianC1EP18abs_eap_am_tools_cP19abs_eap_base_type_c10TIndexTypei19eap_expanded_type_cS5_bPK19eap_am_network_id_cP26abs_eap_configuration_if_c @ 222 NONAME
	_ZN27CEapAmProtectedSetupSymbianC2EP18abs_eap_am_tools_cP19abs_eap_base_type_c10TIndexTypei19eap_expanded_type_cS5_bPK19eap_am_network_id_cP26abs_eap_configuration_if_c @ 223 NONAME
	_ZN27CEapAmProtectedSetupSymbianD0Ev @ 224 NONAME
	_ZN27CEapAmProtectedSetupSymbianD1Ev @ 225 NONAME
	_ZN27CEapAmProtectedSetupSymbianD2Ev @ 226 NONAME
	_ZN27simple_config_base_record_c16get_type_partnerEv @ 227 NONAME
	_ZN27simple_config_base_record_c16set_type_partnerEP31abs_simple_config_base_record_c @ 228 NONAME
	_ZN27simple_config_base_record_cC2EP18abs_eap_am_tools_c @ 229 NONAME
	_ZN27simple_config_base_record_cD0Ev @ 230 NONAME
	_ZN27simple_config_base_record_cD1Ev @ 231 NONAME
	_ZN27simple_config_base_record_cD2Ev @ 232 NONAME
	_ZN29simple_config_variable_data_c10get_headerEv @ 233 NONAME
	_ZN29simple_config_variable_data_c18set_attribute_typeE30simple_config_Attribute_Type_e @ 234 NONAME
	_ZN29simple_config_variable_data_c18set_copy_of_bufferE30simple_config_Attribute_Type_ebPKvm @ 235 NONAME
	_ZN29simple_config_variable_data_c25get_full_attribute_bufferEv @ 236 NONAME
	_ZN29simple_config_variable_data_c31object_increase_reference_countEv @ 237 NONAME
	_ZN29simple_config_variable_data_c41add_next_payload_with_same_attribute_typeEPS_ @ 238 NONAME
	_ZN29simple_config_variable_data_c41get_next_payload_with_same_attribute_typeEv @ 239 NONAME
	_ZN29simple_config_variable_data_c41set_next_payload_with_same_attribute_typeEPS_ @ 240 NONAME
	_ZN29simple_config_variable_data_c8add_dataEPKvm @ 241 NONAME
	_ZN29simple_config_variable_data_cC1EP18abs_eap_am_tools_c @ 242 NONAME
	_ZN29simple_config_variable_data_cC2EP18abs_eap_am_tools_c @ 243 NONAME
	_ZN29simple_config_variable_data_cD0Ev @ 244 NONAME
	_ZN29simple_config_variable_data_cD1Ev @ 245 NONAME
	_ZN29simple_config_variable_data_cD2Ev @ 246 NONAME
	_ZN32eap_simple_config_trace_string_cC1Ev @ 247 NONAME
	_ZN32eap_simple_config_trace_string_cC2Ev @ 248 NONAME
	_ZN32eap_simple_config_trace_string_cD0Ev @ 249 NONAME
	_ZN32eap_simple_config_trace_string_cD1Ev @ 250 NONAME
	_ZN32eap_simple_config_trace_string_cD2Ev @ 251 NONAME
	_ZN43eap_type_simple_config_state_notification_cC1EP18abs_eap_am_tools_cPK19eap_am_network_id_cb28eap_state_notification_eap_e20eap_protocol_layer_e19eap_expanded_type_cmmhb @ 252 NONAME
	_ZN43eap_type_simple_config_state_notification_cC1EP18abs_eap_am_tools_cPK19eap_am_network_id_cb28eap_state_notification_eap_e20eap_protocol_layer_e22eap_type_ietf_values_emmhb @ 253 NONAME
	_ZN43eap_type_simple_config_state_notification_cC1EP18abs_eap_am_tools_cPK19eap_am_network_id_cb32eap_state_notification_generic_e20eap_protocol_layer_emmmhb @ 254 NONAME
	_ZN43eap_type_simple_config_state_notification_cC2EP18abs_eap_am_tools_cPK19eap_am_network_id_cb28eap_state_notification_eap_e20eap_protocol_layer_e19eap_expanded_type_cmmhb @ 255 NONAME
	_ZN43eap_type_simple_config_state_notification_cC2EP18abs_eap_am_tools_cPK19eap_am_network_id_cb28eap_state_notification_eap_e20eap_protocol_layer_e22eap_type_ietf_values_emmhb @ 256 NONAME
	_ZN43eap_type_simple_config_state_notification_cC2EP18abs_eap_am_tools_cPK19eap_am_network_id_cb32eap_state_notification_generic_e20eap_protocol_layer_emmmhb @ 257 NONAME
	_ZN43eap_type_simple_config_state_notification_cD0Ev @ 258 NONAME
	_ZN43eap_type_simple_config_state_notification_cD1Ev @ 259 NONAME
	_ZN43eap_type_simple_config_state_notification_cD2Ev @ 260 NONAME
	_ZNK22simple_config_record_c9get_stateEv @ 261 NONAME
	_ZNK23network_key_and_index_c21get_network_key_constEv @ 262 NONAME
	_ZNK23network_key_and_index_c21get_network_key_indexEv @ 263 NONAME
	_ZNK24eap_type_simple_config_c16get_state_stringEv @ 264 NONAME
	_ZNK24eap_type_simple_config_c20get_reassembly_stateEv @ 265 NONAME
	_ZNK24eap_type_simple_config_c23get_last_eap_identifierEv @ 266 NONAME
	_ZNK24eap_type_simple_config_c27get_reassembly_state_stringEv @ 267 NONAME
	_ZNK24eap_type_simple_config_c28get_failure_message_receivedEv @ 268 NONAME
	_ZNK24eap_type_simple_config_c31get_saved_previous_state_stringEv @ 269 NONAME
	_ZNK24eap_type_simple_config_c9get_stateEv @ 270 NONAME
	_ZNK24simple_config_payloads_c12get_is_validEv @ 271 NONAME
	_ZNK24simple_config_payloads_c13get_attributeEm @ 272 NONAME
	_ZNK24simple_config_payloads_c18get_attribute_dataE30simple_config_Attribute_Type_eP19eap_variable_data_c @ 273 NONAME
	_ZNK24simple_config_payloads_c18get_attribute_dataE30simple_config_Attribute_Type_ePh @ 274 NONAME
	_ZNK24simple_config_payloads_c18get_attribute_dataE30simple_config_Attribute_Type_ePm @ 275 NONAME
	_ZNK24simple_config_payloads_c18get_attribute_dataE30simple_config_Attribute_Type_ePt @ 276 NONAME
	_ZNK24simple_config_payloads_c18get_attribute_dataE30simple_config_Attribute_Type_ePvm @ 277 NONAME
	_ZNK24simple_config_payloads_c18get_attribute_dataE30simple_config_Attribute_Type_ePy @ 278 NONAME
	_ZNK24simple_config_payloads_c19get_attribute_countEv @ 279 NONAME
	_ZNK24simple_config_payloads_c21get_attribute_pointerE30simple_config_Attribute_Type_e @ 280 NONAME
	_ZNK24simple_config_payloads_c21get_attribute_pointerE30simple_config_Attribute_Type_em @ 281 NONAME
	_ZNK24simple_config_payloads_c24check_mandatory_payloadsEPK11eap_array_cI30simple_config_Attribute_Type_eE @ 282 NONAME
	_ZNK24simple_config_payloads_c24check_payloads_existenseEPK11eap_array_cI30simple_config_Attribute_Type_eE @ 283 NONAME
	_ZNK24simple_config_payloads_c24check_payloads_existenseEPK30simple_config_Attribute_Type_em @ 284 NONAME
	_ZNK24simple_config_payloads_c28create_simple_config_messageEP23simple_config_message_cb @ 285 NONAME
	_ZNK24simple_config_payloads_c43add_payloads_to_simple_config_authenticatorEP13crypto_hmac_cb @ 286 NONAME
	_ZNK24simple_config_payloads_c4copyEv @ 287 NONAME
	_ZNK26eap_simple_config_header_c12check_headerEP18abs_eap_am_tools_cb @ 288 NONAME
	_ZNK26eap_simple_config_header_c12get_eap_codeEv @ 289 NONAME
	_ZNK26eap_simple_config_header_c12get_eap_typeEv @ 290 NONAME
	_ZNK26eap_simple_config_header_c14get_eap_lengthEv @ 291 NONAME
	_ZNK26eap_simple_config_header_c14get_sc_op_codeEv @ 292 NONAME
	_ZNK26eap_simple_config_header_c15get_code_stringEv @ 293 NONAME
	_ZNK26eap_simple_config_header_c15get_data_lengthEv @ 294 NONAME
	_ZNK26eap_simple_config_header_c15get_data_offsetEP18abs_eap_am_tools_cmm @ 295 NONAME
	_ZNK26eap_simple_config_header_c17get_flag_reservedEv @ 296 NONAME
	_ZNK26eap_simple_config_header_c17get_header_lengthEv @ 297 NONAME
	_ZNK26eap_simple_config_header_c18get_eap_identifierEv @ 298 NONAME
	_ZNK26eap_simple_config_header_c19get_eap_type_stringEv @ 299 NONAME
	_ZNK26eap_simple_config_header_c19get_sc_flags_offsetEv @ 300 NONAME
	_ZNK26eap_simple_config_header_c20get_sc_length_offsetEv @ 301 NONAME
	_ZNK26eap_simple_config_header_c21get_sc_op_code_offsetEv @ 302 NONAME
	_ZNK26eap_simple_config_header_c21get_sc_op_code_stringEv @ 303 NONAME
	_ZNK26eap_simple_config_header_c23get_flag_more_fragmentsEv @ 304 NONAME
	_ZNK26eap_simple_config_header_c23get_simple_config_flagsEv @ 305 NONAME
	_ZNK26eap_simple_config_header_c24get_start_offset_of_dataEv @ 306 NONAME
	_ZNK26eap_simple_config_header_c26get_simple_config_flag_bitEm @ 307 NONAME
	_ZNK26eap_simple_config_header_c26set_simple_config_flag_bitEbm @ 308 NONAME
	_ZNK26eap_simple_config_header_c28get_simple_config_flag_valueEmm @ 309 NONAME
	_ZNK26eap_simple_config_header_c28set_simple_config_flag_valueEhmm @ 310 NONAME
	_ZNK26eap_simple_config_header_c32get_simple_config_message_lengthEPm @ 311 NONAME
	_ZNK26eap_simple_config_header_c35get_simple_config_min_header_lengthEv @ 312 NONAME
	_ZNK26eap_simple_config_header_c38get_flag_simple_config_length_includedEv @ 313 NONAME
	_ZNK26eap_simple_config_header_c8get_dataEP18abs_eap_am_tools_cm @ 314 NONAME
	_ZNK26simple_config_completion_c21get_completion_actionEv @ 315 NONAME
	_ZNK26simple_config_completion_c28get_completion_action_stringEv @ 316 NONAME
	_ZNK26simple_config_credential_c14get_SSID_constEv @ 317 NONAME
	_ZNK26simple_config_credential_c17get_network_indexEv @ 318 NONAME
	_ZNK26simple_config_credential_c21get_MAC_address_constEv @ 319 NONAME
	_ZNK26simple_config_credential_c22get_network_keys_constEv @ 320 NONAME
	_ZNK29simple_config_variable_data_c12get_is_validEv @ 321 NONAME
	_ZNK29simple_config_variable_data_c15get_data_lengthEv @ 322 NONAME
	_ZNK29simple_config_variable_data_c16get_is_mandatoryEv @ 323 NONAME
	_ZNK29simple_config_variable_data_c18get_attribute_typeEv @ 324 NONAME
	_ZNK29simple_config_variable_data_c4copyEv @ 325 NONAME
	_ZNK29simple_config_variable_data_c8get_dataEm @ 326 NONAME
	_ZNK32eap_simple_config_trace_string_c16get_state_stringE21simple_config_state_e @ 327 NONAME
	_ZNK32eap_simple_config_trace_string_c23get_message_type_stringE28simple_config_Message_Type_e @ 328 NONAME
	_ZNK32eap_simple_config_trace_string_c25get_attribute_type_stringE30simple_config_Attribute_Type_e @ 329 NONAME
	_ZTI12CEapTypeInfo @ 330 NONAME
	_ZTI18CEapProtectedSetup @ 331 NONAME
	_ZTI22simple_config_record_c @ 332 NONAME
	_ZTI23network_key_and_index_c @ 333 NONAME
	_ZTI23simple_config_message_c @ 334 NONAME
	_ZTI24eap_type_simple_config_c @ 335 NONAME
	_ZTI24simple_config_payloads_c @ 336 NONAME
	_ZTI26eap_simple_config_header_c @ 337 NONAME
	_ZTI26simple_config_completion_c @ 338 NONAME
	_ZTI26simple_config_credential_c @ 339 NONAME
	_ZTI26simple_config_tlv_header_c @ 340 NONAME
	_ZTI27CEapAmProtectedSetupSymbian @ 341 NONAME
	_ZTI27CEapProtectedSetupInterface @ 342 NONAME
	_ZTI27simple_config_base_record_c @ 343 NONAME
	_ZTI29simple_config_variable_data_c @ 344 NONAME
	_ZTI32eap_simple_config_trace_string_c @ 345 NONAME
	_ZTI43eap_type_simple_config_state_notification_c @ 346 NONAME
	_ZTV12CEapTypeInfo @ 347 NONAME
	_ZTV18CEapProtectedSetup @ 348 NONAME
	_ZTV22simple_config_record_c @ 349 NONAME
	_ZTV23network_key_and_index_c @ 350 NONAME
	_ZTV23simple_config_message_c @ 351 NONAME
	_ZTV24eap_type_simple_config_c @ 352 NONAME
	_ZTV24simple_config_payloads_c @ 353 NONAME
	_ZTV26eap_simple_config_header_c @ 354 NONAME
	_ZTV26simple_config_completion_c @ 355 NONAME
	_ZTV26simple_config_credential_c @ 356 NONAME
	_ZTV26simple_config_tlv_header_c @ 357 NONAME
	_ZTV27CEapAmProtectedSetupSymbian @ 358 NONAME
	_ZTV27CEapProtectedSetupInterface @ 359 NONAME
	_ZTV27simple_config_base_record_c @ 360 NONAME
	_ZTV29simple_config_variable_data_c @ 361 NONAME
	_ZTV32eap_simple_config_trace_string_c @ 362 NONAME
	_ZTV43eap_type_simple_config_state_notification_c @ 363 NONAME
	_ZThn12_N22simple_config_record_c44complete_query_network_and_device_parametersE21simple_config_state_eP24simple_config_payloads_c12eap_status_e @ 364 NONAME
	_ZThn12_N22simple_config_record_c9configureEv @ 365 NONAME
	_ZThn12_N22simple_config_record_cD0Ev @ 366 NONAME
	_ZThn12_N22simple_config_record_cD1Ev @ 367 NONAME
	_ZThn16_N22simple_config_record_c13timer_expiredEmPv @ 368 NONAME
	_ZThn16_N22simple_config_record_c17timer_delete_dataEmPv @ 369 NONAME
	_ZThn16_N22simple_config_record_cD0Ev @ 370 NONAME
	_ZThn16_N22simple_config_record_cD1Ev @ 371 NONAME
	_ZThn20_N24eap_type_simple_config_c13get_is_clientEv @ 372 NONAME
	_ZThn20_N24eap_type_simple_config_c27complete_eap_identity_queryEPK19eap_am_network_id_ch12eap_status_ebPK19eap_variable_data_cbS6_ @ 373 NONAME
	_ZThn20_N24eap_type_simple_config_cD0Ev @ 374 NONAME
	_ZThn20_N24eap_type_simple_config_cD1Ev @ 375 NONAME
	_ZThn24_N24eap_type_simple_config_c11load_moduleE19eap_expanded_type_cS0_P19abs_eap_base_type_cPP15eap_base_type_cbPK19eap_am_network_id_c @ 376 NONAME
	_ZThn24_N24eap_type_simple_config_c12add_rogue_apER11eap_array_cI20eap_rogue_ap_entry_cE @ 377 NONAME
	_ZThn24_N24eap_type_simple_config_c12cancel_timerEP20abs_eap_base_timer_cm @ 378 NONAME
	_ZThn24_N24eap_type_simple_config_c13unload_moduleE19eap_expanded_type_c @ 379 NONAME
	_ZThn24_N24eap_type_simple_config_c14read_configureEPK25eap_configuration_field_cP19eap_variable_data_c @ 380 NONAME
	_ZThn24_N24eap_type_simple_config_c15write_configureEPK25eap_configuration_field_cP19eap_variable_data_c @ 381 NONAME
	_ZThn24_N24eap_type_simple_config_c17get_eap_type_listEP11eap_array_cI19eap_expanded_type_cE @ 382 NONAME
	_ZThn24_N24eap_type_simple_config_c17get_header_offsetEPmS0_ @ 383 NONAME
	_ZThn24_N24eap_type_simple_config_c18state_notificationEPK28abs_eap_state_notification_c @ 384 NONAME
	_ZThn24_N24eap_type_simple_config_c19set_session_timeoutEm @ 385 NONAME
	_ZThn24_N24eap_type_simple_config_c22restart_authenticationEPK19eap_am_network_id_cbbb @ 386 NONAME
	_ZThn24_N24eap_type_simple_config_c23check_is_valid_eap_typeE19eap_expanded_type_c @ 387 NONAME
	_ZThn24_N24eap_type_simple_config_c23packet_data_crypto_keysEPK19eap_am_network_id_cPK24eap_master_session_key_c @ 388 NONAME
	_ZThn24_N24eap_type_simple_config_c25simple_config_packet_sendEP18eap_buf_chain_wr_c28simple_config_Message_Type_e @ 389 NONAME
	_ZThn24_N24eap_type_simple_config_c9set_timerEP20abs_eap_base_timer_cmPvm @ 390 NONAME
	_ZThn24_N24eap_type_simple_config_cD0Ev @ 391 NONAME
	_ZThn24_N24eap_type_simple_config_cD1Ev @ 392 NONAME
	_ZThn4_N24eap_type_simple_config_c12get_is_validEv @ 393 NONAME
	_ZThn4_N24eap_type_simple_config_c12set_is_validEv @ 394 NONAME
	_ZThn4_N24eap_type_simple_config_c14packet_processEPK19eap_am_network_id_cP15eap_header_wr_cm @ 395 NONAME
	_ZThn4_N24eap_type_simple_config_c15eap_acknowledgeEPK19eap_am_network_id_c @ 396 NONAME
	_ZThn4_N24eap_type_simple_config_c18query_eap_identityEbP19eap_variable_data_cPK19eap_am_network_id_ch @ 397 NONAME
	_ZThn4_N24eap_type_simple_config_c26set_initial_eap_identifierEPK19eap_am_network_id_ch @ 398 NONAME
	_ZThn4_N24eap_type_simple_config_c5resetEv @ 399 NONAME
	_ZThn4_N24eap_type_simple_config_c8shutdownEv @ 400 NONAME
	_ZThn4_N24eap_type_simple_config_c9configureEv @ 401 NONAME
	_ZThn4_N24eap_type_simple_config_cD0Ev @ 402 NONAME
	_ZThn4_N24eap_type_simple_config_cD1Ev @ 403 NONAME
	_ZThn4_N27CEapAmProtectedSetupSymbian11load_moduleE19eap_expanded_type_cS0_P19abs_eap_base_type_cPP15eap_base_type_cbPK19eap_am_network_id_c @ 404 NONAME
	_ZThn4_N27CEapAmProtectedSetupSymbian12get_is_validEv @ 405 NONAME
	_ZThn4_N27CEapAmProtectedSetupSymbian13unload_moduleE19eap_expanded_type_c @ 406 NONAME
	_ZThn4_N27CEapAmProtectedSetupSymbian14set_am_partnerEP31abs_eap_am_type_simple_config_c @ 407 NONAME
	_ZThn4_N27CEapAmProtectedSetupSymbian17get_eap_type_listEP11eap_array_cI19eap_expanded_type_cE @ 408 NONAME
	_ZThn4_N27CEapAmProtectedSetupSymbian18query_eap_identityEPK19eap_am_network_id_chPbP19eap_variable_data_cS3_S5_ @ 409 NONAME
	_ZThn4_N27CEapAmProtectedSetupSymbian19type_configure_readEPK25eap_configuration_field_cP19eap_variable_data_c @ 410 NONAME
	_ZThn4_N27CEapAmProtectedSetupSymbian20type_configure_writeEPK25eap_configuration_field_cP19eap_variable_data_c @ 411 NONAME
	_ZThn4_N27CEapAmProtectedSetupSymbian21cancel_identity_queryEv @ 412 NONAME
	_ZThn4_N27CEapAmProtectedSetupSymbian23authentication_finishedEbb @ 413 NONAME
	_ZThn4_N27CEapAmProtectedSetupSymbian23check_is_valid_eap_typeE19eap_expanded_type_c @ 414 NONAME
	_ZThn4_N27CEapAmProtectedSetupSymbian26save_simple_config_sessionE21simple_config_state_ePK11eap_array_cI26simple_config_credential_cEPK19eap_variable_data_c34simple_config_Device_Password_ID_ePK24simple_config_payloads_c @ 415 NONAME
	_ZThn4_N27CEapAmProtectedSetupSymbian28set_simple_config_am_partnerEP31abs_simple_config_am_services_c @ 416 NONAME
	_ZThn4_N27CEapAmProtectedSetupSymbian30received_registrar_informationEPK11eap_array_cI24simple_config_payloads_cE @ 417 NONAME
	_ZThn4_N27CEapAmProtectedSetupSymbian35query_network_and_device_parametersE21simple_config_state_e @ 418 NONAME
	_ZThn4_N27CEapAmProtectedSetupSymbian42cancel_query_network_and_device_parametersEv @ 419 NONAME
	_ZThn4_N27CEapAmProtectedSetupSymbian5resetEv @ 420 NONAME
	_ZThn4_N27CEapAmProtectedSetupSymbian8shutdownEv @ 421 NONAME
	_ZThn4_N27CEapAmProtectedSetupSymbian9configureEv @ 422 NONAME
	_ZThn4_N27CEapAmProtectedSetupSymbianD0Ev @ 423 NONAME
	_ZThn4_N27CEapAmProtectedSetupSymbianD1Ev @ 424 NONAME

