EXPORTS
	_Z24ImplementationGroupProxyRi @ 1 NONAME
	_ZN18eap_type_securid_c12get_is_validEv @ 2 NONAME
	_ZN18eap_type_securid_c12set_is_validEv @ 3 NONAME
	_ZN18eap_type_securid_c13get_is_clientEv @ 4 NONAME
	_ZN18eap_type_securid_c14packet_processEPK19eap_am_network_id_cP15eap_header_wr_cm @ 5 NONAME
	_ZN18eap_type_securid_c15eap_acknowledgeEPK19eap_am_network_id_c @ 6 NONAME
	_ZN18eap_type_securid_c18query_eap_identityEbP19eap_variable_data_cPK19eap_am_network_id_ch @ 7 NONAME
	_ZN18eap_type_securid_c21remove_username_storeEv @ 8 NONAME
	_ZN18eap_type_securid_c26set_initial_eap_identifierEPK19eap_am_network_id_ch @ 9 NONAME
	_ZN18eap_type_securid_c27complete_eap_identity_queryEPK19eap_variable_data_c @ 10 NONAME
	_ZN18eap_type_securid_c32finish_successful_authenticationEv @ 11 NONAME
	_ZN18eap_type_securid_c34finish_unsuccessful_authenticationEb @ 12 NONAME
	_ZN18eap_type_securid_c36client_gtc_complete_user_input_queryEPK19eap_variable_data_c @ 13 NONAME
	_ZN18eap_type_securid_c37client_securid_complete_pincode_queryEPK19eap_variable_data_cS2_ @ 14 NONAME
	_ZN18eap_type_securid_c38client_securid_complete_passcode_queryEPK19eap_variable_data_c @ 15 NONAME
	_ZN18eap_type_securid_c5resetEv @ 16 NONAME
	_ZN18eap_type_securid_c8shutdownEv @ 17 NONAME
	_ZN18eap_type_securid_c9configureEv @ 18 NONAME
	_ZN18eap_type_securid_cC1EP18abs_eap_am_tools_cP19abs_eap_base_type_cP21eap_am_type_securid_cb19eap_expanded_type_cbPK19eap_am_network_id_c @ 19 NONAME
	_ZN18eap_type_securid_cC2EP18abs_eap_am_tools_cP19abs_eap_base_type_cP21eap_am_type_securid_cb19eap_expanded_type_cbPK19eap_am_network_id_c @ 20 NONAME
	_ZN18eap_type_securid_cD0Ev @ 21 NONAME
	_ZN18eap_type_securid_cD1Ev @ 22 NONAME
	_ZN18eap_type_securid_cD2Ev @ 23 NONAME
	_ZN29eap_am_type_securid_symbian_c11DlgCompleteEi @ 24 NONAME
	_ZN29eap_am_type_securid_symbian_c12get_is_validEv @ 25 NONAME
	_ZN29eap_am_type_securid_symbian_c12set_is_validEv @ 26 NONAME
	_ZN29eap_am_type_securid_symbian_c13timer_expiredEmPv @ 27 NONAME
	_ZN29eap_am_type_securid_symbian_c17timer_delete_dataEmPv @ 28 NONAME
	_ZN29eap_am_type_securid_symbian_c19type_configure_readEPK25eap_configuration_field_cP19eap_variable_data_c @ 29 NONAME
	_ZN29eap_am_type_securid_symbian_c20get_memory_store_keyEP19eap_variable_data_c @ 30 NONAME
	_ZN29eap_am_type_securid_symbian_c20type_configure_writeEPK25eap_configuration_field_cP19eap_variable_data_c @ 31 NONAME
	_ZN29eap_am_type_securid_symbian_c24read_auth_failure_stringEP19eap_variable_data_c @ 32 NONAME
	_ZN29eap_am_type_securid_symbian_c5resetEv @ 33 NONAME
	_ZN29eap_am_type_securid_symbian_c8shutdownEv @ 34 NONAME
	_ZN29eap_am_type_securid_symbian_c9configureEv @ 35 NONAME
	_ZN29eap_am_type_securid_symbian_cD0Ev @ 36 NONAME
	_ZN29eap_am_type_securid_symbian_cD1Ev @ 37 NONAME
	_ZN29eap_am_type_securid_symbian_cD2Ev @ 38 NONAME
	_ZTI11CEapSecurID @ 39 NONAME
	_ZTI12CEapTypeInfo @ 40 NONAME
	_ZTI18eap_type_securid_c @ 41 NONAME
	_ZTI24eap_type_securid_state_c @ 42 NONAME
	_ZTI29eap_am_type_securid_symbian_c @ 43 NONAME
	_ZTV11CEapSecurID @ 44 NONAME
	_ZTV12CEapTypeInfo @ 45 NONAME
	_ZTV18eap_type_securid_c @ 46 NONAME
	_ZTV24eap_type_securid_state_c @ 47 NONAME
	_ZTV29eap_am_type_securid_symbian_c @ 48 NONAME
	_ZThn28_N29eap_am_type_securid_symbian_c19type_configure_readEPK25eap_configuration_field_cP19eap_variable_data_c @ 49 NONAME
	_ZThn28_N29eap_am_type_securid_symbian_c20get_memory_store_keyEP19eap_variable_data_c @ 50 NONAME
	_ZThn28_N29eap_am_type_securid_symbian_c20type_configure_writeEPK25eap_configuration_field_cP19eap_variable_data_c @ 51 NONAME
	_ZThn28_N29eap_am_type_securid_symbian_c24read_auth_failure_stringEP19eap_variable_data_c @ 52 NONAME
	_ZThn28_N29eap_am_type_securid_symbian_c5resetEv @ 53 NONAME
	_ZThn28_N29eap_am_type_securid_symbian_c8shutdownEv @ 54 NONAME
	_ZThn28_N29eap_am_type_securid_symbian_c9configureEv @ 55 NONAME
	_ZThn28_N29eap_am_type_securid_symbian_cD0Ev @ 56 NONAME
	_ZThn28_N29eap_am_type_securid_symbian_cD1Ev @ 57 NONAME
	_ZThn44_N29eap_am_type_securid_symbian_c13timer_expiredEmPv @ 58 NONAME
	_ZThn44_N29eap_am_type_securid_symbian_c17timer_delete_dataEmPv @ 59 NONAME
	_ZThn44_N29eap_am_type_securid_symbian_cD0Ev @ 60 NONAME
	_ZThn44_N29eap_am_type_securid_symbian_cD1Ev @ 61 NONAME
	_ZThn48_N29eap_am_type_securid_symbian_c11DlgCompleteEi @ 62 NONAME
	_ZThn4_N18eap_type_securid_c12get_is_validEv @ 63 NONAME
	_ZThn4_N18eap_type_securid_c12set_is_validEv @ 64 NONAME
	_ZThn4_N18eap_type_securid_c14packet_processEPK19eap_am_network_id_cP15eap_header_wr_cm @ 65 NONAME
	_ZThn4_N18eap_type_securid_c15eap_acknowledgeEPK19eap_am_network_id_c @ 66 NONAME
	_ZThn4_N18eap_type_securid_c18query_eap_identityEbP19eap_variable_data_cPK19eap_am_network_id_ch @ 67 NONAME
	_ZThn4_N18eap_type_securid_c26set_initial_eap_identifierEPK19eap_am_network_id_ch @ 68 NONAME
	_ZThn4_N18eap_type_securid_c5resetEv @ 69 NONAME
	_ZThn4_N18eap_type_securid_c8shutdownEv @ 70 NONAME
	_ZThn4_N18eap_type_securid_c9configureEv @ 71 NONAME
	_ZThn4_N18eap_type_securid_cD0Ev @ 72 NONAME
	_ZThn4_N18eap_type_securid_cD1Ev @ 73 NONAME

