EXPORTS
	_Z24ImplementationGroupProxyRi @ 1 NONAME
	_Z38convert_eap_diameter_avp_code_to_u32_t23eap_diameter_avp_code_c @ 2 NONAME
	_Z38convert_eap_diameter_avp_code_to_u64_t23eap_diameter_avp_code_c @ 3 NONAME
	_ZN12tls_record_c11load_moduleE19eap_expanded_type_cS0_P19abs_eap_base_type_cPP15eap_base_type_cbPK19eap_am_network_id_c @ 4 NONAME
	_ZN12tls_record_c11packet_sendEP18eap_buf_chain_wr_cmmm @ 5 NONAME
	_ZN12tls_record_c12add_rogue_apER11eap_array_cI20eap_rogue_ap_entry_cE @ 6 NONAME
	_ZN12tls_record_c12cancel_timerEP20abs_eap_base_timer_cm @ 7 NONAME
	_ZN12tls_record_c12get_is_validEv @ 8 NONAME
	_ZN12tls_record_c12set_is_validEv @ 9 NONAME
	_ZN12tls_record_c12verify_stateE16tls_peap_state_e @ 10 NONAME
	_ZN12tls_record_c13set_nai_realmEPK19eap_variable_data_c @ 11 NONAME
	_ZN12tls_record_c13unload_moduleE19eap_expanded_type_c @ 12 NONAME
	_ZN12tls_record_c14packet_processEP19eap_variable_data_ch @ 13 NONAME
	_ZN12tls_record_c14read_configureEPK25eap_configuration_field_cP19eap_variable_data_c @ 14 NONAME
	_ZN12tls_record_c15write_configureEPK25eap_configuration_field_cP19eap_variable_data_c @ 15 NONAME
	_ZN12tls_record_c16finish_handshakeEv @ 16 NONAME
	_ZN12tls_record_c16get_tls_prf_dataEPK19eap_variable_data_cS2_S2_S2_PS0_m @ 17 NONAME
	_ZN12tls_record_c16send_tls_messageEv @ 18 NONAME
	_ZN12tls_record_c16set_peap_versionE14peap_version_ebb @ 19 NONAME
	_ZN12tls_record_c17generate_dhe_keysEv @ 20 NONAME
	_ZN12tls_record_c17get_eap_type_listEP11eap_array_cI19eap_expanded_type_cE @ 21 NONAME
	_ZN12tls_record_c17get_header_offsetEPmS0_ @ 22 NONAME
	_ZN12tls_record_c17message_hash_initEv @ 23 NONAME
	_ZN12tls_record_c18add_record_messageEP19tls_alert_message_c @ 24 NONAME
	_ZN12tls_record_c18add_record_messageEP23tls_handshake_message_c @ 25 NONAME
	_ZN12tls_record_c18add_record_messageEP30tls_application_data_message_c @ 26 NONAME
	_ZN12tls_record_c18add_record_messageEP32tls_change_cipher_spec_message_c @ 27 NONAME
	_ZN12tls_record_c18change_cipher_specEb @ 28 NONAME
	_ZN12tls_record_c18message_hash_finalEP19eap_variable_data_cS1_ @ 29 NONAME
	_ZN12tls_record_c18new_record_messageEPP20tls_record_message_c21tls_record_protocol_e @ 30 NONAME
	_ZN12tls_record_c18state_notificationEPK28abs_eap_state_notification_c @ 31 NONAME
	_ZN12tls_record_c19get_is_tunneled_tlsEv @ 32 NONAME
	_ZN12tls_record_c19message_hash_createEb20tls_handshake_type_eP19eap_variable_data_cb @ 33 NONAME
	_ZN12tls_record_c19message_hash_updateEb20tls_handshake_type_ePhm @ 34 NONAME
	_ZN12tls_record_c19process_tls_messageEv @ 35 NONAME
	_ZN12tls_record_c19process_tls_recordsEv @ 36 NONAME
	_ZN12tls_record_c19reset_block_ciphersEb @ 37 NONAME
	_ZN12tls_record_c19set_session_timeoutEm @ 38 NONAME
	_ZN12tls_record_c19u16_t_to_host_orderEPtP18abs_eap_am_tools_c @ 39 NONAME
	_ZN12tls_record_c20complete_query_realmEPK19eap_variable_data_c12eap_status_e @ 40 NONAME
	_ZN12tls_record_c20get_tls_session_typeEv @ 41 NONAME
	_ZN12tls_record_c20reset_stream_ciphersEb @ 42 NONAME
	_ZN12tls_record_c20set_tls_session_typeE18tls_session_type_e @ 43 NONAME
	_ZN12tls_record_c21completion_action_addE23tls_completion_action_e @ 44 NONAME
	_ZN12tls_record_c21generate_key_materialEv @ 45 NONAME
	_ZN12tls_record_c21reset_hmac_algorithmsEb @ 46 NONAME
	_ZN12tls_record_c21set_send_cipher_suiteE19tls_cipher_suites_e @ 47 NONAME
	_ZN12tls_record_c21set_tls_master_secretEPK19eap_variable_data_cS2_S2_ @ 48 NONAME
	_ZN12tls_record_c22check_sent_tls_messageEv @ 49 NONAME
	_ZN12tls_record_c22generate_master_secretEv @ 50 NONAME
	_ZN12tls_record_c22get_key_expansion_sizeEPmS0_S0_S0_S0_ @ 51 NONAME
	_ZN12tls_record_c22reassemble_tls_recordsEP20tls_record_message_cP19tls_record_header_c @ 52 NONAME
	_ZN12tls_record_c22restart_authenticationEPK19eap_am_network_id_cbbb @ 53 NONAME
	_ZN12tls_record_c22u16_t_to_network_orderEPtP18abs_eap_am_tools_c @ 54 NONAME
	_ZN12tls_record_c23apply_send_cipher_suiteEP19eap_variable_data_c @ 55 NONAME
	_ZN12tls_record_c23check_is_valid_eap_typeE19eap_expanded_type_c @ 56 NONAME
	_ZN12tls_record_c23completion_action_checkEv @ 57 NONAME
	_ZN12tls_record_c23packet_data_crypto_keysEPK19eap_am_network_id_cPK24eap_master_session_key_c @ 58 NONAME
	_ZN12tls_record_c23read_authority_identityEP19eap_variable_data_c @ 59 NONAME
	_ZN12tls_record_c23send_error_notificationE12eap_status_e @ 60 NONAME
	_ZN12tls_record_c24completion_action_clenupEv @ 61 NONAME
	_ZN12tls_record_c24get_extra_padding_lengthEhm @ 62 NONAME
	_ZN12tls_record_c24parse_tls_protocol_alertEP20tls_record_message_cP19eap_variable_data_c @ 63 NONAME
	_ZN12tls_record_c24set_receive_cipher_suiteE19tls_cipher_suites_e @ 64 NONAME
	_ZN12tls_record_c25create_tls_protocol_alertE23tls_alert_description_e17tls_alert_level_e12eap_status_e @ 65 NONAME
	_ZN12tls_record_c25empty_ack_packet_receivedEPK19eap_am_network_id_ch @ 66 NONAME
	_ZN12tls_record_c25generate_premaster_secretEv @ 67 NONAME
	_ZN12tls_record_c25set_selected_cipher_suiteE19tls_cipher_suites_e @ 68 NONAME
	_ZN12tls_record_c26allocate_handshake_messageEPP23tls_handshake_message_cP24eap_automatic_variable_cIS0_E20tls_handshake_type_e @ 69 NONAME
	_ZN12tls_record_c26analyse_tls_protocol_alertEPK20tls_record_message_c @ 70 NONAME
	_ZN12tls_record_c26apply_receive_cipher_suiteEP19eap_variable_data_c @ 71 NONAME
	_ZN12tls_record_c26message_hash_save_finishedEb @ 72 NONAME
	_ZN12tls_record_c27check_selected_cipher_suiteE19tls_cipher_suites_e @ 73 NONAME
	_ZN12tls_record_c27cipher_suite_initializationEb @ 74 NONAME
	_ZN12tls_record_c27create_tls_application_dataEP18eap_buf_chain_wr_cm @ 75 NONAME
	_ZN12tls_record_c27get_ttls_implicit_challengeEP19eap_variable_data_cm @ 76 NONAME
	_ZN12tls_record_c27indicate_messages_processedEv @ 77 NONAME
	_ZN12tls_record_c28complete_query_dh_parametersEPK19eap_variable_data_cS2_12eap_status_e @ 78 NONAME
	_ZN12tls_record_c28message_hash_create_finishedEbP19eap_variable_data_c @ 79 NONAME
	_ZN12tls_record_c28parse_tls_protocol_handshakeEP20tls_record_message_cP19eap_variable_data_c @ 80 NONAME
	_ZN12tls_record_c29apply_send_block_cipher_suiteEP19eap_variable_data_cP32abs_crypto_cbc_block_algorithm_cP27abs_crypto_hmac_algorithm_c @ 81 NONAME
	_ZN12tls_record_c29are_pending_queries_completedEv @ 82 NONAME
	_ZN12tls_record_c29indicate_state_to_lower_layerE16tls_peap_state_e @ 83 NONAME
	_ZN12tls_record_c29parse_handshake_type_finishedEP20tls_record_message_cP22tls_handshake_header_cm @ 84 NONAME
	_ZN12tls_record_c29start_tls_peap_authenticationEPK19eap_variable_data_c @ 85 NONAME
	_ZN12tls_record_c30analyse_tls_protocol_handshakeEP20tls_record_message_ch @ 86 NONAME
	_ZN12tls_record_c30apply_send_stream_cipher_suiteEP19eap_variable_data_cP29abs_crypto_stream_algorithm_cP27abs_crypto_hmac_algorithm_c @ 87 NONAME
	_ZN12tls_record_c30complete_sign_with_private_keyEPK19eap_variable_data_c12eap_status_e @ 88 NONAME
	_ZN12tls_record_c30create_handshake_type_finishedEv @ 89 NONAME
	_ZN12tls_record_c30get_eap_tls_master_session_keyEP19eap_variable_data_cS1_ @ 90 NONAME
	_ZN12tls_record_c31allocate_handshake_message_copyEPP23tls_handshake_message_cP24eap_automatic_variable_cIS0_EP22tls_handshake_header_c @ 91 NONAME
	_ZN12tls_record_c31analyse_handshake_type_finishedEPK23tls_handshake_message_ch @ 92 NONAME
	_ZN12tls_record_c31cipher_suite_initialization_cbcEPP32abs_crypto_cbc_block_algorithm_cP28abs_crypto_block_algorithm_cPK19eap_variable_data_cS7_b @ 93 NONAME
	_ZN12tls_record_c31complete_verify_with_public_keyE12eap_status_e @ 94 NONAME
	_ZN12tls_record_c32apply_receive_block_cipher_suiteEP19eap_variable_data_cP32abs_crypto_cbc_block_algorithm_cP27abs_crypto_hmac_algorithm_c @ 95 NONAME
	_ZN12tls_record_c32cipher_suite_initialization_hmacEP27abs_crypto_hmac_algorithm_cPK19eap_variable_data_c @ 96 NONAME
	_ZN12tls_record_c32complete_query_certificate_chainEPK11eap_array_cI19eap_variable_data_cE12eap_status_e @ 97 NONAME
	_ZN12tls_record_c32parse_handshake_type_certificateEP20tls_record_message_cP22tls_handshake_header_cm @ 98 NONAME
	_ZN12tls_record_c33apply_receive_stream_cipher_suiteEP19eap_variable_data_cP29abs_crypto_stream_algorithm_cP27abs_crypto_hmac_algorithm_c @ 99 NONAME
	_ZN12tls_record_c33check_selected_compression_methodE24tls_compression_method_e @ 100 NONAME
	_ZN12tls_record_c33complete_verify_certificate_chainE12eap_status_e @ 101 NONAME
	_ZN12tls_record_c33create_handshake_type_certificateEPK11eap_array_cI19eap_variable_data_cE @ 102 NONAME
	_ZN12tls_record_c33parse_handshake_type_client_helloEP20tls_record_message_cP22tls_handshake_header_cm @ 103 NONAME
	_ZN12tls_record_c33parse_handshake_type_server_helloEP20tls_record_message_cP22tls_handshake_header_cm @ 104 NONAME
	_ZN12tls_record_c34analyse_handshake_type_certificateEPK23tls_handshake_message_c @ 105 NONAME
	_ZN12tls_record_c34cipher_suite_initialization_streamEP29abs_crypto_stream_algorithm_cPK19eap_variable_data_cb @ 106 NONAME
	_ZN12tls_record_c34create_handshake_type_client_helloEv @ 107 NONAME
	_ZN12tls_record_c34create_handshake_type_server_helloEth @ 108 NONAME
	_ZN12tls_record_c34parse_handshake_type_hello_requestEP20tls_record_message_cP22tls_handshake_header_cm @ 109 NONAME
	_ZN12tls_record_c34start_peap_tunneled_authenticationEPK19eap_am_network_id_ch18tls_session_type_e @ 110 NONAME
	_ZN12tls_record_c35analyse_handshake_type_client_helloEPK23tls_handshake_message_c @ 111 NONAME
	_ZN12tls_record_c35analyse_handshake_type_server_helloEPK23tls_handshake_message_c @ 112 NONAME
	_ZN12tls_record_c35create_handshake_type_hello_requestEv @ 113 NONAME
	_ZN12tls_record_c35create_server_key_exchange_md5_hashEPK19eap_variable_data_cS2_S2_PS0_ @ 114 NONAME
	_ZN12tls_record_c35get_next_tls_handshake_message_typeEv @ 115 NONAME
	_ZN12tls_record_c35parse_tls_protocol_application_dataEP20tls_record_message_cP19eap_variable_data_c @ 116 NONAME
	_ZN12tls_record_c36analyse_handshake_type_hello_requestEPK23tls_handshake_message_c @ 117 NONAME
	_ZN12tls_record_c36cipher_suite_initialization_hmac_md5Eb @ 118 NONAME
	_ZN12tls_record_c36complete_rsa_encrypt_with_public_keyEPK19eap_variable_data_c12eap_status_e @ 119 NONAME
	_ZN12tls_record_c36create_server_key_exchange_sha1_hashEPK19eap_variable_data_cS2_S2_PS0_ @ 120 NONAME
	_ZN12tls_record_c36get_next_tls_record_message_protocolEv @ 121 NONAME
	_ZN12tls_record_c36message_hash_save_certificate_verifyEv @ 122 NONAME
	_ZN12tls_record_c36query_ttls_pap_username_and_passwordEPK19eap_variable_data_c @ 123 NONAME
	_ZN12tls_record_c37analyse_tls_protocol_application_dataEPK20tls_record_message_ch @ 124 NONAME
	_ZN12tls_record_c37cipher_suite_initialization_hmac_sha1Eb @ 125 NONAME
	_ZN12tls_record_c37complete_rsa_decrypt_with_private_keyEPK19eap_variable_data_c12eap_status_e @ 126 NONAME
	_ZN12tls_record_c37parse_tls_protocol_change_cipher_specEP20tls_record_message_cP19eap_variable_data_c @ 127 NONAME
	_ZN12tls_record_c37verify_ttls_pap_username_and_passwordEPK19eap_variable_data_cS2_ @ 128 NONAME
	_ZN12tls_record_c38parse_handshake_type_server_hello_doneEP20tls_record_message_cP22tls_handshake_header_cm @ 129 NONAME
	_ZN12tls_record_c39analyse_tls_protocol_change_cipher_specEPK20tls_record_message_c @ 130 NONAME
	_ZN12tls_record_c39create_handshake_type_server_hello_doneEv @ 131 NONAME
	_ZN12tls_record_c39parse_handshake_type_certificate_verifyEP20tls_record_message_cP22tls_handshake_header_cm @ 132 NONAME
	_ZN12tls_record_c39verify_signature_of_server_key_exchangeEPK19eap_variable_data_c @ 133 NONAME
	_ZN12tls_record_c40analyse_handshake_type_server_hello_doneEPK23tls_handshake_message_c @ 134 NONAME
	_ZN12tls_record_c40create_handshake_type_certificate_verifyEv @ 135 NONAME
	_ZN12tls_record_c40parse_handshake_type_certificate_requestEP20tls_record_message_cP22tls_handshake_header_cm @ 136 NONAME
	_ZN12tls_record_c40parse_handshake_type_client_key_exchangeEP20tls_record_message_cP22tls_handshake_header_cm @ 137 NONAME
	_ZN12tls_record_c40parse_handshake_type_server_key_exchangeEP20tls_record_message_cP22tls_handshake_header_cm @ 138 NONAME
	_ZN12tls_record_c40set_tls_identity_privacy_handshake_stateE38tls_identity_privacy_handshake_state_e @ 139 NONAME
	_ZN12tls_record_c41analyse_handshake_type_certificate_verifyEPK23tls_handshake_message_c @ 140 NONAME
	_ZN12tls_record_c41create_handshake_type_certificate_requestEPK11eap_array_cIhEPKS0_I19eap_variable_data_cE @ 141 NONAME
	_ZN12tls_record_c41create_handshake_type_client_key_exchangeEv @ 142 NONAME
	_ZN12tls_record_c41create_handshake_type_server_key_exchangeEv @ 143 NONAME
	_ZN12tls_record_c41plain_eap_success_failure_packet_receivedEPK19eap_am_network_id_c16eap_code_value_eh @ 144 NONAME
	_ZN12tls_record_c42analyse_handshake_type_certificate_requestEPK23tls_handshake_message_c @ 145 NONAME
	_ZN12tls_record_c42analyse_handshake_type_client_key_exchangeEPK23tls_handshake_message_c @ 146 NONAME
	_ZN12tls_record_c42analyse_handshake_type_server_key_exchangeEPK23tls_handshake_message_c @ 147 NONAME
	_ZN12tls_record_c45complete_query_ttls_pap_username_and_passwordEPK19eap_variable_data_cS2_12eap_status_e @ 148 NONAME
	_ZN12tls_record_c46complete_verify_ttls_pap_username_and_passwordE12eap_status_ePK19eap_variable_data_c @ 149 NONAME
	_ZN12tls_record_c47eap_status_return_and_create_tls_protocol_alertE12eap_status_e @ 150 NONAME
	_ZN12tls_record_c48complete_query_certificate_authorities_and_typesEPK11eap_array_cI19eap_variable_data_cEPKS0_IhE12eap_status_e @ 151 NONAME
	_ZN12tls_record_c49complete_create_handshake_type_certificate_verifyEv @ 152 NONAME
	_ZN12tls_record_c49complete_query_cipher_suites_and_previous_sessionE18tls_session_type_ePK11eap_array_cItEPKS1_IhEPK19eap_variable_data_cSA_19tls_cipher_suites_e12eap_status_e @ 153 NONAME
	_ZN12tls_record_c49complete_select_cipher_suite_and_check_session_idE18tls_session_type_etPK19eap_variable_data_cS3_12eap_status_e @ 154 NONAME
	_ZN12tls_record_c49create_change_cipher_spec_type_change_cipher_specEv @ 155 NONAME
	_ZN12tls_record_c50complete_create_handshake_type_client_key_exchangeEv @ 156 NONAME
	_ZN12tls_record_c50complete_create_handshake_type_server_key_exchangeEv @ 157 NONAME
	_ZN12tls_record_c5resetEv @ 158 NONAME
	_ZN12tls_record_c8shutdownEv @ 159 NONAME
	_ZN12tls_record_c9configureEv @ 160 NONAME
	_ZN12tls_record_c9set_stateE16tls_peap_state_e @ 161 NONAME
	_ZN12tls_record_c9set_timerEP20abs_eap_base_timer_cmPvm @ 162 NONAME
	_ZN12tls_record_cC1EP18abs_eap_am_tools_cP17tls_am_services_cbP22tls_base_application_cbb19eap_expanded_type_cPK19eap_am_network_id_c @ 163 NONAME
	_ZN12tls_record_cC2EP18abs_eap_am_tools_cP17tls_am_services_cbP22tls_base_application_cbb19eap_expanded_type_cPK19eap_am_network_id_c @ 164 NONAME
	_ZN12tls_record_cD0Ev @ 165 NONAME
	_ZN12tls_record_cD1Ev @ 166 NONAME
	_ZN12tls_record_cD2Ev @ 167 NONAME
	_ZN13tls_message_c16add_message_dataEP19eap_variable_data_cPb @ 168 NONAME
	_ZN13tls_message_c18add_record_messageEP20tls_record_message_cbb @ 169 NONAME
	_ZN13tls_message_c18save_analyse_indexEm @ 170 NONAME
	_ZN13tls_message_c20fragment_tls_recordsEP20tls_record_message_cP11eap_array_cIS0_E @ 171 NONAME
	_ZN13tls_message_c20get_tls_message_dataEv @ 172 NONAME
	_ZN13tls_message_c20set_tls_message_dataEP19eap_variable_data_ch @ 173 NONAME
	_ZN13tls_message_c21remove_record_messageEm @ 174 NONAME
	_ZN13tls_message_c27get_received_eap_identifierEv @ 175 NONAME
	_ZN13tls_message_c5resetEv @ 176 NONAME
	_ZN13tls_message_cC1EP18abs_eap_am_tools_cP22abs_tls_message_hash_cP27abs_tls_apply_cipher_spec_cP28abs_tls_change_cipher_spec_cb @ 177 NONAME
	_ZN13tls_message_cC2EP18abs_eap_am_tools_cP22abs_tls_message_hash_cP27abs_tls_apply_cipher_spec_cP28abs_tls_change_cipher_spec_cb @ 178 NONAME
	_ZN13tls_message_cD0Ev @ 179 NONAME
	_ZN13tls_message_cD1Ev @ 180 NONAME
	_ZN13tls_message_cD2Ev @ 181 NONAME
	_ZN16dummy_eap_core_c11get_partnerEv @ 182 NONAME
	_ZN16dummy_eap_core_c11load_moduleE19eap_expanded_type_cS0_P19abs_eap_base_type_cPP15eap_base_type_cbPK19eap_am_network_id_c @ 183 NONAME
	_ZN16dummy_eap_core_c11packet_sendEPK19eap_am_network_id_cP18eap_buf_chain_wr_cmmm @ 184 NONAME
	_ZN16dummy_eap_core_c11set_partnerEP14abs_eap_core_c @ 185 NONAME
	_ZN16dummy_eap_core_c12add_rogue_apER11eap_array_cI20eap_rogue_ap_entry_cE @ 186 NONAME
	_ZN16dummy_eap_core_c12cancel_timerEP20abs_eap_base_timer_cm @ 187 NONAME
	_ZN16dummy_eap_core_c12get_is_validEv @ 188 NONAME
	_ZN16dummy_eap_core_c12set_is_validEv @ 189 NONAME
	_ZN16dummy_eap_core_c13resend_packetEPK19eap_am_network_id_cP18eap_buf_chain_wr_cmmmm @ 190 NONAME
	_ZN16dummy_eap_core_c13timer_expiredEmPv @ 191 NONAME
	_ZN16dummy_eap_core_c13unload_moduleE19eap_expanded_type_c @ 192 NONAME
	_ZN16dummy_eap_core_c14packet_processEPK19eap_am_network_id_cP25eap_general_header_base_cm @ 193 NONAME
	_ZN16dummy_eap_core_c14read_configureEPK25eap_configuration_field_cP19eap_variable_data_c @ 194 NONAME
	_ZN16dummy_eap_core_c15eap_acknowledgeEPK19eap_am_network_id_c @ 195 NONAME
	_ZN16dummy_eap_core_c15reset_operationEP15eap_base_type_cP18abs_eap_am_tools_c @ 196 NONAME
	_ZN16dummy_eap_core_c15write_configureEPK25eap_configuration_field_cP19eap_variable_data_c @ 197 NONAME
	_ZN16dummy_eap_core_c16send_eap_failureEPK19eap_am_network_id_ch @ 198 NONAME
	_ZN16dummy_eap_core_c16send_eap_successEPK19eap_am_network_id_ch @ 199 NONAME
	_ZN16dummy_eap_core_c16trace_eap_packetEPKcPK15eap_header_wr_c @ 200 NONAME
	_ZN16dummy_eap_core_c17get_eap_type_listEP11eap_array_cI19eap_expanded_type_cE @ 201 NONAME
	_ZN16dummy_eap_core_c17get_header_offsetEPmS0_ @ 202 NONAME
	_ZN16dummy_eap_core_c17timer_delete_dataEmPv @ 203 NONAME
	_ZN16dummy_eap_core_c18get_marked_removedEv @ 204 NONAME
	_ZN16dummy_eap_core_c18set_marked_removedEv @ 205 NONAME
	_ZN16dummy_eap_core_c18shutdown_operationEP15eap_base_type_cP18abs_eap_am_tools_c @ 206 NONAME
	_ZN16dummy_eap_core_c18state_notificationEPK28abs_eap_state_notification_c @ 207 NONAME
	_ZN16dummy_eap_core_c19init_retransmissionEPK19eap_am_network_id_cP18eap_buf_chain_wr_cmm16eap_code_value_eh19eap_expanded_type_c @ 208 NONAME
	_ZN16dummy_eap_core_c19packet_process_typeE19eap_expanded_type_cPK19eap_am_network_id_cP25eap_general_header_base_cm @ 209 NONAME
	_ZN16dummy_eap_core_c19set_session_timeoutEm @ 210 NONAME
	_ZN16dummy_eap_core_c20ignore_notificationsEv @ 211 NONAME
	_ZN16dummy_eap_core_c20unset_marked_removedEv @ 212 NONAME
	_ZN16dummy_eap_core_c21cancel_retransmissionEv @ 213 NONAME
	_ZN16dummy_eap_core_c21restart_with_new_typeE19eap_expanded_type_cPK19eap_am_network_id_ch @ 214 NONAME
	_ZN16dummy_eap_core_c21send_eap_nak_responseEPK19eap_am_network_id_chPK11eap_array_cI19eap_expanded_type_cE @ 215 NONAME
	_ZN16dummy_eap_core_c22cancel_session_timeoutEv @ 216 NONAME
	_ZN16dummy_eap_core_c22get_saved_eap_identityEP19eap_variable_data_c @ 217 NONAME
	_ZN16dummy_eap_core_c22restart_authenticationEPK19eap_am_network_id_cb @ 218 NONAME
	_ZN16dummy_eap_core_c23check_is_valid_eap_typeE19eap_expanded_type_c @ 219 NONAME
	_ZN16dummy_eap_core_c23packet_data_crypto_keysEPK19eap_am_network_id_cPK24eap_master_session_key_c @ 220 NONAME
	_ZN16dummy_eap_core_c23set_authentication_roleEb @ 221 NONAME
	_ZN16dummy_eap_core_c23set_eap_failure_timeoutEv @ 222 NONAME
	_ZN16dummy_eap_core_c25client_proposes_eap_typesEPK19eap_am_network_id_ch @ 223 NONAME
	_ZN16dummy_eap_core_c25send_eap_identity_requestEPK19eap_am_network_id_c @ 224 NONAME
	_ZN16dummy_eap_core_c26cancel_eap_failure_timeoutEv @ 225 NONAME
	_ZN16dummy_eap_core_c26initialize_session_timeoutEm @ 226 NONAME
	_ZN16dummy_eap_core_c26send_eap_identity_responseEPK19eap_am_network_id_cPK19eap_variable_data_ch @ 227 NONAME
	_ZN16dummy_eap_core_c27complete_eap_identity_queryEPK19eap_am_network_id_cPK19eap_variable_data_ch @ 228 NONAME
	_ZN16dummy_eap_core_c27handle_eap_identity_requestE19eap_expanded_type_chPK19eap_am_network_id_c @ 229 NONAME
	_ZN16dummy_eap_core_c28create_eap_identity_responseEP18eap_buf_chain_wr_cPK19eap_variable_data_ch @ 230 NONAME
	_ZN16dummy_eap_core_c28handle_eap_identity_responseEP15eap_base_type_c19eap_expanded_type_cPK19eap_am_network_id_cP15eap_header_wr_cm @ 231 NONAME
	_ZN16dummy_eap_core_c30send_eap_notification_responseEPK19eap_am_network_id_ch @ 232 NONAME
	_ZN16dummy_eap_core_c31object_decrease_reference_countEv @ 233 NONAME
	_ZN16dummy_eap_core_c31object_increase_reference_countEv @ 234 NONAME
	_ZN16dummy_eap_core_c36asynchronous_init_remove_eap_sessionEv @ 235 NONAME
	_ZN16dummy_eap_core_c43cancel_asynchronous_init_remove_eap_sessionEv @ 236 NONAME
	_ZN16dummy_eap_core_c47initialize_asynchronous_init_remove_eap_sessionEm @ 237 NONAME
	_ZN16dummy_eap_core_c5resetEv @ 238 NONAME
	_ZN16dummy_eap_core_c8shutdownEv @ 239 NONAME
	_ZN16dummy_eap_core_c9configureEv @ 240 NONAME
	_ZN16dummy_eap_core_c9load_typeE19eap_expanded_type_cS0_PK19eap_am_network_id_c @ 241 NONAME
	_ZN16dummy_eap_core_c9set_timerEP20abs_eap_base_timer_cmPvm @ 242 NONAME
	_ZN16dummy_eap_core_cC1EP18abs_eap_am_tools_cP14abs_eap_core_cbPK19eap_am_network_id_cb @ 243 NONAME
	_ZN16dummy_eap_core_cC2EP18abs_eap_am_tools_cP14abs_eap_core_cbPK19eap_am_network_id_cb @ 244 NONAME
	_ZN16dummy_eap_core_cD0Ev @ 245 NONAME
	_ZN16dummy_eap_core_cD1Ev @ 246 NONAME
	_ZN16dummy_eap_core_cD2Ev @ 247 NONAME
	_ZN16tls_completion_c12get_is_validEv @ 248 NONAME
	_ZN16tls_completion_c12set_is_validEv @ 249 NONAME
	_ZN16tls_completion_c21set_completion_actionE23tls_completion_action_e @ 250 NONAME
	_ZN16tls_completion_cC1EP18abs_eap_am_tools_c23tls_completion_action_e @ 251 NONAME
	_ZN16tls_completion_cC2EP18abs_eap_am_tools_c23tls_completion_action_e @ 252 NONAME
	_ZN16tls_completion_cD0Ev @ 253 NONAME
	_ZN16tls_completion_cD1Ev @ 254 NONAME
	_ZN16tls_completion_cD2Ev @ 255 NONAME
	_ZN17mschapv2_header_c10set_opcodeE17mschapv2_opcode_e @ 256 NONAME
	_ZN17mschapv2_header_c13set_ms_lengthEt @ 257 NONAME
	_ZN17mschapv2_header_c15set_mschapv2_idEh @ 258 NONAME
	_ZN17mschapv2_header_cC1EP18abs_eap_am_tools_cPvm @ 259 NONAME
	_ZN17mschapv2_header_cC2EP18abs_eap_am_tools_cPvm @ 260 NONAME
	_ZN17mschapv2_header_cD0Ev @ 261 NONAME
	_ZN17mschapv2_header_cD1Ev @ 262 NONAME
	_ZN17mschapv2_header_cD2Ev @ 263 NONAME
	_ZN17tls_base_record_c16get_type_partnerEv @ 264 NONAME
	_ZN17tls_base_record_c16set_type_partnerEP21abs_tls_base_record_c @ 265 NONAME
	_ZN17tls_base_record_cC2EP18abs_eap_am_tools_c @ 266 NONAME
	_ZN17tls_base_record_cD0Ev @ 267 NONAME
	_ZN17tls_base_record_cD1Ev @ 268 NONAME
	_ZN17tls_base_record_cD2Ev @ 269 NONAME
	_ZN19eap_type_tls_peap_c11load_moduleE19eap_expanded_type_cS0_P19abs_eap_base_type_cPP15eap_base_type_cbPK19eap_am_network_id_c @ 270 NONAME
	_ZN19eap_type_tls_peap_c11packet_sendEPK19eap_am_network_id_cP18eap_buf_chain_wr_cmmm @ 271 NONAME
	_ZN19eap_type_tls_peap_c12add_rogue_apER11eap_array_cI20eap_rogue_ap_entry_cE @ 272 NONAME
	_ZN19eap_type_tls_peap_c12cancel_timerEP20abs_eap_base_timer_cm @ 273 NONAME
	_ZN19eap_type_tls_peap_c12generate_naiEP19eap_variable_data_cPKS0_S3_ @ 274 NONAME
	_ZN19eap_type_tls_peap_c12get_is_validEv @ 275 NONAME
	_ZN19eap_type_tls_peap_c12packet_traceEPKcPK19eap_am_network_id_cP15eap_header_wr_cm @ 276 NONAME
	_ZN19eap_type_tls_peap_c12set_is_validEv @ 277 NONAME
	_ZN19eap_type_tls_peap_c13get_is_clientEv @ 278 NONAME
	_ZN19eap_type_tls_peap_c13get_nai_realmEv @ 279 NONAME
	_ZN19eap_type_tls_peap_c13timer_expiredEmPv @ 280 NONAME
	_ZN19eap_type_tls_peap_c13unload_moduleE19eap_expanded_type_c @ 281 NONAME
	_ZN19eap_type_tls_peap_c14packet_processEPK19eap_am_network_id_cP15eap_header_wr_cm @ 282 NONAME
	_ZN19eap_type_tls_peap_c14parse_identityEPKhm @ 283 NONAME
	_ZN19eap_type_tls_peap_c14read_configureEPK25eap_configuration_field_cP19eap_variable_data_c @ 284 NONAME
	_ZN19eap_type_tls_peap_c15eap_acknowledgeEPK19eap_am_network_id_c @ 285 NONAME
	_ZN19eap_type_tls_peap_c15write_configureEPK25eap_configuration_field_cP19eap_variable_data_c @ 286 NONAME
	_ZN19eap_type_tls_peap_c16get_state_stringE34eap_type_tls_peap_state_variable_e @ 287 NONAME
	_ZN19eap_type_tls_peap_c17get_eap_type_listEP11eap_array_cI19eap_expanded_type_cE @ 288 NONAME
	_ZN19eap_type_tls_peap_c17get_header_offsetEPmS0_ @ 289 NONAME
	_ZN19eap_type_tls_peap_c17peap_tunnel_readyEv @ 290 NONAME
	_ZN19eap_type_tls_peap_c17timer_delete_dataEmPv @ 291 NONAME
	_ZN19eap_type_tls_peap_c18check_version_listEtPh @ 292 NONAME
	_ZN19eap_type_tls_peap_c18query_eap_identityEbP19eap_variable_data_cPK19eap_am_network_id_ch @ 293 NONAME
	_ZN19eap_type_tls_peap_c18save_current_stateEv @ 294 NONAME
	_ZN19eap_type_tls_peap_c18send_empty_eap_ackEv @ 295 NONAME
	_ZN19eap_type_tls_peap_c18state_notificationEPK28abs_eap_state_notification_c @ 296 NONAME
	_ZN19eap_type_tls_peap_c19get_send_network_idEv @ 297 NONAME
	_ZN19eap_type_tls_peap_c19select_peap_versionEm @ 298 NONAME
	_ZN19eap_type_tls_peap_c19set_session_timeoutEm @ 299 NONAME
	_ZN19eap_type_tls_peap_c19tls_message_processEPK19eap_am_network_id_cP21eap_tls_peap_header_cm @ 300 NONAME
	_ZN19eap_type_tls_peap_c20get_tls_session_typeEv @ 301 NONAME
	_ZN19eap_type_tls_peap_c20set_reassembly_stateE36eap_type_tls_peap_reassembly_state_e @ 302 NONAME
	_ZN19eap_type_tls_peap_c20set_tls_session_typeE18tls_session_type_e @ 303 NONAME
	_ZN19eap_type_tls_peap_c20tls_peap_packet_sendEP18eap_buf_chain_wr_cmmmb @ 304 NONAME
	_ZN19eap_type_tls_peap_c21parse_tls_peap_packetEP21eap_tls_peap_header_cm @ 305 NONAME
	_ZN19eap_type_tls_peap_c21set_tls_master_secretEPK19eap_variable_data_c @ 306 NONAME
	_ZN19eap_type_tls_peap_c21update_buffer_indexesEmmPmS0_ @ 307 NONAME
	_ZN19eap_type_tls_peap_c22handle_tls_peap_packetEPK19eap_am_network_id_cP21eap_tls_peap_header_cm @ 308 NONAME
	_ZN19eap_type_tls_peap_c22parse_tls_peap_payloadEPm @ 309 NONAME
	_ZN19eap_type_tls_peap_c22restart_authenticationEPK19eap_am_network_id_cbbb @ 310 NONAME
	_ZN19eap_type_tls_peap_c22update_payload_indexesEmmmPmS0_S0_S0_ @ 311 NONAME
	_ZN19eap_type_tls_peap_c23analyse_tls_peap_packetEPK19eap_am_network_id_cP21eap_tls_peap_header_cm @ 312 NONAME
	_ZN19eap_type_tls_peap_c23check_is_valid_eap_typeE19eap_expanded_type_c @ 313 NONAME
	_ZN19eap_type_tls_peap_c23packet_data_crypto_keysEPK19eap_am_network_id_cPK24eap_master_session_key_c @ 314 NONAME
	_ZN19eap_type_tls_peap_c23send_final_notificationEv @ 315 NONAME
	_ZN19eap_type_tls_peap_c23set_last_eap_identifierEh @ 316 NONAME
	_ZN19eap_type_tls_peap_c23tls_peap_packet_processEPK19eap_am_network_id_cP21eap_tls_peap_header_cm @ 317 NONAME
	_ZN19eap_type_tls_peap_c25handle_eap_identity_queryEPK19eap_variable_data_cPK19eap_am_network_id_chbS2_bS2_ @ 318 NONAME
	_ZN19eap_type_tls_peap_c26create_random_eap_identityEP19eap_variable_data_c @ 319 NONAME
	_ZN19eap_type_tls_peap_c26eap_tls_peap_fragment_sendEv @ 320 NONAME
	_ZN19eap_type_tls_peap_c26set_initial_eap_identifierEPK19eap_am_network_id_ch @ 321 NONAME
	_ZN19eap_type_tls_peap_c27complete_eap_identity_queryEPK19eap_variable_data_cPK19eap_am_network_id_ch12eap_status_ebS2_bS2_ @ 322 NONAME
	_ZN19eap_type_tls_peap_c27get_reassembly_state_stringE36eap_type_tls_peap_reassembly_state_e @ 323 NONAME
	_ZN19eap_type_tls_peap_c27send_tls_peap_start_messageEhPK19eap_variable_data_c @ 324 NONAME
	_ZN19eap_type_tls_peap_c28create_eap_fast_mac_identityEPK19eap_am_network_id_cP19eap_variable_data_c @ 325 NONAME
	_ZN19eap_type_tls_peap_c28restore_saved_previous_stateEv @ 326 NONAME
	_ZN19eap_type_tls_peap_c28set_failure_message_receivedEv @ 327 NONAME
	_ZN19eap_type_tls_peap_c29save_current_reassembly_stateEv @ 328 NONAME
	_ZN19eap_type_tls_peap_c29start_tls_peap_authenticationEPK19eap_variable_data_c @ 329 NONAME
	_ZN19eap_type_tls_peap_c30restore_saved_reassembly_stateEv @ 330 NONAME
	_ZN19eap_type_tls_peap_c30unset_failure_message_receivedEv @ 331 NONAME
	_ZN19eap_type_tls_peap_c32finish_successful_authenticationEbbb @ 332 NONAME
	_ZN19eap_type_tls_peap_c32handle_identity_response_messageEP15eap_header_rd_cm @ 333 NONAME
	_ZN19eap_type_tls_peap_c36eap_identity_response_packet_processEPK19eap_am_network_id_cP15eap_header_wr_cm @ 334 NONAME
	_ZN19eap_type_tls_peap_c5resetEv @ 335 NONAME
	_ZN19eap_type_tls_peap_c7get_NAIEv @ 336 NONAME
	_ZN19eap_type_tls_peap_c8shutdownEv @ 337 NONAME
	_ZN19eap_type_tls_peap_c9check_NAIEPKhmS1_ @ 338 NONAME
	_ZN19eap_type_tls_peap_c9configureEv @ 339 NONAME
	_ZN19eap_type_tls_peap_c9set_stateE34eap_type_tls_peap_state_variable_e @ 340 NONAME
	_ZN19eap_type_tls_peap_c9set_timerEP20abs_eap_base_timer_cmPvm @ 341 NONAME
	_ZN19eap_type_tls_peap_cC1EP18abs_eap_am_tools_cP19abs_eap_base_type_cP22eap_am_type_tls_peap_cbP17tls_base_record_cbb19eap_expanded_type_cPK19eap_am_network_id_c @ 342 NONAME
	_ZN19eap_type_tls_peap_cC2EP18abs_eap_am_tools_cP19abs_eap_base_type_cP22eap_am_type_tls_peap_cbP17tls_base_record_cbb19eap_expanded_type_cPK19eap_am_network_id_c @ 343 NONAME
	_ZN19eap_type_tls_peap_cD0Ev @ 344 NONAME
	_ZN19eap_type_tls_peap_cD1Ev @ 345 NONAME
	_ZN19eap_type_tls_peap_cD2Ev @ 346 NONAME
	_ZN19mschapv2_response_c13set_constantsEv @ 347 NONAME
	_ZN19mschapv2_response_c15set_nt_responseEPKh @ 348 NONAME
	_ZN19mschapv2_response_c18set_peer_challengeEPKh @ 349 NONAME
	_ZN19mschapv2_response_c23get_header_minimum_sizeEv @ 350 NONAME
	_ZN19mschapv2_response_c8set_nameEPKh @ 351 NONAME
	_ZN19mschapv2_response_cC1EP18abs_eap_am_tools_cPvm @ 352 NONAME
	_ZN19mschapv2_response_cC2EP18abs_eap_am_tools_cPvm @ 353 NONAME
	_ZN19mschapv2_response_cD0Ev @ 354 NONAME
	_ZN19mschapv2_response_cD1Ev @ 355 NONAME
	_ZN19mschapv2_response_cD2Ev @ 356 NONAME
	_ZN19peap_tlv_payloads_c11get_nak_tlvEv @ 357 NONAME
	_ZN19peap_tlv_payloads_c14check_payloadsENS_25peap_tlv_payload_status_eES0_S0_S0_S0_ @ 358 NONAME
	_ZN19peap_tlv_payloads_c14get_result_tlvEv @ 359 NONAME
	_ZN19peap_tlv_payloads_c17check_one_payloadENS_25peap_tlv_payload_status_eEPK24peap_tlv_variable_data_c @ 360 NONAME
	_ZN19peap_tlv_payloads_c19get_eap_payload_tlvEv @ 361 NONAME
	_ZN19peap_tlv_payloads_c22get_crypto_binding_tlvEv @ 362 NONAME
	_ZN19peap_tlv_payloads_c27get_intermediate_result_tlvEv @ 363 NONAME
	_ZN19peap_tlv_payloads_c5resetEv @ 364 NONAME
	_ZN19peap_tlv_payloads_cC1EP18abs_eap_am_tools_c @ 365 NONAME
	_ZN19peap_tlv_payloads_cC2EP18abs_eap_am_tools_c @ 366 NONAME
	_ZN19peap_tlv_payloads_cD0Ev @ 367 NONAME
	_ZN19peap_tlv_payloads_cD1Ev @ 368 NONAME
	_ZN19peap_tlv_payloads_cD2Ev @ 369 NONAME
	_ZN19tls_alert_message_c12get_is_validEv @ 370 NONAME
	_ZN19tls_alert_message_c12set_is_validEv @ 371 NONAME
	_ZN19tls_alert_message_c15set_alert_levelE17tls_alert_level_e @ 372 NONAME
	_ZN19tls_alert_message_c16add_message_dataEP19eap_variable_data_c @ 373 NONAME
	_ZN19tls_alert_message_c19create_message_dataEv @ 374 NONAME
	_ZN19tls_alert_message_c21set_alert_descriptionE23tls_alert_description_e @ 375 NONAME
	_ZN19tls_alert_message_cC1EP18abs_eap_am_tools_cb @ 376 NONAME
	_ZN19tls_alert_message_cC2EP18abs_eap_am_tools_cb @ 377 NONAME
	_ZN19tls_alert_message_cD0Ev @ 378 NONAME
	_ZN19tls_alert_message_cD1Ev @ 379 NONAME
	_ZN19tls_alert_message_cD2Ev @ 380 NONAME
	_ZN20mschapv2_challenge_c13set_challengeEPKh @ 381 NONAME
	_ZN20mschapv2_challenge_c14set_value_sizeEv @ 382 NONAME
	_ZN20mschapv2_challenge_c23get_header_minimum_sizeEv @ 383 NONAME
	_ZN20mschapv2_challenge_c8set_nameEPKh @ 384 NONAME
	_ZN20mschapv2_challenge_cC1EP18abs_eap_am_tools_cPvm @ 385 NONAME
	_ZN20mschapv2_challenge_cC2EP18abs_eap_am_tools_cPvm @ 386 NONAME
	_ZN20mschapv2_challenge_cD0Ev @ 387 NONAME
	_ZN20mschapv2_challenge_cD1Ev @ 388 NONAME
	_ZN20mschapv2_challenge_cD2Ev @ 389 NONAME
	_ZN20tls_record_message_c11set_versionE13tls_version_e @ 390 NONAME
	_ZN20tls_record_message_c12get_is_validEv @ 391 NONAME
	_ZN20tls_record_message_c12set_is_validEv @ 392 NONAME
	_ZN20tls_record_message_c12set_protocolE21tls_record_protocol_e @ 393 NONAME
	_ZN20tls_record_message_c15add_data_lengthEm @ 394 NONAME
	_ZN20tls_record_message_c16add_message_dataEv @ 395 NONAME
	_ZN20tls_record_message_c17add_alert_messageEP19tls_alert_message_cb @ 396 NONAME
	_ZN20tls_record_message_c17set_parsed_recordEv @ 397 NONAME
	_ZN20tls_record_message_c18save_analyse_indexEm @ 398 NONAME
	_ZN20tls_record_message_c21add_handshake_messageEP23tls_handshake_message_cb @ 399 NONAME
	_ZN20tls_record_message_c22set_record_header_copyEPK19tls_record_header_c @ 400 NONAME
	_ZN20tls_record_message_c23get_record_message_dataEv @ 401 NONAME
	_ZN20tls_record_message_c23set_record_message_dataEPvm @ 402 NONAME
	_ZN20tls_record_message_c24set_cipher_suite_appliedEv @ 403 NONAME
	_ZN20tls_record_message_c28add_application_data_messageEP30tls_application_data_message_cb @ 404 NONAME
	_ZN20tls_record_message_c30add_change_cipher_spec_messageEP32tls_change_cipher_spec_message_cb @ 405 NONAME
	_ZN20tls_record_message_c33set_tls_record_header_is_includedEb @ 406 NONAME
	_ZN20tls_record_message_cC1EP18abs_eap_am_tools_cP22abs_tls_message_hash_cb @ 407 NONAME
	_ZN20tls_record_message_cC2EP18abs_eap_am_tools_cP22abs_tls_message_hash_cb @ 408 NONAME
	_ZN20tls_record_message_cD0Ev @ 409 NONAME
	_ZN20tls_record_message_cD1Ev @ 410 NONAME
	_ZN20tls_record_message_cD2Ev @ 411 NONAME
	_ZN21eap_tls_peap_header_c12reset_headerEP18abs_eap_am_tools_c19eap_expanded_type_cm14peap_version_eb @ 412 NONAME
	_ZN21eap_tls_peap_header_c12set_eap_codeE16eap_code_value_e @ 413 NONAME
	_ZN21eap_tls_peap_header_c12set_eap_typeE19eap_expanded_type_cb @ 414 NONAME
	_ZN21eap_tls_peap_header_c14set_eap_lengthEtb @ 415 NONAME
	_ZN21eap_tls_peap_header_c14set_flag_startEb @ 416 NONAME
	_ZN21eap_tls_peap_header_c15set_data_lengthEmb @ 417 NONAME
	_ZN21eap_tls_peap_header_c16set_flag_versionEh @ 418 NONAME
	_ZN21eap_tls_peap_header_c17set_flag_reservedEh @ 419 NONAME
	_ZN21eap_tls_peap_header_c18set_eap_identifierEh @ 420 NONAME
	_ZN21eap_tls_peap_header_c22set_tls_message_lengthEm @ 421 NONAME
	_ZN21eap_tls_peap_header_c23set_flag_more_fragmentsEb @ 422 NONAME
	_ZN21eap_tls_peap_header_c25get_tls_max_header_lengthEv @ 423 NONAME
	_ZN21eap_tls_peap_header_c28set_flag_tls_length_includedEb @ 424 NONAME
	_ZN21eap_tls_peap_header_cC1EP18abs_eap_am_tools_cPhm @ 425 NONAME
	_ZN21eap_tls_peap_header_cC2EP18abs_eap_am_tools_cPhm @ 426 NONAME
	_ZN21eap_tls_peap_header_cD0Ev @ 427 NONAME
	_ZN21eap_tls_peap_header_cD1Ev @ 428 NONAME
	_ZN21eap_tls_peap_header_cD2Ev @ 429 NONAME
	_ZN22eap_tls_trace_string_c16get_state_stringE16tls_peap_state_e @ 430 NONAME
	_ZN22eap_tls_trace_string_c21get_ttls_state_stringE33eap_ttls_tunneled_message_state_e @ 431 NONAME
	_ZN22eap_tls_trace_string_c22get_alert_level_stringE17tls_alert_level_e @ 432 NONAME
	_ZN22eap_tls_trace_string_c23get_cipher_suite_stringE19tls_cipher_suites_e @ 433 NONAME
	_ZN22eap_tls_trace_string_c23get_peap_version_stringE14peap_version_e @ 434 NONAME
	_ZN22eap_tls_trace_string_c27get_certificate_type_stringE22tls_certificate_type_e @ 435 NONAME
	_ZN22eap_tls_trace_string_c27get_tls_session_type_stringE18tls_session_type_e @ 436 NONAME
	_ZN22eap_tls_trace_string_c28get_alert_description_stringE23tls_alert_description_e @ 437 NONAME
	_ZN22eap_tls_trace_string_c29get_compression_method_stringE24tls_compression_method_e @ 438 NONAME
	_ZN22eap_tls_trace_string_c47get_tls_identity_privacy_handshake_state_stringE38tls_identity_privacy_handshake_state_e @ 439 NONAME
	_ZN22eap_tls_trace_string_cC1Ev @ 440 NONAME
	_ZN22eap_tls_trace_string_cC2Ev @ 441 NONAME
	_ZN22eap_tls_trace_string_cD0Ev @ 442 NONAME
	_ZN22eap_tls_trace_string_cD1Ev @ 443 NONAME
	_ZN22eap_tls_trace_string_cD2Ev @ 444 NONAME
	_ZN22tls_base_application_cD0Ev @ 445 NONAME
	_ZN22tls_base_application_cD1Ev @ 446 NONAME
	_ZN22tls_base_application_cD2Ev @ 447 NONAME
	_ZN23eap_diameter_avp_code_c12is_ietf_codeES_ @ 448 NONAME
	_ZN23eap_diameter_avp_code_c13get_code_dataEP18abs_eap_am_tools_cP31eap_diameter_avp_code_of_ietf_e @ 449 NONAME
	_ZN23eap_diameter_avp_code_c13get_code_dataEP18abs_eap_am_tools_cPS_ @ 450 NONAME
	_ZN23eap_diameter_avp_code_c15set_code_valuesE24eap_diameter_vendor_id_em @ 451 NONAME
	_ZN23eap_diameter_avp_code_cC1E24eap_diameter_vendor_id_em @ 452 NONAME
	_ZN23eap_diameter_avp_code_cC1E31eap_diameter_avp_code_of_ietf_e @ 453 NONAME
	_ZN23eap_diameter_avp_code_cC1Ev @ 454 NONAME
	_ZN23eap_diameter_avp_code_cC2E24eap_diameter_vendor_id_em @ 455 NONAME
	_ZN23eap_diameter_avp_code_cC2E31eap_diameter_avp_code_of_ietf_e @ 456 NONAME
	_ZN23eap_diameter_avp_code_cC2Ev @ 457 NONAME
	_ZN23eap_diameter_avp_code_cD1Ev @ 458 NONAME
	_ZN23eap_diameter_avp_code_cD2Ev @ 459 NONAME
	_ZN23eap_diameter_avp_code_caSE31eap_diameter_avp_code_of_ietf_e @ 460 NONAME
	_ZN23eap_diameter_avp_code_caSERKS_ @ 461 NONAME
	_ZN23eap_diameter_avp_code_cadEv @ 462 NONAME
	_ZN23eap_diameter_payloads_c11add_payloadE23eap_diameter_avp_code_cbPKhmbbb @ 463 NONAME
	_ZN23eap_diameter_payloads_c11get_payloadE23eap_diameter_avp_code_c @ 464 NONAME
	_ZN23eap_diameter_payloads_c21parse_generic_payloadE23eap_diameter_avp_code_cPK25eap_diameter_avp_header_c @ 465 NONAME
	_ZN23eap_diameter_payloads_c23parse_diameter_payloadsEPK25eap_diameter_avp_header_cPm @ 466 NONAME
	_ZN23eap_diameter_payloads_c24check_mandatory_payloadsEPK11eap_array_cI23eap_diameter_avp_code_cE @ 467 NONAME
	_ZN23eap_diameter_payloads_c24check_payloads_existenseEPK11eap_array_cI23eap_diameter_avp_code_cE @ 468 NONAME
	_ZN23eap_diameter_payloads_c5resetEv @ 469 NONAME
	_ZN23eap_diameter_payloads_cC1EP18abs_eap_am_tools_c @ 470 NONAME
	_ZN23eap_diameter_payloads_cC2EP18abs_eap_am_tools_c @ 471 NONAME
	_ZN23eap_diameter_payloads_cD0Ev @ 472 NONAME
	_ZN23eap_diameter_payloads_cD1Ev @ 473 NONAME
	_ZN23eap_diameter_payloads_cD2Ev @ 474 NONAME
	_ZN23tls_handshake_message_c12get_is_validEv @ 475 NONAME
	_ZN23tls_handshake_message_c12set_is_validEv @ 476 NONAME
	_ZN23tls_handshake_message_c13set_dhe_primeEPK19eap_variable_data_c @ 477 NONAME
	_ZN23tls_handshake_message_c14set_session_idEPK19eap_variable_data_c @ 478 NONAME
	_ZN23tls_handshake_message_c15get_is_analysedEv @ 479 NONAME
	_ZN23tls_handshake_message_c15set_is_analysedEv @ 480 NONAME
	_ZN23tls_handshake_message_c16add_message_dataEP19eap_variable_data_c @ 481 NONAME
	_ZN23tls_handshake_message_c16set_random_valueEPK19eap_variable_data_c @ 482 NONAME
	_ZN23tls_handshake_message_c17set_cipher_suitesEPK11eap_array_cItE @ 483 NONAME
	_ZN23tls_handshake_message_c17set_finished_dataEPK19eap_variable_data_c @ 484 NONAME
	_ZN23tls_handshake_message_c18set_handshake_typeE20tls_handshake_type_e @ 485 NONAME
	_ZN23tls_handshake_message_c18set_public_dhe_keyEPK19eap_variable_data_c @ 486 NONAME
	_ZN23tls_handshake_message_c19create_message_dataEv @ 487 NONAME
	_ZN23tls_handshake_message_c21set_certificate_chainEPK11eap_array_cI19eap_variable_data_cE @ 488 NONAME
	_ZN23tls_handshake_message_c21set_certificate_typesEPK11eap_array_cIhE @ 489 NONAME
	_ZN23tls_handshake_message_c22u16_t_to_network_orderEPtP18abs_eap_am_tools_c @ 490 NONAME
	_ZN23tls_handshake_message_c23set_compression_methodsEPK11eap_array_cIhE @ 491 NONAME
	_ZN23tls_handshake_message_c23set_dhe_group_generatorEPK19eap_variable_data_c @ 492 NONAME
	_ZN23tls_handshake_message_c23set_signed_message_hashEPK19eap_variable_data_c @ 493 NONAME
	_ZN23tls_handshake_message_c25set_handshake_header_copyEPK22tls_handshake_header_c @ 494 NONAME
	_ZN23tls_handshake_message_c25set_selected_cipher_suiteE19tls_cipher_suites_e @ 495 NONAME
	_ZN23tls_handshake_message_c27set_certificate_authoritiesEPK11eap_array_cI19eap_variable_data_cE @ 496 NONAME
	_ZN23tls_handshake_message_c30set_encrypted_premaster_secretEPK19eap_variable_data_c @ 497 NONAME
	_ZN23tls_handshake_message_c31set_selected_compression_methodE24tls_compression_method_e @ 498 NONAME
	_ZN23tls_handshake_message_cC1EP18abs_eap_am_tools_cP22abs_tls_message_hash_cb @ 499 NONAME
	_ZN23tls_handshake_message_cC2EP18abs_eap_am_tools_cP22abs_tls_message_hash_cb @ 500 NONAME
	_ZN23tls_handshake_message_cD0Ev @ 501 NONAME
	_ZN23tls_handshake_message_cD1Ev @ 502 NONAME
	_ZN23tls_handshake_message_cD2Ev @ 503 NONAME
	_ZN24peap_tlv_variable_data_c10set_bufferEPK21tls_peap_tlv_header_cPhmbb @ 504 NONAME
	_ZN24peap_tlv_variable_data_c18set_copy_of_bufferEPK21tls_peap_tlv_header_c @ 505 NONAME
	_ZN24peap_tlv_variable_data_cC1EP18abs_eap_am_tools_c @ 506 NONAME
	_ZN24peap_tlv_variable_data_cC2EP18abs_eap_am_tools_c @ 507 NONAME
	_ZN24peap_tlv_variable_data_cD0Ev @ 508 NONAME
	_ZN24peap_tlv_variable_data_cD1Ev @ 509 NONAME
	_ZN24peap_tlv_variable_data_cD2Ev @ 510 NONAME
	_ZN26mschapv2_change_password_c13set_constantsEv @ 511 NONAME
	_ZN26mschapv2_change_password_c15set_nt_responseEPKh @ 512 NONAME
	_ZN26mschapv2_change_password_c18set_encrypted_hashEPKh @ 513 NONAME
	_ZN26mschapv2_change_password_c18set_peer_challengeEPKh @ 514 NONAME
	_ZN26mschapv2_change_password_c22set_encrypted_pw_blockEPKh @ 515 NONAME
	_ZN26mschapv2_change_password_c23get_header_minimum_sizeEv @ 516 NONAME
	_ZN26mschapv2_change_password_cC1EP18abs_eap_am_tools_cPvm @ 517 NONAME
	_ZN26mschapv2_change_password_cC2EP18abs_eap_am_tools_cPvm @ 518 NONAME
	_ZN26mschapv2_change_password_cD0Ev @ 519 NONAME
	_ZN26mschapv2_change_password_cD1Ev @ 520 NONAME
	_ZN26mschapv2_change_password_cD2Ev @ 521 NONAME
	_ZN26tls_application_eap_core_c11load_moduleE19eap_expanded_type_cS0_P19abs_eap_base_type_cPP15eap_base_type_cbPK19eap_am_network_id_c @ 522 NONAME
	_ZN26tls_application_eap_core_c11packet_sendEPK19eap_am_network_id_cP18eap_buf_chain_wr_cmmm @ 523 NONAME
	_ZN26tls_application_eap_core_c12add_rogue_apER11eap_array_cI20eap_rogue_ap_entry_cE @ 524 NONAME
	_ZN26tls_application_eap_core_c12cancel_timerEP20abs_eap_base_timer_cm @ 525 NONAME
	_ZN26tls_application_eap_core_c12create_nonceEP19eap_variable_data_c @ 526 NONAME
	_ZN26tls_application_eap_core_c12get_is_validEv @ 527 NONAME
	_ZN26tls_application_eap_core_c12set_is_validEv @ 528 NONAME
	_ZN26tls_application_eap_core_c13unload_moduleE19eap_expanded_type_c @ 529 NONAME
	_ZN26tls_application_eap_core_c14alert_receivedE17tls_alert_level_e23tls_alert_description_e @ 530 NONAME
	_ZN26tls_application_eap_core_c14packet_processEP19eap_variable_data_ch @ 531 NONAME
	_ZN26tls_application_eap_core_c14read_configureEPK25eap_configuration_field_cP19eap_variable_data_c @ 532 NONAME
	_ZN26tls_application_eap_core_c15write_configureEPK25eap_configuration_field_cP19eap_variable_data_c @ 533 NONAME
	_ZN26tls_application_eap_core_c16query_tunnel_PACEPK24eap_fast_variable_data_c @ 534 NONAME
	_ZN26tls_application_eap_core_c16set_peap_versionE14peap_version_ebb @ 535 NONAME
	_ZN26tls_application_eap_core_c17get_eap_type_listEP11eap_array_cI19eap_expanded_type_cE @ 536 NONAME
	_ZN26tls_application_eap_core_c17get_header_offsetEPmS0_ @ 537 NONAME
	_ZN26tls_application_eap_core_c17peap_tunnel_readyEv @ 538 NONAME
	_ZN26tls_application_eap_core_c18set_tunneled_stateE18tls_session_type_e @ 539 NONAME
	_ZN26tls_application_eap_core_c18state_notificationEPK28abs_eap_state_notification_c @ 540 NONAME
	_ZN26tls_application_eap_core_c19packet_process_ttlsEP19eap_variable_data_chPm @ 541 NONAME
	_ZN26tls_application_eap_core_c19set_session_timeoutEm @ 542 NONAME
	_ZN26tls_application_eap_core_c19store_nonce_peap_v2EbP19peap_tlv_payloads_c @ 543 NONAME
	_ZN26tls_application_eap_core_c20create_nonce_peap_v2Eb @ 544 NONAME
	_ZN26tls_application_eap_core_c21parse_generic_payloadE19tls_peap_tlv_type_ePK21tls_peap_tlv_header_cP19peap_tlv_payloads_c @ 545 NONAME
	_ZN26tls_application_eap_core_c21trace_tunneled_packetEPKcPK15eap_header_wr_c @ 546 NONAME
	_ZN26tls_application_eap_core_c22packet_process_peap_v1EP19eap_variable_data_chPm @ 547 NONAME
	_ZN26tls_application_eap_core_c22packet_process_peap_v2EP19eap_variable_data_chPm @ 548 NONAME
	_ZN26tls_application_eap_core_c22parse_peap_tlv_payloadEPhPmP19peap_tlv_payloads_c @ 549 NONAME
	_ZN26tls_application_eap_core_c22restart_authenticationEPK19eap_am_network_id_cbbb @ 550 NONAME
	_ZN26tls_application_eap_core_c23cancel_query_tunnel_PACEv @ 551 NONAME
	_ZN26tls_application_eap_core_c23check_is_valid_eap_typeE19eap_expanded_type_c @ 552 NONAME
	_ZN26tls_application_eap_core_c23check_ttls_eap_payloadsEP23eap_diameter_payloads_cP32eap_ttls_tunneled_message_type_e @ 553 NONAME
	_ZN26tls_application_eap_core_c23get_application_partnerEv @ 554 NONAME
	_ZN26tls_application_eap_core_c23packet_data_crypto_keysEPK19eap_am_network_id_cPK24eap_master_session_key_c @ 555 NONAME
	_ZN26tls_application_eap_core_c23read_authority_identityEP19eap_variable_data_c @ 556 NONAME
	_ZN26tls_application_eap_core_c23set_application_partnerEP26abs_tls_base_application_c @ 557 NONAME
	_ZN26tls_application_eap_core_c24create_ttls_diameter_avpEP19eap_variable_data_cPKS0_23eap_diameter_avp_code_cb @ 558 NONAME
	_ZN26tls_application_eap_core_c24packet_forward_to_tunnelEPK19eap_am_network_id_cP15eap_header_wr_cm @ 559 NONAME
	_ZN26tls_application_eap_core_c25create_result_tlv_messageEP18eap_buf_chain_wr_c16eap_code_value_eh19tls_peap_tlv_type_e @ 560 NONAME
	_ZN26tls_application_eap_core_c25empty_ack_packet_receivedEPK19eap_am_network_id_ch @ 561 NONAME
	_ZN26tls_application_eap_core_c25packet_process_xp_peap_v0EP19eap_variable_data_chPm @ 562 NONAME
	_ZN26tls_application_eap_core_c26send_ttls_ms_chapv2_packetEP15eap_header_wr_c @ 563 NONAME
	_ZN26tls_application_eap_core_c29check_ttls_plain_pap_payloadsEP23eap_diameter_payloads_cP32eap_ttls_tunneled_message_type_e @ 564 NONAME
	_ZN26tls_application_eap_core_c30create_eap_payload_tlv_messageEP18eap_buf_chain_wr_cPK15eap_header_wr_ch @ 565 NONAME
	_ZN26tls_application_eap_core_c30handle_ttls_plain_pap_payloadsEP23eap_diameter_payloads_c32eap_ttls_tunneled_message_type_eh @ 566 NONAME
	_ZN26tls_application_eap_core_c31create_compound_mac_key_peap_v2Eb @ 567 NONAME
	_ZN26tls_application_eap_core_c31create_eap_diameter_avp_messageEP18eap_buf_chain_wr_cPK15eap_header_wr_ch @ 568 NONAME
	_ZN26tls_application_eap_core_c32ttls_server_handles_pap_responseEP23eap_diameter_payloads_ch @ 569 NONAME
	_ZN26tls_application_eap_core_c33create_crypto_binding_tlv_messageEP18eap_buf_chain_wr_c16eap_code_value_ehPK19eap_variable_data_ch @ 570 NONAME
	_ZN26tls_application_eap_core_c33send_tunneled_acknowledge_peap_v2E16eap_code_value_eh @ 571 NONAME
	_ZN26tls_application_eap_core_c34check_ttls_plain_mschapv2_payloadsEP23eap_diameter_payloads_cP32eap_ttls_tunneled_message_type_e @ 572 NONAME
	_ZN26tls_application_eap_core_c34create_crypto_binding_compound_macEPK19eap_variable_data_cPK21tls_peap_tlv_header_cPS0_ @ 573 NONAME
	_ZN26tls_application_eap_core_c34save_user_authorization_pac_opaqueEPK15tls_extension_c @ 574 NONAME
	_ZN26tls_application_eap_core_c34start_peap_tunneled_authenticationEPK19eap_am_network_id_cbh18tls_session_type_eb @ 575 NONAME
	_ZN26tls_application_eap_core_c34start_ttls_tunneled_authenticationEPK19eap_am_network_id_ch @ 576 NONAME
	_ZN26tls_application_eap_core_c35create_compound_session_key_peap_v2Ev @ 577 NONAME
	_ZN26tls_application_eap_core_c35handle_ttls_plain_mschapv2_payloadsEP23eap_diameter_payloads_c32eap_ttls_tunneled_message_type_eh @ 578 NONAME
	_ZN26tls_application_eap_core_c35ttls_client_handles_ms_chapv2_errorEP23eap_diameter_payloads_ch @ 579 NONAME
	_ZN26tls_application_eap_core_c35verify_tunneled_acknowledge_peap_v2Ev @ 580 NONAME
	_ZN26tls_application_eap_core_c36asynchronous_init_remove_eap_sessionEPK19eap_am_network_id_c @ 581 NONAME
	_ZN26tls_application_eap_core_c36send_tunneled_acknowledge_xp_peap_v0E16eap_code_value_eh @ 582 NONAME
	_ZN26tls_application_eap_core_c37ttls_client_handles_ms_chapv2_successEP23eap_diameter_payloads_ch @ 583 NONAME
	_ZN26tls_application_eap_core_c37ttls_server_handles_pap_reply_messageEP23eap_diameter_payloads_ch @ 584 NONAME
	_ZN26tls_application_eap_core_c38create_intermediate_result_tlv_messageEP18eap_buf_chain_wr_c16eap_code_value_eh @ 585 NONAME
	_ZN26tls_application_eap_core_c38ttls_server_handles_ms_chapv2_responseEP23eap_diameter_payloads_ch @ 586 NONAME
	_ZN26tls_application_eap_core_c41finish_successfull_authentication_peap_v2Eh @ 587 NONAME
	_ZN26tls_application_eap_core_c41plain_eap_success_failure_packet_receivedEPK19eap_am_network_id_c16eap_code_value_eh @ 588 NONAME
	_ZN26tls_application_eap_core_c44ttls_tunneled_message_state_process_responseEP15eap_header_wr_c @ 589 NONAME
	_ZN26tls_application_eap_core_c45complete_query_ttls_pap_username_and_passwordEPK19eap_variable_data_cS2_12eap_status_e @ 590 NONAME
	_ZN26tls_application_eap_core_c45ttls_server_handles_ms_chapv2_change_passwordEP23eap_diameter_payloads_ch @ 591 NONAME
	_ZN26tls_application_eap_core_c46complete_verify_ttls_pap_username_and_passwordE12eap_status_ePK19eap_variable_data_c @ 592 NONAME
	_ZN26tls_application_eap_core_c47create_eap_success_failure_in_forward_to_tunnelEPK19eap_am_network_id_c16eap_code_value_eh @ 593 NONAME
	_ZN26tls_application_eap_core_c49ttls_tunneled_message_state_process_error_requestEP15eap_header_wr_c @ 594 NONAME
	_ZN26tls_application_eap_core_c50ttls_tunneled_message_state_complete_error_requestEP15eap_header_wr_c @ 595 NONAME
	_ZN26tls_application_eap_core_c51ttls_tunneled_message_state_process_success_requestEP15eap_header_wr_c @ 596 NONAME
	_ZN26tls_application_eap_core_c52ttls_tunneled_message_state_complete_success_requestEP15eap_header_wr_c @ 597 NONAME
	_ZN26tls_application_eap_core_c52ttls_tunneled_message_state_process_identity_requestEP15eap_header_wr_c @ 598 NONAME
	_ZN26tls_application_eap_core_c53ttls_tunneled_message_state_process_challenge_requestEP15eap_header_wr_c @ 599 NONAME
	_ZN26tls_application_eap_core_c53ttls_tunneled_message_state_process_identity_responseEP15eap_header_wr_c @ 600 NONAME
	_ZN26tls_application_eap_core_c5resetEv @ 601 NONAME
	_ZN26tls_application_eap_core_c60ttls_tunneled_message_state_process_change_password_responseEP15eap_header_wr_c @ 602 NONAME
	_ZN26tls_application_eap_core_c8shutdownEv @ 603 NONAME
	_ZN26tls_application_eap_core_c9configureEv @ 604 NONAME
	_ZN26tls_application_eap_core_c9set_timerEP20abs_eap_base_timer_cmPvm @ 605 NONAME
	_ZN26tls_application_eap_core_cC1EP18abs_eap_am_tools_cP10eap_core_cbb19eap_expanded_type_cPK19eap_am_network_id_c @ 606 NONAME
	_ZN26tls_application_eap_core_cC2EP18abs_eap_am_tools_cP10eap_core_cbb19eap_expanded_type_cPK19eap_am_network_id_c @ 607 NONAME
	_ZN26tls_application_eap_core_cD0Ev @ 608 NONAME
	_ZN26tls_application_eap_core_cD1Ev @ 609 NONAME
	_ZN26tls_application_eap_core_cD2Ev @ 610 NONAME
	_ZN28eap_diameter_variable_data_c10set_bufferE23eap_diameter_avp_code_cbPKhmbb @ 611 NONAME
	_ZN28eap_diameter_variable_data_c16set_payload_codeE23eap_diameter_avp_code_c @ 612 NONAME
	_ZN28eap_diameter_variable_data_c18get_payload_bufferEv @ 613 NONAME
	_ZN28eap_diameter_variable_data_c31object_increase_reference_countEv @ 614 NONAME
	_ZN28eap_diameter_variable_data_c8add_dataEPKhm @ 615 NONAME
	_ZN28eap_diameter_variable_data_cC1EP18abs_eap_am_tools_c @ 616 NONAME
	_ZN28eap_diameter_variable_data_cC2EP18abs_eap_am_tools_c @ 617 NONAME
	_ZN28eap_diameter_variable_data_cD0Ev @ 618 NONAME
	_ZN28eap_diameter_variable_data_cD1Ev @ 619 NONAME
	_ZN28eap_diameter_variable_data_cD2Ev @ 620 NONAME
	_ZN30eap_am_type_tls_peap_symbian_c11DlgCompleteEi @ 621 NONAME
	_ZN30eap_am_type_tls_peap_symbian_c11query_realmEPK11eap_array_cI19eap_variable_data_cE @ 622 NONAME
	_ZN30eap_am_type_tls_peap_symbian_c12get_is_validEv @ 623 NONAME
	_ZN30eap_am_type_tls_peap_symbian_c12set_is_validEv @ 624 NONAME
	_ZN30eap_am_type_tls_peap_symbian_c13timer_expiredEmPv @ 625 NONAME
	_ZN30eap_am_type_tls_peap_symbian_c14alert_receivedE17tls_alert_level_e23tls_alert_description_e @ 626 NONAME
	_ZN30eap_am_type_tls_peap_symbian_c16save_tls_sessionEPK19eap_variable_data_cS2_19tls_cipher_suites_e @ 627 NONAME
	_ZN30eap_am_type_tls_peap_symbian_c16set_peap_versionE14peap_version_ebb @ 628 NONAME
	_ZN30eap_am_type_tls_peap_symbian_c17get_eap_type_listEP11eap_array_cI19eap_expanded_type_cE @ 629 NONAME
	_ZN30eap_am_type_tls_peap_symbian_c17timer_delete_dataEmPv @ 630 NONAME
	_ZN30eap_am_type_tls_peap_symbian_c18cancel_query_realmEv @ 631 NONAME
	_ZN30eap_am_type_tls_peap_symbian_c18get_tls_am_partnerEv @ 632 NONAME
	_ZN30eap_am_type_tls_peap_symbian_c18query_eap_identityEP19eap_variable_data_cPK19eap_am_network_id_chPbS1_S5_S1_ @ 633 NONAME
	_ZN30eap_am_type_tls_peap_symbian_c18set_tls_am_partnerEP21abs_tls_am_services_c @ 634 NONAME
	_ZN30eap_am_type_tls_peap_symbian_c19query_dh_parametersEPK11eap_array_cI19eap_variable_data_cE19tls_cipher_suites_e @ 635 NONAME
	_ZN30eap_am_type_tls_peap_symbian_c19type_configure_readEPK25eap_configuration_field_cP19eap_variable_data_c @ 636 NONAME
	_ZN30eap_am_type_tls_peap_symbian_c20type_configure_writeEPK25eap_configuration_field_cP19eap_variable_data_c @ 637 NONAME
	_ZN30eap_am_type_tls_peap_symbian_c21cancel_identity_queryEv @ 638 NONAME
	_ZN30eap_am_type_tls_peap_symbian_c21sign_with_private_keyEPK19eap_variable_data_c @ 639 NONAME
	_ZN30eap_am_type_tls_peap_symbian_c22verify_with_public_keyEPK19eap_variable_data_cS2_ @ 640 NONAME
	_ZN30eap_am_type_tls_peap_symbian_c23authentication_finishedEb18tls_session_type_e @ 641 NONAME
	_ZN30eap_am_type_tls_peap_symbian_c23query_certificate_chainEPK11eap_array_cI19eap_variable_data_cEPKS0_IhE19tls_cipher_suites_e @ 642 NONAME
	_ZN30eap_am_type_tls_peap_symbian_c24verify_certificate_chainEPK11eap_array_cI19eap_variable_data_cE19tls_cipher_suites_e @ 643 NONAME
	_ZN30eap_am_type_tls_peap_symbian_c25is_ttls_pap_session_validEv @ 644 NONAME
	_ZN30eap_am_type_tls_peap_symbian_c26cancel_query_dh_parametersEv @ 645 NONAME
	_ZN30eap_am_type_tls_peap_symbian_c26notify_configuration_errorE12eap_status_e @ 646 NONAME
	_ZN30eap_am_type_tls_peap_symbian_c27cancel_query_dsa_parametersEv @ 647 NONAME
	_ZN30eap_am_type_tls_peap_symbian_c27rsa_encrypt_with_public_keyEPK19eap_variable_data_c @ 648 NONAME
	_ZN30eap_am_type_tls_peap_symbian_c28cancel_sign_with_private_keyEv @ 649 NONAME
	_ZN30eap_am_type_tls_peap_symbian_c28rsa_decrypt_with_private_keyEPK19eap_variable_data_c @ 650 NONAME
	_ZN30eap_am_type_tls_peap_symbian_c29cancel_verify_with_public_keyEv @ 651 NONAME
	_ZN30eap_am_type_tls_peap_symbian_c30cancel_query_certificate_chainEv @ 652 NONAME
	_ZN30eap_am_type_tls_peap_symbian_c31cancel_verify_certificate_chainEv @ 653 NONAME
	_ZN30eap_am_type_tls_peap_symbian_c34cancel_rsa_encrypt_with_public_keyEv @ 654 NONAME
	_ZN30eap_am_type_tls_peap_symbian_c35cancel_rsa_decrypt_with_private_keyEv @ 655 NONAME
	_ZN30eap_am_type_tls_peap_symbian_c36query_ttls_pap_username_and_passwordEPK19eap_variable_data_c @ 656 NONAME
	_ZN30eap_am_type_tls_peap_symbian_c39query_certificate_authorities_and_typesEv @ 657 NONAME
	_ZN30eap_am_type_tls_peap_symbian_c40query_cipher_suites_and_previous_sessionEv @ 658 NONAME
	_ZN30eap_am_type_tls_peap_symbian_c40select_cipher_suite_and_check_session_idEPK11eap_array_cItEPK19eap_variable_data_c @ 659 NONAME
	_ZN30eap_am_type_tls_peap_symbian_c46cancel_query_certificate_authorities_and_typesEv @ 660 NONAME
	_ZN30eap_am_type_tls_peap_symbian_c47cancel_query_cipher_suites_and_previous_sessionEv @ 661 NONAME
	_ZN30eap_am_type_tls_peap_symbian_c47cancel_select_cipher_suite_and_check_session_idEv @ 662 NONAME
	_ZN30eap_am_type_tls_peap_symbian_c5resetEv @ 663 NONAME
	_ZN30eap_am_type_tls_peap_symbian_c8shutdownEv @ 664 NONAME
	_ZN30eap_am_type_tls_peap_symbian_c9configureEv @ 665 NONAME
	_ZN30eap_am_type_tls_peap_symbian_cD0Ev @ 666 NONAME
	_ZN30eap_am_type_tls_peap_symbian_cD1Ev @ 667 NONAME
	_ZN30eap_am_type_tls_peap_symbian_cD2Ev @ 668 NONAME
	_ZN30tls_application_data_message_c12get_is_validEv @ 669 NONAME
	_ZN30tls_application_data_message_c12set_is_validEv @ 670 NONAME
	_ZN30tls_application_data_message_c15get_is_analysedEv @ 671 NONAME
	_ZN30tls_application_data_message_c15set_is_analysedEv @ 672 NONAME
	_ZN30tls_application_data_message_c16add_message_dataEP19eap_variable_data_c @ 673 NONAME
	_ZN30tls_application_data_message_c20get_application_dataEv @ 674 NONAME
	_ZN30tls_application_data_message_c20set_application_dataEPKhm @ 675 NONAME
	_ZN30tls_application_data_message_cC1EP18abs_eap_am_tools_cb @ 676 NONAME
	_ZN30tls_application_data_message_cC2EP18abs_eap_am_tools_cb @ 677 NONAME
	_ZN30tls_application_data_message_cD0Ev @ 678 NONAME
	_ZN30tls_application_data_message_cD1Ev @ 679 NONAME
	_ZN30tls_application_data_message_cD2Ev @ 680 NONAME
	_ZN32tls_change_cipher_spec_message_c12get_is_validEv @ 681 NONAME
	_ZN32tls_change_cipher_spec_message_c12set_is_validEv @ 682 NONAME
	_ZN32tls_change_cipher_spec_message_c16add_message_dataEP19eap_variable_data_c @ 683 NONAME
	_ZN32tls_change_cipher_spec_message_c19create_message_dataEv @ 684 NONAME
	_ZN32tls_change_cipher_spec_message_c27set_change_cipher_spec_typeE29tls_change_cipher_spec_type_e @ 685 NONAME
	_ZN32tls_change_cipher_spec_message_cC1EP18abs_eap_am_tools_cP28abs_tls_change_cipher_spec_cb @ 686 NONAME
	_ZN32tls_change_cipher_spec_message_cC2EP18abs_eap_am_tools_cP28abs_tls_change_cipher_spec_cb @ 687 NONAME
	_ZN32tls_change_cipher_spec_message_cD0Ev @ 688 NONAME
	_ZN32tls_change_cipher_spec_message_cD1Ev @ 689 NONAME
	_ZN32tls_change_cipher_spec_message_cD2Ev @ 690 NONAME
	_ZN38eap_type_tls_peap_state_notification_cC1EP18abs_eap_am_tools_cPK19eap_am_network_id_cb28eap_state_notification_eap_e20eap_protocol_layer_e19eap_expanded_type_cmmhb @ 691 NONAME
	_ZN38eap_type_tls_peap_state_notification_cC1EP18abs_eap_am_tools_cPK19eap_am_network_id_cb28eap_state_notification_eap_e20eap_protocol_layer_e22eap_type_ietf_values_emmhb @ 692 NONAME
	_ZN38eap_type_tls_peap_state_notification_cC1EP18abs_eap_am_tools_cPK19eap_am_network_id_cb32eap_state_notification_generic_e20eap_protocol_layer_emmmhb @ 693 NONAME
	_ZN38eap_type_tls_peap_state_notification_cC2EP18abs_eap_am_tools_cPK19eap_am_network_id_cb28eap_state_notification_eap_e20eap_protocol_layer_e19eap_expanded_type_cmmhb @ 694 NONAME
	_ZN38eap_type_tls_peap_state_notification_cC2EP18abs_eap_am_tools_cPK19eap_am_network_id_cb28eap_state_notification_eap_e20eap_protocol_layer_e22eap_type_ietf_values_emmhb @ 695 NONAME
	_ZN38eap_type_tls_peap_state_notification_cC2EP18abs_eap_am_tools_cPK19eap_am_network_id_cb32eap_state_notification_generic_e20eap_protocol_layer_emmmhb @ 696 NONAME
	_ZN38eap_type_tls_peap_state_notification_cD0Ev @ 697 NONAME
	_ZN38eap_type_tls_peap_state_notification_cD1Ev @ 698 NONAME
	_ZN38eap_type_tls_peap_state_notification_cD2Ev @ 699 NONAME
	_ZNK12tls_record_c23cipher_suite_is_TLS_RSAEv @ 700 NONAME
	_ZNK12tls_record_c27cipher_suite_is_RC4_128_MD5E19tls_cipher_suites_e @ 701 NONAME
	_ZNK12tls_record_c27cipher_suite_is_RC4_128_SHAE19tls_cipher_suites_e @ 702 NONAME
	_ZNK12tls_record_c27cipher_suite_is_TLS_DHE_DSSEv @ 703 NONAME
	_ZNK12tls_record_c27cipher_suite_is_TLS_DHE_RSAEv @ 704 NONAME
	_ZNK12tls_record_c31cipher_suite_is_AES_128_CBC_SHAE19tls_cipher_suites_e @ 705 NONAME
	_ZNK12tls_record_c32cipher_suite_is_3DES_EDE_CBC_SHAE19tls_cipher_suites_e @ 706 NONAME
	_ZNK12tls_record_c9get_stateEv @ 707 NONAME
	_ZNK13tls_message_c17get_analyse_indexEv @ 708 NONAME
	_ZNK13tls_message_c18get_record_messageEm @ 709 NONAME
	_ZNK13tls_message_c23get_last_record_messageEv @ 710 NONAME
	_ZNK13tls_message_c24get_record_message_countEv @ 711 NONAME
	_ZNK16dummy_eap_core_c19get_is_tunneled_eapEv @ 712 NONAME
	_ZNK16tls_completion_c21get_completion_actionEv @ 713 NONAME
	_ZNK16tls_completion_c28get_completion_action_stringEv @ 714 NONAME
	_ZNK17mschapv2_header_c10get_opcodeEv @ 715 NONAME
	_ZNK17mschapv2_header_c12check_headerEv @ 716 NONAME
	_ZNK17mschapv2_header_c13get_ms_lengthEv @ 717 NONAME
	_ZNK17mschapv2_header_c15get_data_lengthEv @ 718 NONAME
	_ZNK17mschapv2_header_c15get_mschapv2_idEv @ 719 NONAME
	_ZNK17mschapv2_header_c8get_dataEv @ 720 NONAME
	_ZNK19eap_type_tls_peap_c16get_state_stringEv @ 721 NONAME
	_ZNK19eap_type_tls_peap_c20get_reassembly_stateEv @ 722 NONAME
	_ZNK19eap_type_tls_peap_c23get_last_eap_identifierEv @ 723 NONAME
	_ZNK19eap_type_tls_peap_c27get_reassembly_state_stringEv @ 724 NONAME
	_ZNK19eap_type_tls_peap_c28get_failure_message_receivedEv @ 725 NONAME
	_ZNK19eap_type_tls_peap_c31get_saved_previous_state_stringEv @ 726 NONAME
	_ZNK19eap_type_tls_peap_c9get_stateEv @ 727 NONAME
	_ZNK19mschapv2_response_c12check_headerEv @ 728 NONAME
	_ZNK19mschapv2_response_c15get_name_lengthEv @ 729 NONAME
	_ZNK19mschapv2_response_c15get_nt_responseEv @ 730 NONAME
	_ZNK19mschapv2_response_c18get_peer_challengeEv @ 731 NONAME
	_ZNK19mschapv2_response_c8get_nameEv @ 732 NONAME
	_ZNK19peap_tlv_payloads_c12get_is_validEv @ 733 NONAME
	_ZNK19tls_alert_message_c15get_alert_levelEv @ 734 NONAME
	_ZNK19tls_alert_message_c21get_alert_descriptionEv @ 735 NONAME
	_ZNK20mschapv2_challenge_c12check_headerEv @ 736 NONAME
	_ZNK20mschapv2_challenge_c13get_challengeEv @ 737 NONAME
	_ZNK20mschapv2_challenge_c15get_name_lengthEv @ 738 NONAME
	_ZNK20mschapv2_challenge_c8get_nameEv @ 739 NONAME
	_ZNK20tls_record_message_c11get_versionEv @ 740 NONAME
	_ZNK20tls_record_message_c12get_protocolEv @ 741 NONAME
	_ZNK20tls_record_message_c13get_handshakeEm @ 742 NONAME
	_ZNK20tls_record_message_c15get_alert_countEv @ 743 NONAME
	_ZNK20tls_record_message_c15get_data_lengthEv @ 744 NONAME
	_ZNK20tls_record_message_c17get_analyse_indexEv @ 745 NONAME
	_ZNK20tls_record_message_c17get_parsed_recordEv @ 746 NONAME
	_ZNK20tls_record_message_c19get_handshake_countEv @ 747 NONAME
	_ZNK20tls_record_message_c20get_application_dataEm @ 748 NONAME
	_ZNK20tls_record_message_c22get_change_cipher_specEm @ 749 NONAME
	_ZNK20tls_record_message_c24get_cipher_suite_appliedEv @ 750 NONAME
	_ZNK20tls_record_message_c26get_application_data_countEv @ 751 NONAME
	_ZNK20tls_record_message_c28get_change_cipher_spec_countEv @ 752 NONAME
	_ZNK20tls_record_message_c33get_tls_record_header_is_includedEv @ 753 NONAME
	_ZNK20tls_record_message_c9get_alertEm @ 754 NONAME
	_ZNK21eap_tls_peap_header_c12check_headerEP18abs_eap_am_tools_c19eap_expanded_type_cb14peap_version_eb @ 755 NONAME
	_ZNK21eap_tls_peap_header_c12get_eap_codeEv @ 756 NONAME
	_ZNK21eap_tls_peap_header_c12get_eap_typeEv @ 757 NONAME
	_ZNK21eap_tls_peap_header_c13get_tls_flagsEv @ 758 NONAME
	_ZNK21eap_tls_peap_header_c14get_eap_lengthEv @ 759 NONAME
	_ZNK21eap_tls_peap_header_c14get_flag_startEv @ 760 NONAME
	_ZNK21eap_tls_peap_header_c15get_code_stringEv @ 761 NONAME
	_ZNK21eap_tls_peap_header_c15get_data_lengthEv @ 762 NONAME
	_ZNK21eap_tls_peap_header_c15get_data_offsetEP18abs_eap_am_tools_cmm @ 763 NONAME
	_ZNK21eap_tls_peap_header_c16get_flag_versionEv @ 764 NONAME
	_ZNK21eap_tls_peap_header_c16get_tls_flag_bitEm @ 765 NONAME
	_ZNK21eap_tls_peap_header_c16set_tls_flag_bitEbm @ 766 NONAME
	_ZNK21eap_tls_peap_header_c17get_flag_reservedEv @ 767 NONAME
	_ZNK21eap_tls_peap_header_c17get_header_lengthEv @ 768 NONAME
	_ZNK21eap_tls_peap_header_c18get_eap_identifierEv @ 769 NONAME
	_ZNK21eap_tls_peap_header_c18get_tls_flag_valueEmm @ 770 NONAME
	_ZNK21eap_tls_peap_header_c18set_tls_flag_valueEhmm @ 771 NONAME
	_ZNK21eap_tls_peap_header_c19get_eap_type_stringEv @ 772 NONAME
	_ZNK21eap_tls_peap_header_c20get_tls_flags_offsetEv @ 773 NONAME
	_ZNK21eap_tls_peap_header_c21get_tls_length_offsetEv @ 774 NONAME
	_ZNK21eap_tls_peap_header_c22get_tls_message_lengthEPm @ 775 NONAME
	_ZNK21eap_tls_peap_header_c23get_flag_more_fragmentsEv @ 776 NONAME
	_ZNK21eap_tls_peap_header_c24get_start_offset_of_dataEv @ 777 NONAME
	_ZNK21eap_tls_peap_header_c25get_tls_min_header_lengthEv @ 778 NONAME
	_ZNK21eap_tls_peap_header_c28get_flag_tls_length_includedEv @ 779 NONAME
	_ZNK21eap_tls_peap_header_c8get_dataEP18abs_eap_am_tools_cm @ 780 NONAME
	_ZNK23eap_diameter_avp_code_c13get_vendor_idEv @ 781 NONAME
	_ZNK23eap_diameter_avp_code_c15get_vendor_codeEv @ 782 NONAME
	_ZNK23eap_diameter_avp_code_cadEv @ 783 NONAME
	_ZNK23eap_diameter_avp_code_ceqE31eap_diameter_avp_code_of_ietf_e @ 784 NONAME
	_ZNK23eap_diameter_avp_code_ceqERKS_ @ 785 NONAME
	_ZNK23eap_diameter_avp_code_cneE31eap_diameter_avp_code_of_ietf_e @ 786 NONAME
	_ZNK23eap_diameter_avp_code_cneERKS_ @ 787 NONAME
	_ZNK23eap_diameter_payloads_c12get_is_validEv @ 788 NONAME
	_ZNK23tls_handshake_message_c13get_dhe_primeEv @ 789 NONAME
	_ZNK23tls_handshake_message_c14get_session_idEv @ 790 NONAME
	_ZNK23tls_handshake_message_c16get_random_valueEv @ 791 NONAME
	_ZNK23tls_handshake_message_c17get_cipher_suitesEv @ 792 NONAME
	_ZNK23tls_handshake_message_c17get_finished_dataEv @ 793 NONAME
	_ZNK23tls_handshake_message_c18get_handshake_typeEv @ 794 NONAME
	_ZNK23tls_handshake_message_c18get_public_dhe_keyEv @ 795 NONAME
	_ZNK23tls_handshake_message_c21get_certificate_chainEv @ 796 NONAME
	_ZNK23tls_handshake_message_c21get_certificate_typesEv @ 797 NONAME
	_ZNK23tls_handshake_message_c23get_compression_methodsEv @ 798 NONAME
	_ZNK23tls_handshake_message_c23get_dhe_group_generatorEv @ 799 NONAME
	_ZNK23tls_handshake_message_c23get_signed_message_hashEv @ 800 NONAME
	_ZNK23tls_handshake_message_c25get_selected_cipher_suiteEv @ 801 NONAME
	_ZNK23tls_handshake_message_c27get_certificate_authoritiesEv @ 802 NONAME
	_ZNK23tls_handshake_message_c30get_encrypted_premaster_secretEv @ 803 NONAME
	_ZNK23tls_handshake_message_c31get_selected_compression_methodEv @ 804 NONAME
	_ZNK24peap_tlv_variable_data_c19get_original_headerEv @ 805 NONAME
	_ZNK26mschapv2_change_password_c12check_headerEv @ 806 NONAME
	_ZNK26mschapv2_change_password_c15get_nt_responseEv @ 807 NONAME
	_ZNK26mschapv2_change_password_c18get_encrypted_hashEv @ 808 NONAME
	_ZNK26mschapv2_change_password_c18get_peer_challengeEv @ 809 NONAME
	_ZNK26mschapv2_change_password_c22get_encrypted_pw_blockEv @ 810 NONAME
	_ZNK28eap_diameter_variable_data_c15get_data_lengthEv @ 811 NONAME
	_ZNK28eap_diameter_variable_data_c16get_is_mandatoryEv @ 812 NONAME
	_ZNK28eap_diameter_variable_data_c16get_payload_codeEv @ 813 NONAME
	_ZNK28eap_diameter_variable_data_c4copyEv @ 814 NONAME
	_ZNK28eap_diameter_variable_data_c8get_dataEm @ 815 NONAME
	_ZNK32tls_change_cipher_spec_message_c27get_change_cipher_spec_typeEv @ 816 NONAME
	_ZNK33eap_static_diameter_vendor_code_c8get_codeEv @ 817 NONAME
	_ZTI11CEapTlsPeap @ 818 NONAME
	_ZTI12CEapTypeInfo @ 819 NONAME
	_ZTI12tls_record_c @ 820 NONAME
	_ZTI13tls_message_c @ 821 NONAME
	_ZTI16dummy_eap_core_c @ 822 NONAME
	_ZTI16tls_completion_c @ 823 NONAME
	_ZTI17mschapv2_header_c @ 824 NONAME
	_ZTI17tls_base_record_c @ 825 NONAME
	_ZTI19eap_type_tls_peap_c @ 826 NONAME
	_ZTI19mschapv2_response_c @ 827 NONAME
	_ZTI19peap_tlv_payloads_c @ 828 NONAME
	_ZTI19tls_alert_message_c @ 829 NONAME
	_ZTI19tls_record_header_c @ 830 NONAME
	_ZTI20mschapv2_challenge_c @ 831 NONAME
	_ZTI20tls_record_message_c @ 832 NONAME
	_ZTI21CEapTlsPeapUiEapTypes @ 833 NONAME
	_ZTI21eap_tls_peap_header_c @ 834 NONAME
	_ZTI21tls_peap_tlv_header_c @ 835 NONAME
	_ZTI22CEapTlsPeapCertFetcher @ 836 NONAME
	_ZTI22eap_tls_trace_string_c @ 837 NONAME
	_ZTI22tls_base_application_c @ 838 NONAME
	_ZTI22tls_handshake_header_c @ 839 NONAME
	_ZTI23CEapTlsPeapUiConnection @ 840 NONAME
	_ZTI23eap_diameter_payloads_c @ 841 NONAME
	_ZTI23tls_handshake_message_c @ 842 NONAME
	_ZTI24CEapTlsPeapCertInterface @ 843 NONAME
	_ZTI24CEapTlsPeapUiTlsPeapData @ 844 NONAME
	_ZTI24peap_tlv_variable_data_c @ 845 NONAME
	_ZTI25CEapTlsPeapUiCertificates @ 846 NONAME
	_ZTI25CEapTlsPeapUiCipherSuites @ 847 NONAME
	_ZTI25eap_diameter_avp_header_c @ 848 NONAME
	_ZTI26mschapv2_change_password_c @ 849 NONAME
	_ZTI26tls_application_eap_core_c @ 850 NONAME
	_ZTI27CEapTlsPeapUiDataConnection @ 851 NONAME
	_ZTI28eap_diameter_variable_data_c @ 852 NONAME
	_ZTI30eap_am_type_tls_peap_symbian_c @ 853 NONAME
	_ZTI30tls_application_data_message_c @ 854 NONAME
	_ZTI32tls_change_cipher_spec_message_c @ 855 NONAME
	_ZTI38eap_type_tls_peap_state_notification_c @ 856 NONAME
	_ZTV11CEapTlsPeap @ 857 NONAME
	_ZTV12CEapTypeInfo @ 858 NONAME
	_ZTV12tls_record_c @ 859 NONAME
	_ZTV13tls_message_c @ 860 NONAME
	_ZTV16dummy_eap_core_c @ 861 NONAME
	_ZTV16tls_completion_c @ 862 NONAME
	_ZTV17mschapv2_header_c @ 863 NONAME
	_ZTV17tls_base_record_c @ 864 NONAME
	_ZTV19eap_type_tls_peap_c @ 865 NONAME
	_ZTV19mschapv2_response_c @ 866 NONAME
	_ZTV19peap_tlv_payloads_c @ 867 NONAME
	_ZTV19tls_alert_message_c @ 868 NONAME
	_ZTV19tls_record_header_c @ 869 NONAME
	_ZTV20mschapv2_challenge_c @ 870 NONAME
	_ZTV20tls_record_message_c @ 871 NONAME
	_ZTV21CEapTlsPeapUiEapTypes @ 872 NONAME
	_ZTV21eap_tls_peap_header_c @ 873 NONAME
	_ZTV21tls_peap_tlv_header_c @ 874 NONAME
	_ZTV22CEapTlsPeapCertFetcher @ 875 NONAME
	_ZTV22eap_tls_trace_string_c @ 876 NONAME
	_ZTV22tls_base_application_c @ 877 NONAME
	_ZTV22tls_handshake_header_c @ 878 NONAME
	_ZTV23CEapTlsPeapUiConnection @ 879 NONAME
	_ZTV23eap_diameter_payloads_c @ 880 NONAME
	_ZTV23tls_handshake_message_c @ 881 NONAME
	_ZTV24CEapTlsPeapCertInterface @ 882 NONAME
	_ZTV24CEapTlsPeapUiTlsPeapData @ 883 NONAME
	_ZTV24peap_tlv_variable_data_c @ 884 NONAME
	_ZTV25CEapTlsPeapUiCertificates @ 885 NONAME
	_ZTV25CEapTlsPeapUiCipherSuites @ 886 NONAME
	_ZTV25eap_diameter_avp_header_c @ 887 NONAME
	_ZTV26mschapv2_change_password_c @ 888 NONAME
	_ZTV26tls_application_eap_core_c @ 889 NONAME
	_ZTV27CEapTlsPeapUiDataConnection @ 890 NONAME
	_ZTV28eap_diameter_variable_data_c @ 891 NONAME
	_ZTV30eap_am_type_tls_peap_symbian_c @ 892 NONAME
	_ZTV30tls_application_data_message_c @ 893 NONAME
	_ZTV32tls_change_cipher_spec_message_c @ 894 NONAME
	_ZTV38eap_type_tls_peap_state_notification_c @ 895 NONAME
	_ZThn12_N12tls_record_c20complete_query_realmEPK19eap_variable_data_c12eap_status_e @ 896 NONAME
	_ZThn12_N12tls_record_c28complete_query_dh_parametersEPK19eap_variable_data_cS2_12eap_status_e @ 897 NONAME
	_ZThn12_N12tls_record_c30complete_sign_with_private_keyEPK19eap_variable_data_c12eap_status_e @ 898 NONAME
	_ZThn12_N12tls_record_c31complete_verify_with_public_keyE12eap_status_e @ 899 NONAME
	_ZThn12_N12tls_record_c32complete_query_certificate_chainEPK11eap_array_cI19eap_variable_data_cE12eap_status_e @ 900 NONAME
	_ZThn12_N12tls_record_c33complete_verify_certificate_chainE12eap_status_e @ 901 NONAME
	_ZThn12_N12tls_record_c36complete_rsa_encrypt_with_public_keyEPK19eap_variable_data_c12eap_status_e @ 902 NONAME
	_ZThn12_N12tls_record_c37complete_rsa_decrypt_with_private_keyEPK19eap_variable_data_c12eap_status_e @ 903 NONAME
	_ZThn12_N12tls_record_c45complete_query_ttls_pap_username_and_passwordEPK19eap_variable_data_cS2_12eap_status_e @ 904 NONAME
	_ZThn12_N12tls_record_c46complete_verify_ttls_pap_username_and_passwordE12eap_status_ePK19eap_variable_data_c @ 905 NONAME
	_ZThn12_N12tls_record_c48complete_query_certificate_authorities_and_typesEPK11eap_array_cI19eap_variable_data_cEPKS0_IhE12eap_status_e @ 906 NONAME
	_ZThn12_N12tls_record_c49complete_query_cipher_suites_and_previous_sessionE18tls_session_type_ePK11eap_array_cItEPKS1_IhEPK19eap_variable_data_cSA_19tls_cipher_suites_e12eap_status_e @ 907 NONAME
	_ZThn12_N12tls_record_c49complete_select_cipher_suite_and_check_session_idE18tls_session_type_etPK19eap_variable_data_cS3_12eap_status_e @ 908 NONAME
	_ZThn12_N12tls_record_c9configureEv @ 909 NONAME
	_ZThn12_N12tls_record_cD0Ev @ 910 NONAME
	_ZThn12_N12tls_record_cD1Ev @ 911 NONAME
	_ZThn12_N16dummy_eap_core_c12get_is_validEv @ 912 NONAME
	_ZThn12_N16dummy_eap_core_c12set_is_validEv @ 913 NONAME
	_ZThn12_N16dummy_eap_core_c14packet_processEPK19eap_am_network_id_cP25eap_general_header_base_cm @ 914 NONAME
	_ZThn12_N16dummy_eap_core_c8shutdownEv @ 915 NONAME
	_ZThn12_N16dummy_eap_core_c9configureEv @ 916 NONAME
	_ZThn12_N16dummy_eap_core_cD0Ev @ 917 NONAME
	_ZThn12_N16dummy_eap_core_cD1Ev @ 918 NONAME
	_ZThn16_N12tls_record_c19message_hash_updateEb20tls_handshake_type_ePhm @ 919 NONAME
	_ZThn16_N12tls_record_c26message_hash_save_finishedEb @ 920 NONAME
	_ZThn16_N12tls_record_c28message_hash_create_finishedEbP19eap_variable_data_c @ 921 NONAME
	_ZThn16_N12tls_record_c36message_hash_save_certificate_verifyEv @ 922 NONAME
	_ZThn16_N12tls_record_cD0Ev @ 923 NONAME
	_ZThn16_N12tls_record_cD1Ev @ 924 NONAME
	_ZThn20_N12tls_record_c18change_cipher_specEb @ 925 NONAME
	_ZThn20_N12tls_record_cD0Ev @ 926 NONAME
	_ZThn20_N12tls_record_cD1Ev @ 927 NONAME
	_ZThn20_N19eap_type_tls_peap_c13get_is_clientEv @ 928 NONAME
	_ZThn20_N19eap_type_tls_peap_c27complete_eap_identity_queryEPK19eap_variable_data_cPK19eap_am_network_id_ch12eap_status_ebS2_bS2_ @ 929 NONAME
	_ZThn20_N19eap_type_tls_peap_cD0Ev @ 930 NONAME
	_ZThn20_N19eap_type_tls_peap_cD1Ev @ 931 NONAME
	_ZThn24_N12tls_record_c23apply_send_cipher_suiteEP19eap_variable_data_c @ 932 NONAME
	_ZThn24_N12tls_record_cD0Ev @ 933 NONAME
	_ZThn24_N12tls_record_cD1Ev @ 934 NONAME
	_ZThn24_N19eap_type_tls_peap_c11load_moduleE19eap_expanded_type_cS0_P19abs_eap_base_type_cPP15eap_base_type_cbPK19eap_am_network_id_c @ 935 NONAME
	_ZThn24_N19eap_type_tls_peap_c12add_rogue_apER11eap_array_cI20eap_rogue_ap_entry_cE @ 936 NONAME
	_ZThn24_N19eap_type_tls_peap_c12cancel_timerEP20abs_eap_base_timer_cm @ 937 NONAME
	_ZThn24_N19eap_type_tls_peap_c13unload_moduleE19eap_expanded_type_c @ 938 NONAME
	_ZThn24_N19eap_type_tls_peap_c14read_configureEPK25eap_configuration_field_cP19eap_variable_data_c @ 939 NONAME
	_ZThn24_N19eap_type_tls_peap_c15write_configureEPK25eap_configuration_field_cP19eap_variable_data_c @ 940 NONAME
	_ZThn24_N19eap_type_tls_peap_c17get_eap_type_listEP11eap_array_cI19eap_expanded_type_cE @ 941 NONAME
	_ZThn24_N19eap_type_tls_peap_c17get_header_offsetEPmS0_ @ 942 NONAME
	_ZThn24_N19eap_type_tls_peap_c17peap_tunnel_readyEv @ 943 NONAME
	_ZThn24_N19eap_type_tls_peap_c18state_notificationEPK28abs_eap_state_notification_c @ 944 NONAME
	_ZThn24_N19eap_type_tls_peap_c19set_session_timeoutEm @ 945 NONAME
	_ZThn24_N19eap_type_tls_peap_c20set_tls_session_typeE18tls_session_type_e @ 946 NONAME
	_ZThn24_N19eap_type_tls_peap_c20tls_peap_packet_sendEP18eap_buf_chain_wr_cmmmb @ 947 NONAME
	_ZThn24_N19eap_type_tls_peap_c21set_tls_master_secretEPK19eap_variable_data_c @ 948 NONAME
	_ZThn24_N19eap_type_tls_peap_c22restart_authenticationEPK19eap_am_network_id_cbbb @ 949 NONAME
	_ZThn24_N19eap_type_tls_peap_c23check_is_valid_eap_typeE19eap_expanded_type_c @ 950 NONAME
	_ZThn24_N19eap_type_tls_peap_c23packet_data_crypto_keysEPK19eap_am_network_id_cPK24eap_master_session_key_c @ 951 NONAME
	_ZThn24_N19eap_type_tls_peap_c9set_timerEP20abs_eap_base_timer_cmPvm @ 952 NONAME
	_ZThn24_N19eap_type_tls_peap_cD0Ev @ 953 NONAME
	_ZThn24_N19eap_type_tls_peap_cD1Ev @ 954 NONAME
	_ZThn28_N12tls_record_c11load_moduleE19eap_expanded_type_cS0_P19abs_eap_base_type_cPP15eap_base_type_cbPK19eap_am_network_id_c @ 955 NONAME
	_ZThn28_N12tls_record_c11packet_sendEP18eap_buf_chain_wr_cmmm @ 956 NONAME
	_ZThn28_N12tls_record_c12add_rogue_apER11eap_array_cI20eap_rogue_ap_entry_cE @ 957 NONAME
	_ZThn28_N12tls_record_c12cancel_timerEP20abs_eap_base_timer_cm @ 958 NONAME
	_ZThn28_N12tls_record_c13unload_moduleE19eap_expanded_type_c @ 959 NONAME
	_ZThn28_N12tls_record_c14read_configureEPK25eap_configuration_field_cP19eap_variable_data_c @ 960 NONAME
	_ZThn28_N12tls_record_c15write_configureEPK25eap_configuration_field_cP19eap_variable_data_c @ 961 NONAME
	_ZThn28_N12tls_record_c17get_eap_type_listEP11eap_array_cI19eap_expanded_type_cE @ 962 NONAME
	_ZThn28_N12tls_record_c17get_header_offsetEPmS0_ @ 963 NONAME
	_ZThn28_N12tls_record_c18state_notificationEPK28abs_eap_state_notification_c @ 964 NONAME
	_ZThn28_N12tls_record_c19set_session_timeoutEm @ 965 NONAME
	_ZThn28_N12tls_record_c22restart_authenticationEPK19eap_am_network_id_cbbb @ 966 NONAME
	_ZThn28_N12tls_record_c23check_is_valid_eap_typeE19eap_expanded_type_c @ 967 NONAME
	_ZThn28_N12tls_record_c23packet_data_crypto_keysEPK19eap_am_network_id_cPK24eap_master_session_key_c @ 968 NONAME
	_ZThn28_N12tls_record_c27get_ttls_implicit_challengeEP19eap_variable_data_cm @ 969 NONAME
	_ZThn28_N12tls_record_c30get_eap_tls_master_session_keyEP19eap_variable_data_cS1_ @ 970 NONAME
	_ZThn28_N12tls_record_c35get_next_tls_handshake_message_typeEv @ 971 NONAME
	_ZThn28_N12tls_record_c36get_next_tls_record_message_protocolEv @ 972 NONAME
	_ZThn28_N12tls_record_c36query_ttls_pap_username_and_passwordEPK19eap_variable_data_c @ 973 NONAME
	_ZThn28_N12tls_record_c37verify_ttls_pap_username_and_passwordEPK19eap_variable_data_cS2_ @ 974 NONAME
	_ZThn28_N12tls_record_c9set_timerEP20abs_eap_base_timer_cmPvm @ 975 NONAME
	_ZThn28_N12tls_record_cD0Ev @ 976 NONAME
	_ZThn28_N12tls_record_cD1Ev @ 977 NONAME
	_ZThn28_N30eap_am_type_tls_peap_symbian_c11query_realmEPK11eap_array_cI19eap_variable_data_cE @ 978 NONAME
	_ZThn28_N30eap_am_type_tls_peap_symbian_c12get_is_validEv @ 979 NONAME
	_ZThn28_N30eap_am_type_tls_peap_symbian_c14alert_receivedE17tls_alert_level_e23tls_alert_description_e @ 980 NONAME
	_ZThn28_N30eap_am_type_tls_peap_symbian_c16save_tls_sessionEPK19eap_variable_data_cS2_19tls_cipher_suites_e @ 981 NONAME
	_ZThn28_N30eap_am_type_tls_peap_symbian_c16set_peap_versionE14peap_version_ebb @ 982 NONAME
	_ZThn28_N30eap_am_type_tls_peap_symbian_c17get_eap_type_listEP11eap_array_cI19eap_expanded_type_cE @ 983 NONAME
	_ZThn28_N30eap_am_type_tls_peap_symbian_c18cancel_query_realmEv @ 984 NONAME
	_ZThn28_N30eap_am_type_tls_peap_symbian_c18get_tls_am_partnerEv @ 985 NONAME
	_ZThn28_N30eap_am_type_tls_peap_symbian_c18query_eap_identityEP19eap_variable_data_cPK19eap_am_network_id_chPbS1_S5_S1_ @ 986 NONAME
	_ZThn28_N30eap_am_type_tls_peap_symbian_c18set_tls_am_partnerEP21abs_tls_am_services_c @ 987 NONAME
	_ZThn28_N30eap_am_type_tls_peap_symbian_c19query_dh_parametersEPK11eap_array_cI19eap_variable_data_cE19tls_cipher_suites_e @ 988 NONAME
	_ZThn28_N30eap_am_type_tls_peap_symbian_c19type_configure_readEPK25eap_configuration_field_cP19eap_variable_data_c @ 989 NONAME
	_ZThn28_N30eap_am_type_tls_peap_symbian_c20type_configure_writeEPK25eap_configuration_field_cP19eap_variable_data_c @ 990 NONAME
	_ZThn28_N30eap_am_type_tls_peap_symbian_c21cancel_identity_queryEv @ 991 NONAME
	_ZThn28_N30eap_am_type_tls_peap_symbian_c21sign_with_private_keyEPK19eap_variable_data_c @ 992 NONAME
	_ZThn28_N30eap_am_type_tls_peap_symbian_c22verify_with_public_keyEPK19eap_variable_data_cS2_ @ 993 NONAME
	_ZThn28_N30eap_am_type_tls_peap_symbian_c23authentication_finishedEb18tls_session_type_e @ 994 NONAME
	_ZThn28_N30eap_am_type_tls_peap_symbian_c23query_certificate_chainEPK11eap_array_cI19eap_variable_data_cEPKS0_IhE19tls_cipher_suites_e @ 995 NONAME
	_ZThn28_N30eap_am_type_tls_peap_symbian_c24verify_certificate_chainEPK11eap_array_cI19eap_variable_data_cE19tls_cipher_suites_e @ 996 NONAME
	_ZThn28_N30eap_am_type_tls_peap_symbian_c25is_ttls_pap_session_validEv @ 997 NONAME
	_ZThn28_N30eap_am_type_tls_peap_symbian_c26cancel_query_dh_parametersEv @ 998 NONAME
	_ZThn28_N30eap_am_type_tls_peap_symbian_c27rsa_encrypt_with_public_keyEPK19eap_variable_data_c @ 999 NONAME
	_ZThn28_N30eap_am_type_tls_peap_symbian_c28cancel_sign_with_private_keyEv @ 1000 NONAME
	_ZThn28_N30eap_am_type_tls_peap_symbian_c28rsa_decrypt_with_private_keyEPK19eap_variable_data_c @ 1001 NONAME
	_ZThn28_N30eap_am_type_tls_peap_symbian_c29cancel_verify_with_public_keyEv @ 1002 NONAME
	_ZThn28_N30eap_am_type_tls_peap_symbian_c30cancel_query_certificate_chainEv @ 1003 NONAME
	_ZThn28_N30eap_am_type_tls_peap_symbian_c31cancel_verify_certificate_chainEv @ 1004 NONAME
	_ZThn28_N30eap_am_type_tls_peap_symbian_c34cancel_rsa_encrypt_with_public_keyEv @ 1005 NONAME
	_ZThn28_N30eap_am_type_tls_peap_symbian_c35cancel_rsa_decrypt_with_private_keyEv @ 1006 NONAME
	_ZThn28_N30eap_am_type_tls_peap_symbian_c36query_ttls_pap_username_and_passwordEPK19eap_variable_data_c @ 1007 NONAME
	_ZThn28_N30eap_am_type_tls_peap_symbian_c39query_certificate_authorities_and_typesEv @ 1008 NONAME
	_ZThn28_N30eap_am_type_tls_peap_symbian_c40query_cipher_suites_and_previous_sessionEv @ 1009 NONAME
	_ZThn28_N30eap_am_type_tls_peap_symbian_c40select_cipher_suite_and_check_session_idEPK11eap_array_cItEPK19eap_variable_data_c @ 1010 NONAME
	_ZThn28_N30eap_am_type_tls_peap_symbian_c46cancel_query_certificate_authorities_and_typesEv @ 1011 NONAME
	_ZThn28_N30eap_am_type_tls_peap_symbian_c47cancel_query_cipher_suites_and_previous_sessionEv @ 1012 NONAME
	_ZThn28_N30eap_am_type_tls_peap_symbian_c47cancel_select_cipher_suite_and_check_session_idEv @ 1013 NONAME
	_ZThn28_N30eap_am_type_tls_peap_symbian_c5resetEv @ 1014 NONAME
	_ZThn28_N30eap_am_type_tls_peap_symbian_c8shutdownEv @ 1015 NONAME
	_ZThn28_N30eap_am_type_tls_peap_symbian_c9configureEv @ 1016 NONAME
	_ZThn28_N30eap_am_type_tls_peap_symbian_cD0Ev @ 1017 NONAME
	_ZThn28_N30eap_am_type_tls_peap_symbian_cD1Ev @ 1018 NONAME
	_ZThn32_N30eap_am_type_tls_peap_symbian_c13timer_expiredEmPv @ 1019 NONAME
	_ZThn32_N30eap_am_type_tls_peap_symbian_c17timer_delete_dataEmPv @ 1020 NONAME
	_ZThn32_N30eap_am_type_tls_peap_symbian_cD0Ev @ 1021 NONAME
	_ZThn32_N30eap_am_type_tls_peap_symbian_cD1Ev @ 1022 NONAME
	_ZThn36_N30eap_am_type_tls_peap_symbian_c11DlgCompleteEi @ 1023 NONAME
	_ZThn4_N16dummy_eap_core_c11load_moduleE19eap_expanded_type_cS0_P19abs_eap_base_type_cPP15eap_base_type_cbPK19eap_am_network_id_c @ 1024 NONAME
	_ZThn4_N16dummy_eap_core_c11packet_sendEPK19eap_am_network_id_cP18eap_buf_chain_wr_cmmm @ 1025 NONAME
	_ZThn4_N16dummy_eap_core_c12add_rogue_apER11eap_array_cI20eap_rogue_ap_entry_cE @ 1026 NONAME
	_ZThn4_N16dummy_eap_core_c12cancel_timerEP20abs_eap_base_timer_cm @ 1027 NONAME
	_ZThn4_N16dummy_eap_core_c13unload_moduleE19eap_expanded_type_c @ 1028 NONAME
	_ZThn4_N16dummy_eap_core_c14read_configureEPK25eap_configuration_field_cP19eap_variable_data_c @ 1029 NONAME
	_ZThn4_N16dummy_eap_core_c15write_configureEPK25eap_configuration_field_cP19eap_variable_data_c @ 1030 NONAME
	_ZThn4_N16dummy_eap_core_c17get_eap_type_listEP11eap_array_cI19eap_expanded_type_cE @ 1031 NONAME
	_ZThn4_N16dummy_eap_core_c17get_header_offsetEPmS0_ @ 1032 NONAME
	_ZThn4_N16dummy_eap_core_c18state_notificationEPK28abs_eap_state_notification_c @ 1033 NONAME
	_ZThn4_N16dummy_eap_core_c19set_session_timeoutEm @ 1034 NONAME
	_ZThn4_N16dummy_eap_core_c22get_saved_eap_identityEP19eap_variable_data_c @ 1035 NONAME
	_ZThn4_N16dummy_eap_core_c22restart_authenticationEPK19eap_am_network_id_cb @ 1036 NONAME
	_ZThn4_N16dummy_eap_core_c23check_is_valid_eap_typeE19eap_expanded_type_c @ 1037 NONAME
	_ZThn4_N16dummy_eap_core_c23packet_data_crypto_keysEPK19eap_am_network_id_cPK24eap_master_session_key_c @ 1038 NONAME
	_ZThn4_N16dummy_eap_core_c23set_authentication_roleEb @ 1039 NONAME
	_ZThn4_N16dummy_eap_core_c27complete_eap_identity_queryEPK19eap_am_network_id_cPK19eap_variable_data_ch @ 1040 NONAME
	_ZThn4_N16dummy_eap_core_c9set_timerEP20abs_eap_base_timer_cmPvm @ 1041 NONAME
	_ZThn4_N16dummy_eap_core_cD0Ev @ 1042 NONAME
	_ZThn4_N16dummy_eap_core_cD1Ev @ 1043 NONAME
	_ZThn4_N19eap_type_tls_peap_c12get_is_validEv @ 1044 NONAME
	_ZThn4_N19eap_type_tls_peap_c12set_is_validEv @ 1045 NONAME
	_ZThn4_N19eap_type_tls_peap_c14packet_processEPK19eap_am_network_id_cP15eap_header_wr_cm @ 1046 NONAME
	_ZThn4_N19eap_type_tls_peap_c15eap_acknowledgeEPK19eap_am_network_id_c @ 1047 NONAME
	_ZThn4_N19eap_type_tls_peap_c18query_eap_identityEbP19eap_variable_data_cPK19eap_am_network_id_ch @ 1048 NONAME
	_ZThn4_N19eap_type_tls_peap_c26set_initial_eap_identifierEPK19eap_am_network_id_ch @ 1049 NONAME
	_ZThn4_N19eap_type_tls_peap_c5resetEv @ 1050 NONAME
	_ZThn4_N19eap_type_tls_peap_c8shutdownEv @ 1051 NONAME
	_ZThn4_N19eap_type_tls_peap_c9configureEv @ 1052 NONAME
	_ZThn4_N19eap_type_tls_peap_cD0Ev @ 1053 NONAME
	_ZThn4_N19eap_type_tls_peap_cD1Ev @ 1054 NONAME
	_ZThn4_N26tls_application_eap_core_c11load_moduleE19eap_expanded_type_cS0_P19abs_eap_base_type_cPP15eap_base_type_cbPK19eap_am_network_id_c @ 1055 NONAME
	_ZThn4_N26tls_application_eap_core_c11packet_sendEPK19eap_am_network_id_cP18eap_buf_chain_wr_cmmm @ 1056 NONAME
	_ZThn4_N26tls_application_eap_core_c12add_rogue_apER11eap_array_cI20eap_rogue_ap_entry_cE @ 1057 NONAME
	_ZThn4_N26tls_application_eap_core_c12cancel_timerEP20abs_eap_base_timer_cm @ 1058 NONAME
	_ZThn4_N26tls_application_eap_core_c13unload_moduleE19eap_expanded_type_c @ 1059 NONAME
	_ZThn4_N26tls_application_eap_core_c14read_configureEPK25eap_configuration_field_cP19eap_variable_data_c @ 1060 NONAME
	_ZThn4_N26tls_application_eap_core_c15write_configureEPK25eap_configuration_field_cP19eap_variable_data_c @ 1061 NONAME
	_ZThn4_N26tls_application_eap_core_c17get_eap_type_listEP11eap_array_cI19eap_expanded_type_cE @ 1062 NONAME
	_ZThn4_N26tls_application_eap_core_c17get_header_offsetEPmS0_ @ 1063 NONAME
	_ZThn4_N26tls_application_eap_core_c18state_notificationEPK28abs_eap_state_notification_c @ 1064 NONAME
	_ZThn4_N26tls_application_eap_core_c19set_session_timeoutEm @ 1065 NONAME
	_ZThn4_N26tls_application_eap_core_c22restart_authenticationEPK19eap_am_network_id_cbbb @ 1066 NONAME
	_ZThn4_N26tls_application_eap_core_c23check_is_valid_eap_typeE19eap_expanded_type_c @ 1067 NONAME
	_ZThn4_N26tls_application_eap_core_c23packet_data_crypto_keysEPK19eap_am_network_id_cPK24eap_master_session_key_c @ 1068 NONAME
	_ZThn4_N26tls_application_eap_core_c36asynchronous_init_remove_eap_sessionEPK19eap_am_network_id_c @ 1069 NONAME
	_ZThn4_N26tls_application_eap_core_c9set_timerEP20abs_eap_base_timer_cmPvm @ 1070 NONAME
	_ZThn4_N26tls_application_eap_core_cD0Ev @ 1071 NONAME
	_ZThn4_N26tls_application_eap_core_cD1Ev @ 1072 NONAME
	_ZThn4_NK16dummy_eap_core_c19get_is_tunneled_eapEv @ 1073 NONAME
	_ZThn8_N16dummy_eap_core_c13timer_expiredEmPv @ 1074 NONAME
	_ZThn8_N16dummy_eap_core_c17timer_delete_dataEmPv @ 1075 NONAME
	_ZThn8_N16dummy_eap_core_cD0Ev @ 1076 NONAME
	_ZThn8_N16dummy_eap_core_cD1Ev @ 1077 NONAME

