EXPORTS
	_Z24ImplementationGroupProxyRi @ 1 NONAME
	_Z30new_eap_am_client_message_if_cP18abs_eap_am_tools_cbm @ 2 NONAME
	_ZN17CEapCoreInterface11set_partnerEP23abs_eap_am_message_if_c @ 3 NONAME
	_ZN17CEapCoreInterface12get_is_validEv @ 4 NONAME
	_ZN17CEapCoreInterface12process_dataEPKvm @ 5 NONAME
	_ZN17CEapCoreInterface8SendDataEPKvi @ 6 NONAME
	_ZN17CEapCoreInterface8shutdownEv @ 7 NONAME
	_ZN17CEapCoreInterface9ConstrucLEP18abs_eap_am_tools_c @ 8 NONAME
	_ZN17CEapCoreInterface9configureEPK19eap_variable_data_c @ 9 NONAME
	_ZN28eap_core_client_message_if_c12get_is_validEv @ 10 NONAME
	_ZN28eap_core_client_message_if_c12set_is_validEv @ 11 NONAME
	_ZN28eap_core_client_message_if_c13timer_expiredEmPv @ 12 NONAME
	_ZN28eap_core_client_message_if_c14packet_processEPK19eap_am_network_id_cP25eap_general_header_base_cm @ 13 NONAME
	_ZN28eap_core_client_message_if_c15eap_acknowledgeEPK19eap_am_network_id_c @ 14 NONAME
	_ZN28eap_core_client_message_if_c15process_messageEP30eap_process_tlv_message_data_c @ 15 NONAME
	_ZN28eap_core_client_message_if_c17timer_delete_dataEmPv @ 16 NONAME
	_ZN28eap_core_client_message_if_c18create_eap_sessionEPK19eap_am_network_id_c @ 17 NONAME
	_ZN28eap_core_client_message_if_c18remove_eap_sessionEbPK19eap_am_network_id_c @ 18 NONAME
	_ZN28eap_core_client_message_if_c23cancel_all_eap_sessionsEv @ 19 NONAME
	_ZN28eap_core_client_message_if_c25send_eap_identity_requestEPK19eap_am_network_id_c @ 20 NONAME
	_ZN28eap_core_client_message_if_c30get_802_11_authentication_modeEPK19eap_am_network_id_c31eapol_key_authentication_type_ePK19eap_variable_data_cS6_ @ 21 NONAME
	_ZN28eap_core_client_message_if_c33set_eap_database_reference_valuesEPK19eap_variable_data_c @ 22 NONAME
	_ZN28eap_core_client_message_if_c5resetEv @ 23 NONAME
	_ZN28eap_core_client_message_if_c8shutdownEv @ 24 NONAME
	_ZN28eap_core_client_message_if_c9configureEv @ 25 NONAME
	_ZN28eap_core_client_message_if_c9send_dataEPKvm @ 26 NONAME
	_ZN28eap_core_client_message_if_cC1EP18abs_eap_am_tools_cP19eap_am_message_if_cP22abs_eap_session_core_cb @ 27 NONAME
	_ZN28eap_core_client_message_if_cC2EP18abs_eap_am_tools_cP19eap_am_message_if_cP22abs_eap_session_core_cb @ 28 NONAME
	_ZN28eap_core_client_message_if_cD0Ev @ 29 NONAME
	_ZN28eap_core_client_message_if_cD1Ev @ 30 NONAME
	_ZN28eap_core_client_message_if_cD2Ev @ 31 NONAME
	_ZTI17CEapCoreInterface @ 32 NONAME
	_ZTI21CEapVpnInterfaceTimer @ 33 NONAME
	_ZTI28eap_core_client_message_if_c @ 34 NONAME
	_ZTI30CEapVpnInterfaceImplementation @ 35 NONAME
	_ZTV17CEapCoreInterface @ 36 NONAME
	_ZTV21CEapVpnInterfaceTimer @ 37 NONAME
	_ZTV28eap_core_client_message_if_c @ 38 NONAME
	_ZTV30CEapVpnInterfaceImplementation @ 39 NONAME
	_ZThn12_N28eap_core_client_message_if_c12get_is_validEv @ 40 NONAME
	_ZThn12_N28eap_core_client_message_if_c12set_is_validEv @ 41 NONAME
	_ZThn12_N28eap_core_client_message_if_c14packet_processEPK19eap_am_network_id_cP25eap_general_header_base_cm @ 42 NONAME
	_ZThn12_N28eap_core_client_message_if_c8shutdownEv @ 43 NONAME
	_ZThn12_N28eap_core_client_message_if_c9configureEv @ 44 NONAME
	_ZThn12_N28eap_core_client_message_if_cD0Ev @ 45 NONAME
	_ZThn12_N28eap_core_client_message_if_cD1Ev @ 46 NONAME
	_ZThn4_N17CEapCoreInterface8SendDataEPKvi @ 47 NONAME
	_ZThn4_N28eap_core_client_message_if_c12get_is_validEv @ 48 NONAME
	_ZThn4_N28eap_core_client_message_if_c14packet_processEPK19eap_am_network_id_cP25eap_general_header_base_cm @ 49 NONAME
	_ZThn4_N28eap_core_client_message_if_c15eap_acknowledgeEPK19eap_am_network_id_c @ 50 NONAME
	_ZThn4_N28eap_core_client_message_if_c18create_eap_sessionEPK19eap_am_network_id_c @ 51 NONAME
	_ZThn4_N28eap_core_client_message_if_c18remove_eap_sessionEbPK19eap_am_network_id_c @ 52 NONAME
	_ZThn4_N28eap_core_client_message_if_c23cancel_all_eap_sessionsEv @ 53 NONAME
	_ZThn4_N28eap_core_client_message_if_c25send_eap_identity_requestEPK19eap_am_network_id_c @ 54 NONAME
	_ZThn4_N28eap_core_client_message_if_c30get_802_11_authentication_modeEPK19eap_am_network_id_c31eapol_key_authentication_type_ePK19eap_variable_data_cS6_ @ 55 NONAME
	_ZThn4_N28eap_core_client_message_if_c33set_eap_database_reference_valuesEPK19eap_variable_data_c @ 56 NONAME
	_ZThn4_N28eap_core_client_message_if_c5resetEv @ 57 NONAME
	_ZThn4_N28eap_core_client_message_if_c8shutdownEv @ 58 NONAME
	_ZThn4_N28eap_core_client_message_if_c9configureEv @ 59 NONAME
	_ZThn4_N28eap_core_client_message_if_cD0Ev @ 60 NONAME
	_ZThn4_N28eap_core_client_message_if_cD1Ev @ 61 NONAME
	_ZThn8_N17CEapCoreInterface11set_partnerEP23abs_eap_am_message_if_c @ 62 NONAME
	_ZThn8_N17CEapCoreInterface12get_is_validEv @ 63 NONAME
	_ZThn8_N17CEapCoreInterface12process_dataEPKvm @ 64 NONAME
	_ZThn8_N17CEapCoreInterface8shutdownEv @ 65 NONAME
	_ZThn8_N17CEapCoreInterface9configureEPK19eap_variable_data_c @ 66 NONAME
	_ZThn8_N28eap_core_client_message_if_c13timer_expiredEmPv @ 67 NONAME
	_ZThn8_N28eap_core_client_message_if_c17timer_delete_dataEmPv @ 68 NONAME
	_ZThn8_N28eap_core_client_message_if_cD0Ev @ 69 NONAME
	_ZThn8_N28eap_core_client_message_if_cD1Ev @ 70 NONAME

