EXPORTS
	?setSelectedOuterTypes@EapQtConfigInterface@@QBE_NABV?$QList@VEapQtPluginHandle@@@@@Z @ 1 NONAME ; bool EapQtConfigInterface::setSelectedOuterTypes(class QList<class EapQtPluginHandle> const &) const
	??0EapQtConfigInterface@@QAE@W4EapBearerType@0@H@Z @ 2 NONAME ; EapQtConfigInterface::EapQtConfigInterface(enum EapQtConfigInterface::EapBearerType, int)
	?userCertificates@EapQtConfigInterface@@QBE?AV?$QList@VEapQtCertificateInfo@@@@XZ @ 3 NONAME ; class QList<class EapQtCertificateInfo> EapQtConfigInterface::userCertificates(void) const
	?isSupportedOuterType@EapQtConfigInterface@@QBE_NABVEapQtPluginHandle@@@Z @ 4 NONAME ; bool EapQtConfigInterface::isSupportedOuterType(class EapQtPluginHandle const &) const
	?setValue@EapQtCertificateInfo@@QAEXW4ItemId@1@VQVariant@@@Z @ 5 NONAME ; void EapQtCertificateInfo::setValue(enum EapQtCertificateInfo::ItemId, class QVariant)
	??0EapQtConfig@@QAE@XZ @ 6 NONAME ; EapQtConfig::EapQtConfig(void)
	?value@EapQtConfig@@QAE?AVQVariant@@W4SettingsId@1@@Z @ 7 NONAME ; class QVariant EapQtConfig::value(enum EapQtConfig::SettingsId)
	??0EapQtValidator@@QAE@XZ @ 8 NONAME ; EapQtValidator::EapQtValidator(void)
	?readConfiguration@EapQtConfigInterface@@QBE_NABVEapQtPluginHandle@@0AAVEapQtConfig@@@Z @ 9 NONAME ; bool EapQtConfigInterface::readConfiguration(class EapQtPluginHandle const &, class EapQtPluginHandle const &, class EapQtConfig &) const
	??1EapQtConfigInterface@@QAE@XZ @ 10 NONAME ; EapQtConfigInterface::~EapQtConfigInterface(void)
	??0EapQtConfigInterface@@QAE@XZ @ 11 NONAME ; EapQtConfigInterface::EapQtConfigInterface(void)
	?validatorEap@EapQtConfigInterface@@QAEPAVEapQtValidator@@VEapQtExpandedEapType@@W4SettingsId@EapQtConfig@@@Z @ 12 NONAME ; class EapQtValidator * EapQtConfigInterface::validatorEap(class EapQtExpandedEapType, enum EapQtConfig::SettingsId)
	??1EapQtCertificateInfo@@QAE@XZ @ 13 NONAME ; EapQtCertificateInfo::~EapQtCertificateInfo(void)
	??0EapQtCertificateInfo@@QAE@XZ @ 14 NONAME ; EapQtCertificateInfo::EapQtCertificateInfo(void)
	?certificateAuthorityCertificates@EapQtConfigInterface@@QBE?AV?$QList@VEapQtCertificateInfo@@@@XZ @ 15 NONAME ; class QList<class EapQtCertificateInfo> EapQtConfigInterface::certificateAuthorityCertificates(void) const
	?supportedInnerTypes@EapQtConfigInterface@@QBE?AV?$QList@VEapQtPluginInfo@@@@VEapQtPluginHandle@@@Z @ 16 NONAME ; class QList<class EapQtPluginInfo> EapQtConfigInterface::supportedInnerTypes(class EapQtPluginHandle) const
	?isSupportedInnerType@EapQtConfigInterface@@QBE_NABVEapQtPluginHandle@@0@Z @ 17 NONAME ; bool EapQtConfigInterface::isSupportedInnerType(class EapQtPluginHandle const &, class EapQtPluginHandle const &) const
	?value@EapQtCertificateInfo@@QBE?AVQVariant@@W4ItemId@1@@Z @ 18 NONAME ; class QVariant EapQtCertificateInfo::value(enum EapQtCertificateInfo::ItemId) const
	?supportedOuterTypes@EapQtConfigInterface@@QBE?AV?$QList@VEapQtPluginInfo@@@@XZ @ 19 NONAME ; class QList<class EapQtPluginInfo> EapQtConfigInterface::supportedOuterTypes(void) const
	?saveConfiguration@EapQtConfigInterface@@QBE_NABVEapQtPluginHandle@@AAVEapQtConfig@@@Z @ 20 NONAME ; bool EapQtConfigInterface::saveConfiguration(class EapQtPluginHandle const &, class EapQtConfig &) const
	?setValue@EapQtConfig@@QAEXW4SettingsId@1@VQVariant@@@Z @ 21 NONAME ; void EapQtConfig::setValue(enum EapQtConfig::SettingsId, class QVariant)
	??1EapQtValidator@@UAE@XZ @ 22 NONAME ; EapQtValidator::~EapQtValidator(void)
	??4EapQtCertificateInfo@@QAEAAV0@ABV0@@Z @ 23 NONAME ; class EapQtCertificateInfo & EapQtCertificateInfo::operator=(class EapQtCertificateInfo const &)
	?setConfigurationReference@EapQtConfigInterface@@QBE_NH@Z @ 24 NONAME ; bool EapQtConfigInterface::setConfigurationReference(int) const
	??0EapQtCertificateInfo@@QAE@ABV0@@Z @ 25 NONAME ; EapQtCertificateInfo::EapQtCertificateInfo(class EapQtCertificateInfo const &)
	??_EEapQtValidator@@UAE@I@Z @ 26 NONAME ; EapQtValidator::~EapQtValidator(unsigned int)
	??1EapQtConfig@@QAE@XZ @ 27 NONAME ; EapQtConfig::~EapQtConfig(void)
	?clear@EapQtConfig@@QAEXXZ @ 28 NONAME ; void EapQtConfig::clear(void)
	?validate@EapQtConfig@@QAE?AV?$QList@W4SettingsId@EapQtConfig@@@@V2@@Z @ 29 NONAME ; class QList<enum EapQtConfig::SettingsId> EapQtConfig::validate(class QList<enum EapQtConfig::SettingsId>)
	?selectedOuterTypes@EapQtConfigInterface@@QBE?AV?$QList@VEapQtPluginHandle@@@@XZ @ 30 NONAME ; class QList<class EapQtPluginHandle> EapQtConfigInterface::selectedOuterTypes(void) const
	?uiInstance@EapQtConfigInterface@@QBEPAVCpBaseSettingView@@ABVEapQtPluginHandle@@0@Z @ 31 NONAME ; class CpBaseSettingView * EapQtConfigInterface::uiInstance(class EapQtPluginHandle const &, class EapQtPluginHandle const &) const
	?deleteConfiguration@EapQtConfigInterface@@QBE_NXZ @ 32 NONAME ; bool EapQtConfigInterface::deleteConfiguration(void) const

