EXPORTS
	_Z10eap_htonlly @ 1 NONAME
	_Z21eap_shift_left_64_bitym @ 2 NONAME
	_Z22eap_shift_right_64_bitym @ 3 NONAME
	_Z25convert_eap_type_to_u32_t19eap_expanded_type_c @ 4 NONAME
	_Z25convert_eap_type_to_u64_t19eap_expanded_type_c @ 5 NONAME
	_Z28eap_read_u16_t_network_orderPKvm @ 6 NONAME
	_Z28eap_read_u24_t_network_orderPKvm @ 7 NONAME
	_Z28eap_read_u32_t_network_orderPKvm @ 8 NONAME
	_Z28eap_read_u64_t_network_orderPKvm @ 9 NONAME
	_Z29eap_write_u16_t_network_orderPvmt @ 10 NONAME
	_Z29eap_write_u24_t_network_orderPvmm @ 11 NONAME
	_Z29eap_write_u32_t_network_orderPvmm @ 12 NONAME
	_Z29eap_write_u64_t_network_orderPvmy @ 13 NONAME
	_Z30eap_host_to_little_endian_longm @ 14 NONAME
	_Z31eap_host_to_little_endian_shortt @ 15 NONAME
	_Z34eap_read_u16_t_little_endian_orderPKvm @ 16 NONAME
	_Z34eap_read_u32_t_little_endian_orderPKvm @ 17 NONAME
	_Z34eap_read_u64_t_little_endian_orderPKvm @ 18 NONAME
	_Z35eap_host_to_little_endian_long_longy @ 19 NONAME
	_Z35eap_write_u16_t_little_endian_orderPvmt @ 20 NONAME
	_Z35eap_write_u32_t_little_endian_orderPvmm @ 21 NONAME
	_Z35eap_write_u64_t_little_endian_orderPvmy @ 22 NONAME
	_Z9eap_htonlm @ 23 NONAME
	_Z9eap_htonst @ 24 NONAME
	_ZN10eap_core_c11get_partnerEv @ 25 NONAME
	_ZN10eap_core_c11load_moduleE19eap_expanded_type_cS0_P19abs_eap_base_type_cPP15eap_base_type_cbPK19eap_am_network_id_c @ 26 NONAME
	_ZN10eap_core_c11packet_sendEPK19eap_am_network_id_cP18eap_buf_chain_wr_cmmm @ 27 NONAME
	_ZN10eap_core_c11set_partnerEP14abs_eap_core_c @ 28 NONAME
	_ZN10eap_core_c12add_rogue_apER11eap_array_cI20eap_rogue_ap_entry_cE @ 29 NONAME
	_ZN10eap_core_c12cancel_timerEP20abs_eap_base_timer_cm @ 30 NONAME
	_ZN10eap_core_c12get_is_validEv @ 31 NONAME
	_ZN10eap_core_c12set_is_validEv @ 32 NONAME
	_ZN10eap_core_c13resend_packetEPK19eap_am_network_id_cP18eap_buf_chain_wr_cmmmm @ 33 NONAME
	_ZN10eap_core_c13timer_expiredEmPv @ 34 NONAME
	_ZN10eap_core_c13unload_moduleE19eap_expanded_type_c @ 35 NONAME
	_ZN10eap_core_c14packet_processEPK19eap_am_network_id_cP25eap_general_header_base_cm @ 36 NONAME
	_ZN10eap_core_c14read_configureEPK25eap_configuration_field_cP19eap_variable_data_c @ 37 NONAME
	_ZN10eap_core_c15eap_acknowledgeEPK19eap_am_network_id_c @ 38 NONAME
	_ZN10eap_core_c15reset_operationEP15eap_base_type_cP18abs_eap_am_tools_c @ 39 NONAME
	_ZN10eap_core_c15write_configureEPK25eap_configuration_field_cP19eap_variable_data_c @ 40 NONAME
	_ZN10eap_core_c16send_eap_failureEPK19eap_am_network_id_ch @ 41 NONAME
	_ZN10eap_core_c16send_eap_successEPK19eap_am_network_id_ch @ 42 NONAME
	_ZN10eap_core_c16trace_eap_packetEPKcPK15eap_header_wr_c @ 43 NONAME
	_ZN10eap_core_c17get_eap_type_listEP11eap_array_cI19eap_expanded_type_cE @ 44 NONAME
	_ZN10eap_core_c17get_header_offsetEPmS0_ @ 45 NONAME
	_ZN10eap_core_c17timer_delete_dataEmPv @ 46 NONAME
	_ZN10eap_core_c18get_marked_removedEv @ 47 NONAME
	_ZN10eap_core_c18set_marked_removedEv @ 48 NONAME
	_ZN10eap_core_c18shutdown_operationEP15eap_base_type_cP18abs_eap_am_tools_c @ 49 NONAME
	_ZN10eap_core_c18state_notificationEPK28abs_eap_state_notification_c @ 50 NONAME
	_ZN10eap_core_c19init_retransmissionEPK19eap_am_network_id_cP18eap_buf_chain_wr_cmm16eap_code_value_eh19eap_expanded_type_c @ 51 NONAME
	_ZN10eap_core_c19packet_process_typeE19eap_expanded_type_cPK19eap_am_network_id_cP25eap_general_header_base_cm @ 52 NONAME
	_ZN10eap_core_c19set_session_timeoutEm @ 53 NONAME
	_ZN10eap_core_c20ignore_notificationsEv @ 54 NONAME
	_ZN10eap_core_c20unset_marked_removedEv @ 55 NONAME
	_ZN10eap_core_c21cancel_retransmissionEv @ 56 NONAME
	_ZN10eap_core_c21restart_with_new_typeE19eap_expanded_type_cPK19eap_am_network_id_ch @ 57 NONAME
	_ZN10eap_core_c21send_eap_nak_responseEPK19eap_am_network_id_chPK11eap_array_cI19eap_expanded_type_cE @ 58 NONAME
	_ZN10eap_core_c22cancel_session_timeoutEv @ 59 NONAME
	_ZN10eap_core_c22get_saved_eap_identityEP19eap_variable_data_c @ 60 NONAME
	_ZN10eap_core_c22restart_authenticationEPK19eap_am_network_id_cb @ 61 NONAME
	_ZN10eap_core_c23check_is_valid_eap_typeE19eap_expanded_type_c @ 62 NONAME
	_ZN10eap_core_c23packet_data_crypto_keysEPK19eap_am_network_id_cPK24eap_master_session_key_c @ 63 NONAME
	_ZN10eap_core_c23set_authentication_roleEb @ 64 NONAME
	_ZN10eap_core_c23set_eap_failure_timeoutEv @ 65 NONAME
	_ZN10eap_core_c25client_proposes_eap_typesEPK19eap_am_network_id_ch @ 66 NONAME
	_ZN10eap_core_c25send_eap_identity_requestEPK19eap_am_network_id_c @ 67 NONAME
	_ZN10eap_core_c26cancel_eap_failure_timeoutEv @ 68 NONAME
	_ZN10eap_core_c26initialize_session_timeoutEm @ 69 NONAME
	_ZN10eap_core_c26send_eap_identity_responseEPK19eap_am_network_id_cPK19eap_variable_data_ch @ 70 NONAME
	_ZN10eap_core_c27complete_eap_identity_queryEPK19eap_am_network_id_cPK19eap_variable_data_ch @ 71 NONAME
	_ZN10eap_core_c27handle_eap_identity_requestE19eap_expanded_type_chPK19eap_am_network_id_c @ 72 NONAME
	_ZN10eap_core_c28create_eap_identity_responseEP18eap_buf_chain_wr_cPK19eap_variable_data_ch @ 73 NONAME
	_ZN10eap_core_c28handle_eap_identity_responseEP15eap_base_type_c19eap_expanded_type_cPK19eap_am_network_id_cP15eap_header_wr_cm @ 74 NONAME
	_ZN10eap_core_c30send_eap_notification_responseEPK19eap_am_network_id_ch @ 75 NONAME
	_ZN10eap_core_c31object_decrease_reference_countEv @ 76 NONAME
	_ZN10eap_core_c31object_increase_reference_countEv @ 77 NONAME
	_ZN10eap_core_c5resetEv @ 78 NONAME
	_ZN10eap_core_c8shutdownEv @ 79 NONAME
	_ZN10eap_core_c9configureEv @ 80 NONAME
	_ZN10eap_core_c9load_typeE19eap_expanded_type_cS0_PK19eap_am_network_id_c @ 81 NONAME
	_ZN10eap_core_c9set_timerEP20abs_eap_base_timer_cmPvm @ 82 NONAME
	_ZN10eap_core_cC1EP18abs_eap_am_tools_cP14abs_eap_core_cbPK19eap_am_network_id_cb @ 83 NONAME
	_ZN10eap_core_cC2EP18abs_eap_am_tools_cP14abs_eap_core_cbPK19eap_am_network_id_cb @ 84 NONAME
	_ZN10eap_core_cD0Ev @ 85 NONAME
	_ZN10eap_core_cD1Ev @ 86 NONAME
	_ZN10eap_core_cD2Ev @ 87 NONAME
	_ZN11EAPSettingsC1Ev @ 88 NONAME
	_ZN11EAPSettingsC2Ev @ 89 NONAME
	_ZN11EAPSettingsD0Ev @ 90 NONAME
	_ZN11EAPSettingsD1Ev @ 91 NONAME
	_ZN11EAPSettingsD2Ev @ 92 NONAME
	_ZN12crypto_aes_c12get_encryptsEv @ 93 NONAME
	_ZN12crypto_aes_c12get_is_validEv @ 94 NONAME
	_ZN12crypto_aes_c12set_is_validEv @ 95 NONAME
	_ZN12crypto_aes_c13decrypt_blockEPKvPvm @ 96 NONAME
	_ZN12crypto_aes_c13encrypt_blockEPKvPvm @ 97 NONAME
	_ZN12crypto_aes_c14get_block_sizeEv @ 98 NONAME
	_ZN12crypto_aes_c14get_key_lengthEv @ 99 NONAME
	_ZN12crypto_aes_c18set_decryption_keyEPKvm @ 100 NONAME
	_ZN12crypto_aes_c18set_encryption_keyEPKvm @ 101 NONAME
	_ZN12crypto_aes_cC1EP18abs_eap_am_tools_c @ 102 NONAME
	_ZN12crypto_aes_cC2EP18abs_eap_am_tools_c @ 103 NONAME
	_ZN12crypto_aes_cD0Ev @ 104 NONAME
	_ZN12crypto_aes_cD1Ev @ 105 NONAME
	_ZN12crypto_aes_cD2Ev @ 106 NONAME
	_ZN12crypto_cbc_c10get_tmp_IVEv @ 107 NONAME
	_ZN12crypto_cbc_c12decrypt_dataEPKvPvm @ 108 NONAME
	_ZN12crypto_cbc_c12decrypt_dataEPvm @ 109 NONAME
	_ZN12crypto_cbc_c12encrypt_dataEPKvPvm @ 110 NONAME
	_ZN12crypto_cbc_c12encrypt_dataEPvm @ 111 NONAME
	_ZN12crypto_cbc_c12get_encryptsEv @ 112 NONAME
	_ZN12crypto_cbc_c12get_is_validEv @ 113 NONAME
	_ZN12crypto_cbc_c12set_is_validEv @ 114 NONAME
	_ZN12crypto_cbc_c13cbc_xor_blockEPKvPvmm @ 115 NONAME
	_ZN12crypto_cbc_c14cbc_copy_blockEPvPKvmm @ 116 NONAME
	_ZN12crypto_cbc_c14get_block_sizeEv @ 117 NONAME
	_ZN12crypto_cbc_c14get_key_lengthEv @ 118 NONAME
	_ZN12crypto_cbc_c17add_padding_bytesEPvmh @ 119 NONAME
	_ZN12crypto_cbc_c18set_decryption_keyEPKvmS1_m @ 120 NONAME
	_ZN12crypto_cbc_c18set_encryption_keyEPKvmS1_m @ 121 NONAME
	_ZN12crypto_cbc_c18update_non_alignedEPKvPvm @ 122 NONAME
	_ZN12crypto_cbc_c18update_non_alignedEPvm @ 123 NONAME
	_ZN12crypto_cbc_c19aligned_data_lengthEm @ 124 NONAME
	_ZN12crypto_cbc_c19check_padding_bytesEPKvmh @ 125 NONAME
	_ZN12crypto_cbc_c20finalize_non_alignedEv @ 126 NONAME
	_ZN12crypto_cbc_c21internal_decrypt_dataEPKvPvm @ 127 NONAME
	_ZN12crypto_cbc_c21internal_encrypt_dataEPKvPvm @ 128 NONAME
	_ZN12crypto_cbc_c5resetEv @ 129 NONAME
	_ZN12crypto_cbc_cC1EP18abs_eap_am_tools_cP28abs_crypto_block_algorithm_cb @ 130 NONAME
	_ZN12crypto_cbc_cC2EP18abs_eap_am_tools_cP28abs_crypto_block_algorithm_cb @ 131 NONAME
	_ZN12crypto_cbc_cD0Ev @ 132 NONAME
	_ZN12crypto_cbc_cD1Ev @ 133 NONAME
	_ZN12crypto_cbc_cD2Ev @ 134 NONAME
	_ZN12crypto_dsa_c12get_is_validEv @ 135 NONAME
	_ZN12crypto_dsa_c12set_is_validEv @ 136 NONAME
	_ZN12crypto_dsa_c14set_is_invalidEv @ 137 NONAME
	_ZN12crypto_dsa_c4initEv @ 138 NONAME
	_ZN12crypto_dsa_c4signEPK19eap_variable_data_cS2_PS0_ @ 139 NONAME
	_ZN12crypto_dsa_c6verifyEPK19eap_variable_data_cS2_S2_S2_S2_S2_ @ 140 NONAME
	_ZN12crypto_dsa_c7cleanupEv @ 141 NONAME
	_ZN12crypto_dsa_cC1EP18abs_eap_am_tools_c @ 142 NONAME
	_ZN12crypto_dsa_cC2EP18abs_eap_am_tools_c @ 143 NONAME
	_ZN12crypto_dsa_cD0Ev @ 144 NONAME
	_ZN12crypto_dsa_cD1Ev @ 145 NONAME
	_ZN12crypto_dsa_cD2Ev @ 146 NONAME
	_ZN12crypto_md4_c10hash_finalEPvPm @ 147 NONAME
	_ZN12crypto_md4_c11hash_updateEPKvm @ 148 NONAME
	_ZN12crypto_md4_c12copy_contextEPK19eap_variable_data_c @ 149 NONAME
	_ZN12crypto_md4_c12get_is_validEv @ 150 NONAME
	_ZN12crypto_md4_c12hash_cleanupEv @ 151 NONAME
	_ZN12crypto_md4_c12set_is_validEv @ 152 NONAME
	_ZN12crypto_md4_c14get_block_sizeEv @ 153 NONAME
	_ZN12crypto_md4_c14set_is_invalidEv @ 154 NONAME
	_ZN12crypto_md4_c17get_digest_lengthEv @ 155 NONAME
	_ZN12crypto_md4_c4copyEv @ 156 NONAME
	_ZN12crypto_md4_c9hash_initEv @ 157 NONAME
	_ZN12crypto_md4_cC1EP18abs_eap_am_tools_c @ 158 NONAME
	_ZN12crypto_md4_cC2EP18abs_eap_am_tools_c @ 159 NONAME
	_ZN12crypto_md4_cD0Ev @ 160 NONAME
	_ZN12crypto_md4_cD1Ev @ 161 NONAME
	_ZN12crypto_md4_cD2Ev @ 162 NONAME
	_ZN12crypto_md5_c10hash_finalEPvPm @ 163 NONAME
	_ZN12crypto_md5_c11hash_updateEPKvm @ 164 NONAME
	_ZN12crypto_md5_c12copy_contextEPK19eap_variable_data_c @ 165 NONAME
	_ZN12crypto_md5_c12get_is_validEv @ 166 NONAME
	_ZN12crypto_md5_c12hash_cleanupEv @ 167 NONAME
	_ZN12crypto_md5_c12set_is_validEv @ 168 NONAME
	_ZN12crypto_md5_c14get_block_sizeEv @ 169 NONAME
	_ZN12crypto_md5_c14set_is_invalidEv @ 170 NONAME
	_ZN12crypto_md5_c17get_digest_lengthEv @ 171 NONAME
	_ZN12crypto_md5_c4copyEv @ 172 NONAME
	_ZN12crypto_md5_c9hash_initEv @ 173 NONAME
	_ZN12crypto_md5_cC1EP18abs_eap_am_tools_c @ 174 NONAME
	_ZN12crypto_md5_cC2EP18abs_eap_am_tools_c @ 175 NONAME
	_ZN12crypto_md5_cD0Ev @ 176 NONAME
	_ZN12crypto_md5_cD1Ev @ 177 NONAME
	_ZN12crypto_md5_cD2Ev @ 178 NONAME
	_ZN12crypto_rc4_c12decrypt_dataEPKvPvm @ 179 NONAME
	_ZN12crypto_rc4_c12decrypt_dataEPvm @ 180 NONAME
	_ZN12crypto_rc4_c12encrypt_dataEPKvPvm @ 181 NONAME
	_ZN12crypto_rc4_c12encrypt_dataEPvm @ 182 NONAME
	_ZN12crypto_rc4_c12get_is_validEv @ 183 NONAME
	_ZN12crypto_rc4_c12set_is_validEv @ 184 NONAME
	_ZN12crypto_rc4_c14discard_streamEm @ 185 NONAME
	_ZN12crypto_rc4_c14set_is_invalidEv @ 186 NONAME
	_ZN12crypto_rc4_c7set_keyEPK19eap_variable_data_c @ 187 NONAME
	_ZN12crypto_rc4_cC1EP18abs_eap_am_tools_c @ 188 NONAME
	_ZN12crypto_rc4_cC2EP18abs_eap_am_tools_c @ 189 NONAME
	_ZN12crypto_rc4_cD0Ev @ 190 NONAME
	_ZN12crypto_rc4_cD1Ev @ 191 NONAME
	_ZN12crypto_rc4_cD2Ev @ 192 NONAME
	_ZN12crypto_rsa_c12get_is_validEv @ 193 NONAME
	_ZN12crypto_rsa_c12set_is_validEv @ 194 NONAME
	_ZN12crypto_rsa_c14set_is_invalidEv @ 195 NONAME
	_ZN12crypto_rsa_c23decrypt_with_public_keyEPK19eap_variable_data_cS2_PS0_ @ 196 NONAME
	_ZN12crypto_rsa_c23encrypt_with_public_keyEPK19eap_variable_data_cS2_PS0_ @ 197 NONAME
	_ZN12crypto_rsa_c24decrypt_with_private_keyEPK19eap_variable_data_cS2_PS0_ @ 198 NONAME
	_ZN12crypto_rsa_c24encrypt_with_private_keyEPK19eap_variable_data_cS2_PS0_ @ 199 NONAME
	_ZN12crypto_rsa_c4initEv @ 200 NONAME
	_ZN12crypto_rsa_c4signEPK19eap_variable_data_cS2_PS0_ @ 201 NONAME
	_ZN12crypto_rsa_c6verifyEPK19eap_variable_data_cS2_S2_ @ 202 NONAME
	_ZN12crypto_rsa_c7cleanupEv @ 203 NONAME
	_ZN12crypto_rsa_cC1EP18abs_eap_am_tools_c @ 204 NONAME
	_ZN12crypto_rsa_cC2EP18abs_eap_am_tools_c @ 205 NONAME
	_ZN12crypto_rsa_cD0Ev @ 206 NONAME
	_ZN12crypto_rsa_cD1Ev @ 207 NONAME
	_ZN12crypto_rsa_cD2Ev @ 208 NONAME
	_ZN13crypto_hmac_c10hmac_finalEPvPm @ 209 NONAME
	_ZN13crypto_hmac_c11hmac_updateEPKvm @ 210 NONAME
	_ZN13crypto_hmac_c12get_is_validEv @ 211 NONAME
	_ZN13crypto_hmac_c12hmac_cleanupEv @ 212 NONAME
	_ZN13crypto_hmac_c12hmac_set_keyEPK19eap_variable_data_c @ 213 NONAME
	_ZN13crypto_hmac_c12set_is_validEv @ 214 NONAME
	_ZN13crypto_hmac_c14hmac_128_finalEPvPm @ 215 NONAME
	_ZN13crypto_hmac_c14initialize_padEP19eap_variable_data_ch @ 216 NONAME
	_ZN13crypto_hmac_c17get_digest_lengthEv @ 217 NONAME
	_ZN13crypto_hmac_cC1EP18abs_eap_am_tools_cP27abs_crypto_hash_algorithm_cb @ 218 NONAME
	_ZN13crypto_hmac_cC2EP18abs_eap_am_tools_cP27abs_crypto_hash_algorithm_cb @ 219 NONAME
	_ZN13crypto_hmac_cD0Ev @ 220 NONAME
	_ZN13crypto_hmac_cD1Ev @ 221 NONAME
	_ZN13crypto_hmac_cD2Ev @ 222 NONAME
	_ZN13crypto_sha1_c10hash_finalEPvPm @ 223 NONAME
	_ZN13crypto_sha1_c11hash_updateEPKvm @ 224 NONAME
	_ZN13crypto_sha1_c12copy_contextEPK19eap_variable_data_c @ 225 NONAME
	_ZN13crypto_sha1_c12get_is_validEv @ 226 NONAME
	_ZN13crypto_sha1_c12hash_cleanupEv @ 227 NONAME
	_ZN13crypto_sha1_c12set_is_validEv @ 228 NONAME
	_ZN13crypto_sha1_c14get_block_sizeEv @ 229 NONAME
	_ZN13crypto_sha1_c14set_is_invalidEv @ 230 NONAME
	_ZN13crypto_sha1_c17get_digest_lengthEv @ 231 NONAME
	_ZN13crypto_sha1_c4copyEv @ 232 NONAME
	_ZN13crypto_sha1_c9hash_initEv @ 233 NONAME
	_ZN13crypto_sha1_cC1EP18abs_eap_am_tools_c @ 234 NONAME
	_ZN13crypto_sha1_cC2EP18abs_eap_am_tools_c @ 235 NONAME
	_ZN13crypto_sha1_cD0Ev @ 236 NONAME
	_ZN13crypto_sha1_cD1Ev @ 237 NONAME
	_ZN13crypto_sha1_cD2Ev @ 238 NONAME
	_ZN14CEapConversion26ConvertFromBuf16ToInternalEP18abs_eap_am_tools_cPK6TDes16P19eap_variable_data_c @ 239 NONAME
	_ZN14CEapConversion26ConvertFromInternalToBuf16EP18abs_eap_am_tools_cPK19eap_variable_data_cP6TDes16 @ 240 NONAME
	_ZN14CEapConversion26ConvertFromTDesCToInternalEP18abs_eap_am_tools_cRK7TDesC16P19eap_variable_data_c @ 241 NONAME
	_ZN14CEapConversion28ConvertHBufC8ToInternalTypesEP18abs_eap_am_tools_cPK6HBufC8P11eap_array_cI19eap_expanded_type_cE @ 242 NONAME
	_ZN14CEapConversion28ConvertInternalTypesToHBufC8EP18abs_eap_am_tools_cPK11eap_array_cI19eap_expanded_type_cEPP6HBufC8 @ 243 NONAME
	_ZN14CEapConversion30ConvertEAPTypesToInternalTypesEP18abs_eap_am_tools_cPK6RArrayIjEP11eap_array_cI19eap_expanded_type_cE @ 244 NONAME
	_ZN14CEapConversion30ConvertInternalTypesToEAPTypesEP18abs_eap_am_tools_cPK11eap_array_cI19eap_expanded_type_cEP6RArrayIjE @ 245 NONAME
	_ZN14CEapConversion32ConvertEAPSettingsToInternalTypeEP18abs_eap_am_tools_cPK11EAPSettingsP21eap_method_settings_c @ 246 NONAME
	_ZN14CEapConversion32ConvertInternalTypeToEAPSettingsEP18abs_eap_am_tools_cPK21eap_method_settings_cP11EAPSettings @ 247 NONAME
	_ZN14CEapConversion33ConvertCertificatesToInternalTypeEP18abs_eap_am_tools_cPK13RPointerArrayI19EapCertificateEntryEP11eap_array_cI23eap_certificate_entry_cE @ 248 NONAME
	_ZN14CEapConversion33ConvertCipherSuitesToInternalTypeEP18abs_eap_am_tools_cPK6RArrayIjEP11eap_array_cItE @ 249 NONAME
	_ZN14CEapConversion33ConvertInternalTypeToCertificatesEP18abs_eap_am_tools_cN23eap_certificate_entry_c22eap_certificate_type_eEPK11eap_array_cIS2_EP13RPointerArrayI19EapCertificateEntryE @ 250 NONAME
	_ZN14CEapConversion33ConvertInternalTypeToCipherSuitesEP18abs_eap_am_tools_cPK11eap_array_cItEP6RArrayIjE @ 251 NONAME
	_ZN14CEapConversion36ConvertExpandedEAPTypeToInternalTypeEPK16TEapExpandedTypeP19eap_expanded_type_c @ 252 NONAME
	_ZN14CEapConversion36ConvertInternalTypeToExpandedEAPTypeEPK19eap_expanded_type_cP16TEapExpandedType @ 253 NONAME
	_ZN14CEapConversion38ConvertExpandedEAPTypesToInternalTypesEP18abs_eap_am_tools_cPK6RArrayI16TEapExpandedTypeEP11eap_array_cI19eap_expanded_type_cE @ 254 NONAME
	_ZN14CEapConversion38ConvertInternalTypesToExpandedEAPTypesEP18abs_eap_am_tools_cPK11eap_array_cI19eap_expanded_type_cEP6RArrayI16TEapExpandedTypeE @ 255 NONAME
	_ZN14eap_am_tools_c10trace_dataEPKcPKvm @ 256 NONAME
	_ZN14eap_am_tools_c11compare_u64Eyy @ 257 NONAME
	_ZN14eap_am_tools_c12multiply_u64Eyy @ 258 NONAME
	_ZN14eap_am_tools_c14ascii_to_octetEl @ 259 NONAME
	_ZN14eap_am_tools_c14create_uuid_v5EPKvmS1_mP19eap_variable_data_c @ 260 NONAME
	_ZN14eap_am_tools_c14octet_to_asciiEl @ 261 NONAME
	_ZN14eap_am_tools_c14set_trace_maskEm @ 262 NONAME
	_ZN14eap_am_tools_c17eap_status_returnEb12eap_status_ePKcl @ 263 NONAME
	_ZN14eap_am_tools_c17shutdown_am_toolsEv @ 264 NONAME
	_ZN14eap_am_tools_c18get_thread_stoppedEv @ 265 NONAME
	_ZN14eap_am_tools_c19get_use_timer_queueEv @ 266 NONAME
	_ZN14eap_am_tools_c19set_use_timer_queueEv @ 267 NONAME
	_ZN14eap_am_tools_c19trace_configurationE12eap_status_ePK25eap_configuration_field_cPK19eap_variable_data_c @ 268 NONAME
	_ZN14eap_am_tools_c20number_string_to_u32EPKhmPm @ 269 NONAME
	_ZN14eap_am_tools_c20octet_to_ascii_armorEh @ 270 NONAME
	_ZN14eap_am_tools_c21memory_store_add_dataEPK19eap_variable_data_cP22eap_tlv_message_data_cm @ 271 NONAME
	_ZN14eap_am_tools_c21memory_store_get_dataEPK19eap_variable_data_cP22eap_tlv_message_data_c @ 272 NONAME
	_ZN14eap_am_tools_c21timer_thread_functionEv @ 273 NONAME
	_ZN14eap_am_tools_c22octet_from_ascii_armorEh @ 274 NONAME
	_ZN14eap_am_tools_c24memory_store_remove_dataEPK19eap_variable_data_c @ 275 NONAME
	_ZN14eap_am_tools_c26convert_ascii_to_uppercaseEPhm @ 276 NONAME
	_ZN14eap_am_tools_c26convert_bytes_to_hex_asciiEPKhmPhPm @ 277 NONAME
	_ZN14eap_am_tools_c26convert_bytes_to_hex_asciiEPKvmP19eap_variable_data_c @ 278 NONAME
	_ZN14eap_am_tools_c26convert_hex_ascii_to_bytesEPKhmPhPm @ 279 NONAME
	_ZN14eap_am_tools_c26convert_hex_ascii_to_bytesEPKvmP19eap_variable_data_c @ 280 NONAME
	_ZN14eap_am_tools_c27set_activate_trace_on_errorEv @ 281 NONAME
	_ZN14eap_am_tools_c28convert_bytes_to_ascii_armorEPKhmPhPm @ 282 NONAME
	_ZN14eap_am_tools_c29check_activate_trace_on_errorEv @ 283 NONAME
	_ZN14eap_am_tools_c29eap_status_return_file_numberEb12eap_status_emml @ 284 NONAME
	_ZN14eap_am_tools_c30restore_bytes_from_ascii_armorEPKhmPhPm @ 285 NONAME
	_ZN14eap_am_tools_c31create_uuid_v5_from_mac_addressEPKhmP19eap_variable_data_c @ 286 NONAME
	_ZN14eap_am_tools_c31generic_convert_unicode_to_utf8ER19eap_variable_data_cRKS0_ @ 287 NONAME
	_ZN14eap_am_tools_c31generic_convert_utf8_to_unicodeER19eap_variable_data_cRKS0_ @ 288 NONAME
	_ZN14eap_am_tools_c35get_use_seconds_timestamp_in_tracesEv @ 289 NONAME
	_ZN14eap_am_tools_c37convert_selected_bytes_to_ascii_armorEhPmPhS1_S0_b @ 290 NONAME
	_ZN14eap_am_tools_c39restore_selected_bytes_from_ascii_armorEhPmPhS0_b @ 291 NONAME
	_ZN14eap_am_tools_c7xor_u64Eyy @ 292 NONAME
	_ZN14eap_am_tools_c9parse_naiEPK19eap_variable_data_cPS0_S3_ @ 293 NONAME
	_ZN14eap_am_tools_cC2Ev @ 294 NONAME
	_ZN14eap_am_tools_cD0Ev @ 295 NONAME
	_ZN14eap_am_tools_cD1Ev @ 296 NONAME
	_ZN14eap_am_tools_cD2Ev @ 297 NONAME
	_ZN15EapMessageQueue10AddMessageE12TEapRequestsPKvj @ 298 NONAME
	_ZN15EapMessageQueue15GetFirstMessageEv @ 299 NONAME
	_ZN15EapMessageQueue18DeleteFirstMessageEv @ 300 NONAME
	_ZN15EapMessageQueueC1EP18abs_eap_am_tools_c @ 301 NONAME
	_ZN15EapMessageQueueC2EP18abs_eap_am_tools_c @ 302 NONAME
	_ZN15EapMessageQueueD0Ev @ 303 NONAME
	_ZN15EapMessageQueueD1Ev @ 304 NONAME
	_ZN15EapMessageQueueD2Ev @ 305 NONAME
	_ZN15crypto_random_c12get_is_validEv @ 306 NONAME
	_ZN15crypto_random_c12set_is_validEv @ 307 NONAME
	_ZN15crypto_random_c13add_rand_seedEPKvm @ 308 NONAME
	_ZN15crypto_random_c14get_rand_bytesEP19eap_variable_data_cm @ 309 NONAME
	_ZN15crypto_random_c14get_rand_bytesEPvm @ 310 NONAME
	_ZN15crypto_random_c16get_rand_integerEmm @ 311 NONAME
	_ZN15crypto_random_c22add_rand_seed_hw_ticksEv @ 312 NONAME
	_ZN15crypto_random_cC1EP18abs_eap_am_tools_c @ 313 NONAME
	_ZN15crypto_random_cC2EP18abs_eap_am_tools_c @ 314 NONAME
	_ZN15crypto_random_cD0Ev @ 315 NONAME
	_ZN15crypto_random_cD1Ev @ 316 NONAME
	_ZN15crypto_random_cD2Ev @ 317 NONAME
	_ZN15eap_base_type_c16get_type_partnerEv @ 318 NONAME
	_ZN15eap_base_type_c31object_decrease_reference_countEv @ 319 NONAME
	_ZN15eap_base_type_c31object_increase_reference_countEv @ 320 NONAME
	_ZN15eap_base_type_cC2EP18abs_eap_am_tools_cP19abs_eap_base_type_c @ 321 NONAME
	_ZN15eap_base_type_cD0Ev @ 322 NONAME
	_ZN15eap_base_type_cD1Ev @ 323 NONAME
	_ZN15eap_base_type_cD2Ev @ 324 NONAME
	_ZN15eap_header_rd_cC1EP18abs_eap_am_tools_cPhm @ 325 NONAME
	_ZN15eap_header_rd_cC2EP18abs_eap_am_tools_cPhm @ 326 NONAME
	_ZN15eap_header_rd_cD0Ev @ 327 NONAME
	_ZN15eap_header_rd_cD1Ev @ 328 NONAME
	_ZN15eap_header_rd_cD2Ev @ 329 NONAME
	_ZN15eap_header_wr_c12reset_headerEtb @ 330 NONAME
	_ZN15eap_header_wr_cC1EP18abs_eap_am_tools_cPhm @ 331 NONAME
	_ZN15eap_header_wr_cC2EP18abs_eap_am_tools_cPhm @ 332 NONAME
	_ZN15eap_header_wr_cD0Ev @ 333 NONAME
	_ZN15eap_header_wr_cD1Ev @ 334 NONAME
	_ZN15eap_header_wr_cD2Ev @ 335 NONAME
	_ZN16EapMessageBuffer8CopyDataE12TEapRequestsPKvj @ 336 NONAME
	_ZN16EapMessageBufferC1EP18abs_eap_am_tools_c @ 337 NONAME
	_ZN16EapMessageBufferC2EP18abs_eap_am_tools_c @ 338 NONAME
	_ZN16EapMessageBufferD0Ev @ 339 NONAME
	_ZN16EapMessageBufferD1Ev @ 340 NONAME
	_ZN16EapMessageBufferD2Ev @ 341 NONAME
	_ZN16EapServerStrings20GetEapRequestsStringE12TEapRequests @ 342 NONAME
	_ZN16EapServerStrings20GetEapRequestsStringEi @ 343 NONAME
	_ZN16EapServerStringsC1Ev @ 344 NONAME
	_ZN16EapServerStringsC2Ev @ 345 NONAME
	_ZN16EapServerStringsD0Ev @ 346 NONAME
	_ZN16EapServerStringsD1Ev @ 347 NONAME
	_ZN16EapServerStringsD2Ev @ 348 NONAME
	_ZN16TEapExpandedType8SetValueEPKvj @ 349 NONAME
	_ZN16TEapExpandedType8SetValueEjj @ 350 NONAME
	_ZN16TEapExpandedTypeC1EPKS_ @ 351 NONAME
	_ZN16TEapExpandedTypeC1ERK6TBufC8ILi8EE @ 352 NONAME
	_ZN16TEapExpandedTypeC1ERK6TDesC8 @ 353 NONAME
	_ZN16TEapExpandedTypeC1ERKS_ @ 354 NONAME
	_ZN16TEapExpandedTypeC1Ev @ 355 NONAME
	_ZN16TEapExpandedTypeC2EPKS_ @ 356 NONAME
	_ZN16TEapExpandedTypeC2ERK6TBufC8ILi8EE @ 357 NONAME
	_ZN16TEapExpandedTypeC2ERK6TDesC8 @ 358 NONAME
	_ZN16TEapExpandedTypeC2ERKS_ @ 359 NONAME
	_ZN16TEapExpandedTypeC2Ev @ 360 NONAME
	_ZN16TEapExpandedTypeD0Ev @ 361 NONAME
	_ZN16TEapExpandedTypeD1Ev @ 362 NONAME
	_ZN16TEapExpandedTypeD2Ev @ 363 NONAME
	_ZN16TEapExpandedTypeaSERK6TBufC8ILi8EE @ 364 NONAME
	_ZN16TEapExpandedTypeaSERK6TDesC8 @ 365 NONAME
	_ZN16TEapExpandedTypeaSERKS_ @ 366 NONAME
	_ZN16crypto_nt_hash_c12get_is_validEv @ 367 NONAME
	_ZN16crypto_nt_hash_c14get_master_keyEPK19eap_variable_data_cS2_PS0_m @ 368 NONAME
	_ZN16crypto_nt_hash_c16nt_password_hashEPK19eap_variable_data_cPS0_m @ 369 NONAME
	_ZN16crypto_nt_hash_c20get_new_key_from_shaEPK19eap_variable_data_cS2_PS0_m @ 370 NONAME
	_ZN16crypto_nt_hash_c21hash_nt_password_hashEPK19eap_variable_data_cPS0_m @ 371 NONAME
	_ZN16crypto_nt_hash_c24get_asymmetric_start_keyEPK19eap_variable_data_cPS0_mbb @ 372 NONAME
	_ZN16crypto_nt_hash_cC1EP18abs_eap_am_tools_c @ 373 NONAME
	_ZN16crypto_nt_hash_cC2EP18abs_eap_am_tools_c @ 374 NONAME
	_ZN16crypto_nt_hash_cD0Ev @ 375 NONAME
	_ZN16crypto_nt_hash_cD1Ev @ 376 NONAME
	_ZN16crypto_nt_hash_cD2Ev @ 377 NONAME
	_ZN16crypto_sha_256_c10hash_finalEPvPm @ 378 NONAME
	_ZN16crypto_sha_256_c11hash_updateEPKvm @ 379 NONAME
	_ZN16crypto_sha_256_c12copy_contextEPK19eap_variable_data_c @ 380 NONAME
	_ZN16crypto_sha_256_c12get_is_validEv @ 381 NONAME
	_ZN16crypto_sha_256_c12hash_cleanupEv @ 382 NONAME
	_ZN16crypto_sha_256_c12set_is_validEv @ 383 NONAME
	_ZN16crypto_sha_256_c14get_block_sizeEv @ 384 NONAME
	_ZN16crypto_sha_256_c14set_is_invalidEv @ 385 NONAME
	_ZN16crypto_sha_256_c17get_digest_lengthEv @ 386 NONAME
	_ZN16crypto_sha_256_c4copyEv @ 387 NONAME
	_ZN16crypto_sha_256_c9hash_initEv @ 388 NONAME
	_ZN16crypto_sha_256_cC1EP18abs_eap_am_tools_c @ 389 NONAME
	_ZN16crypto_sha_256_cC2EP18abs_eap_am_tools_c @ 390 NONAME
	_ZN16crypto_sha_256_cD0Ev @ 391 NONAME
	_ZN16crypto_sha_256_cD1Ev @ 392 NONAME
	_ZN16crypto_sha_256_cD2Ev @ 393 NONAME
	_ZN16crypto_tls_prf_c12get_is_validEv @ 394 NONAME
	_ZN16crypto_tls_prf_c12set_is_validEv @ 395 NONAME
	_ZN16crypto_tls_prf_c12tls_prf_initEPK19eap_variable_data_cS2_S2_ @ 396 NONAME
	_ZN16crypto_tls_prf_c14set_is_invalidEv @ 397 NONAME
	_ZN16crypto_tls_prf_c14tls_prf_outputEPvm @ 398 NONAME
	_ZN16crypto_tls_prf_c15tls_prf_cleanupEv @ 399 NONAME
	_ZN16crypto_tls_prf_cC1EP18abs_eap_am_tools_c @ 400 NONAME
	_ZN16crypto_tls_prf_cC2EP18abs_eap_am_tools_c @ 401 NONAME
	_ZN16crypto_tls_prf_cD0Ev @ 402 NONAME
	_ZN16crypto_tls_prf_cD1Ev @ 403 NONAME
	_ZN16crypto_tls_prf_cD2Ev @ 404 NONAME
	_ZN16eap_tlv_header_c12reset_headerEmm @ 405 NONAME
	_ZN16eap_tlv_header_c16set_value_lengthEm @ 406 NONAME
	_ZN16eap_tlv_header_c17get_header_lengthEv @ 407 NONAME
	_ZN16eap_tlv_header_c8set_typeEm @ 408 NONAME
	_ZN16eap_tlv_header_cC1EP18abs_eap_am_tools_cPvm @ 409 NONAME
	_ZN16eap_tlv_header_cC2EP18abs_eap_am_tools_cPvm @ 410 NONAME
	_ZN16eap_tlv_header_cD0Ev @ 411 NONAME
	_ZN16eap_tlv_header_cD1Ev @ 412 NONAME
	_ZN16eap_tlv_header_cD2Ev @ 413 NONAME
	_ZN17crypto_3des_ede_c12get_encryptsEv @ 414 NONAME
	_ZN17crypto_3des_ede_c12get_is_validEv @ 415 NONAME
	_ZN17crypto_3des_ede_c12set_is_validEv @ 416 NONAME
	_ZN17crypto_3des_ede_c13decrypt_blockEPKvPvm @ 417 NONAME
	_ZN17crypto_3des_ede_c13encrypt_blockEPKvPvm @ 418 NONAME
	_ZN17crypto_3des_ede_c14get_block_sizeEv @ 419 NONAME
	_ZN17crypto_3des_ede_c14get_key_lengthEv @ 420 NONAME
	_ZN17crypto_3des_ede_c18set_decryption_keyEPKvm @ 421 NONAME
	_ZN17crypto_3des_ede_c18set_encryption_keyEPKvm @ 422 NONAME
	_ZN17crypto_3des_ede_cC1EP18abs_eap_am_tools_c @ 423 NONAME
	_ZN17crypto_3des_ede_cC2EP18abs_eap_am_tools_c @ 424 NONAME
	_ZN17crypto_3des_ede_cD0Ev @ 425 NONAME
	_ZN17crypto_3des_ede_cD1Ev @ 426 NONAME
	_ZN17crypto_3des_ede_cD2Ev @ 427 NONAME
	_ZN17crypto_aes_wrap_c12get_encryptsEv @ 428 NONAME
	_ZN17crypto_aes_wrap_c12get_is_validEv @ 429 NONAME
	_ZN17crypto_aes_wrap_c12set_is_validEv @ 430 NONAME
	_ZN17crypto_aes_wrap_c13decrypt_blockEPKvmPvm @ 431 NONAME
	_ZN17crypto_aes_wrap_c13encrypt_blockEPKvmPvm @ 432 NONAME
	_ZN17crypto_aes_wrap_c14get_block_sizeEv @ 433 NONAME
	_ZN17crypto_aes_wrap_c14get_key_lengthEv @ 434 NONAME
	_ZN17crypto_aes_wrap_c17add_padding_bytesEPvm @ 435 NONAME
	_ZN17crypto_aes_wrap_c18set_decryption_keyEPKvm @ 436 NONAME
	_ZN17crypto_aes_wrap_c18set_encryption_keyEPKvm @ 437 NONAME
	_ZN17crypto_aes_wrap_cC1EP18abs_eap_am_tools_c @ 438 NONAME
	_ZN17crypto_aes_wrap_cC2EP18abs_eap_am_tools_c @ 439 NONAME
	_ZN17crypto_aes_wrap_cD0Ev @ 440 NONAME
	_ZN17crypto_aes_wrap_cD1Ev @ 441 NONAME
	_ZN17crypto_aes_wrap_cD2Ev @ 442 NONAME
	_ZN17eap_file_config_c14read_configureEPK25eap_configuration_field_cP19eap_variable_data_c @ 443 NONAME
	_ZN17eap_file_config_c26read_configuration_messageEPK19eap_variable_data_c @ 444 NONAME
	_ZN17eap_file_config_c9configureEP23abs_eap_am_file_input_c @ 445 NONAME
	_ZN17eap_file_config_cC1EP18abs_eap_am_tools_c @ 446 NONAME
	_ZN17eap_file_config_cC2EP18abs_eap_am_tools_c @ 447 NONAME
	_ZN17eap_file_config_cD0Ev @ 448 NONAME
	_ZN17eap_file_config_cD1Ev @ 449 NONAME
	_ZN17eap_file_config_cD2Ev @ 450 NONAME
	_ZN17eap_header_base_c10set_lengthEtb @ 451 NONAME
	_ZN17eap_header_base_c14set_identifierEh @ 452 NONAME
	_ZN17eap_header_base_c17get_header_lengthEv @ 453 NONAME
	_ZN17eap_header_base_c20set_type_data_lengthEtb @ 454 NONAME
	_ZN17eap_header_base_c26get_ietf_type_field_lengthEv @ 455 NONAME
	_ZN17eap_header_base_c26get_type_data_start_offsetEb @ 456 NONAME
	_ZN17eap_header_base_c29get_expanded_ietf_type_offsetEv @ 457 NONAME
	_ZN17eap_header_base_c29get_expanded_vendor_id_offsetEv @ 458 NONAME
	_ZN17eap_header_base_c30get_expanded_type_field_lengthEv @ 459 NONAME
	_ZN17eap_header_base_c31get_expanded_vendor_type_offsetEv @ 460 NONAME
	_ZN17eap_header_base_c8set_codeE16eap_code_value_e @ 461 NONAME
	_ZN17eap_header_base_c8set_typeE19eap_expanded_type_cb @ 462 NONAME
	_ZN17eap_header_base_cC1EP18abs_eap_am_tools_cPvm @ 463 NONAME
	_ZN17eap_header_base_cC2EP18abs_eap_am_tools_cPvm @ 464 NONAME
	_ZN17eap_header_base_cD0Ev @ 465 NONAME
	_ZN17eap_header_base_cD1Ev @ 466 NONAME
	_ZN17eap_header_base_cD2Ev @ 467 NONAME
	_ZN17eapol_header_rd_cC1EP18abs_eap_am_tools_cPhm @ 468 NONAME
	_ZN17eapol_header_rd_cC2EP18abs_eap_am_tools_cPhm @ 469 NONAME
	_ZN17eapol_header_rd_cD0Ev @ 470 NONAME
	_ZN17eapol_header_rd_cD1Ev @ 471 NONAME
	_ZN17eapol_header_rd_cD2Ev @ 472 NONAME
	_ZN17eapol_header_wr_c12reset_headerEt @ 473 NONAME
	_ZN17eapol_header_wr_c14get_eap_headerEv @ 474 NONAME
	_ZN17eapol_header_wr_cC1EP18abs_eap_am_tools_cPhm @ 475 NONAME
	_ZN17eapol_header_wr_cC2EP18abs_eap_am_tools_cPhm @ 476 NONAME
	_ZN17eapol_header_wr_cD0Ev @ 477 NONAME
	_ZN17eapol_header_wr_cD1Ev @ 478 NONAME
	_ZN17eapol_header_wr_cD2Ev @ 479 NONAME
	_ZN18abs_eap_am_mutex_cC2Ev @ 480 NONAME
	_ZN18abs_eap_am_mutex_cD0Ev @ 481 NONAME
	_ZN18abs_eap_am_mutex_cD1Ev @ 482 NONAME
	_ZN18abs_eap_am_mutex_cD2Ev @ 483 NONAME
	_ZN18abs_eap_am_tools_c22new_abs_eap_am_tools_cEv @ 484 NONAME
	_ZN18abs_eap_am_tools_c25delete_abs_eap_am_tools_cEPS_ @ 485 NONAME
	_ZN18eap_buf_chain_rd_c17force_inheritanceEv @ 486 NONAME
	_ZN18eap_buf_chain_rd_cC1E17eap_read_buffer_eP18abs_eap_am_tools_cPKhmb @ 487 NONAME
	_ZN18eap_buf_chain_rd_cC1E17eap_read_buffer_eP18abs_eap_am_tools_cm @ 488 NONAME
	_ZN18eap_buf_chain_rd_cC2E17eap_read_buffer_eP18abs_eap_am_tools_cPKhmb @ 489 NONAME
	_ZN18eap_buf_chain_rd_cC2E17eap_read_buffer_eP18abs_eap_am_tools_cm @ 490 NONAME
	_ZN18eap_buf_chain_rd_cD0Ev @ 491 NONAME
	_ZN18eap_buf_chain_rd_cD1Ev @ 492 NONAME
	_ZN18eap_buf_chain_rd_cD2Ev @ 493 NONAME
	_ZN18eap_buf_chain_wr_c17force_inheritanceEv @ 494 NONAME
	_ZN18eap_buf_chain_wr_c19get_ethernet_headerEv @ 495 NONAME
	_ZN18eap_buf_chain_wr_c4copyEv @ 496 NONAME
	_ZN18eap_buf_chain_wr_cC1E18eap_write_buffer_eP18abs_eap_am_tools_c @ 497 NONAME
	_ZN18eap_buf_chain_wr_cC1E18eap_write_buffer_eP18abs_eap_am_tools_cPhmbbm @ 498 NONAME
	_ZN18eap_buf_chain_wr_cC1E18eap_write_buffer_eP18abs_eap_am_tools_cm @ 499 NONAME
	_ZN18eap_buf_chain_wr_cC2E18eap_write_buffer_eP18abs_eap_am_tools_c @ 500 NONAME
	_ZN18eap_buf_chain_wr_cC2E18eap_write_buffer_eP18abs_eap_am_tools_cPhmbbm @ 501 NONAME
	_ZN18eap_buf_chain_wr_cC2E18eap_write_buffer_eP18abs_eap_am_tools_cm @ 502 NONAME
	_ZN18eap_buf_chain_wr_cD0Ev @ 503 NONAME
	_ZN18eap_buf_chain_wr_cD1Ev @ 504 NONAME
	_ZN18eap_buf_chain_wr_cD2Ev @ 505 NONAME
	_ZN18eap_config_value_c14get_subsectionEv @ 506 NONAME
	_ZN18eap_config_value_c14set_subsectionEP14eap_core_map_cIS_18abs_eap_core_map_c19eap_variable_data_cE @ 507 NONAME
	_ZN18eap_config_value_c31object_increase_reference_countEv @ 508 NONAME
	_ZN18eap_config_value_c8get_dataEv @ 509 NONAME
	_ZN18eap_config_value_c8get_typeEv @ 510 NONAME
	_ZN18eap_config_value_c8set_typeE20eap_configure_type_e @ 511 NONAME
	_ZN18eap_config_value_cC1EP18abs_eap_am_tools_c @ 512 NONAME
	_ZN18eap_config_value_cC2EP18abs_eap_am_tools_c @ 513 NONAME
	_ZN18eap_config_value_cD0Ev @ 514 NONAME
	_ZN18eap_config_value_cD1Ev @ 515 NONAME
	_ZN18eap_config_value_cD2Ev @ 516 NONAME
	_ZN18eap_session_core_c11get_partnerEv @ 517 NONAME
	_ZN18eap_session_core_c11load_moduleE19eap_expanded_type_cS0_P19abs_eap_base_type_cPP15eap_base_type_cbPK19eap_am_network_id_c @ 518 NONAME
	_ZN18eap_session_core_c11packet_sendEPK19eap_am_network_id_cP18eap_buf_chain_wr_cmmm @ 519 NONAME
	_ZN18eap_session_core_c12add_rogue_apER11eap_array_cI20eap_rogue_ap_entry_cE @ 520 NONAME
	_ZN18eap_session_core_c12cancel_timerEP20abs_eap_base_timer_cm @ 521 NONAME
	_ZN18eap_session_core_c12get_is_validEv @ 522 NONAME
	_ZN18eap_session_core_c12set_is_validEv @ 523 NONAME
	_ZN18eap_session_core_c13timer_expiredEmPv @ 524 NONAME
	_ZN18eap_session_core_c13unload_moduleE19eap_expanded_type_c @ 525 NONAME
	_ZN18eap_session_core_c14packet_processEPK19eap_am_network_id_cP25eap_general_header_base_cm @ 526 NONAME
	_ZN18eap_session_core_c14read_configureEPK25eap_configuration_field_cP19eap_variable_data_c @ 527 NONAME
	_ZN18eap_session_core_c15eap_acknowledgeEPK19eap_am_network_id_c @ 528 NONAME
	_ZN18eap_session_core_c15write_configureEPK25eap_configuration_field_cP19eap_variable_data_c @ 529 NONAME
	_ZN18eap_session_core_c17get_eap_type_listEP11eap_array_cI19eap_expanded_type_cE @ 530 NONAME
	_ZN18eap_session_core_c17get_header_offsetEPmS0_ @ 531 NONAME
	_ZN18eap_session_core_c17timer_delete_dataEmPv @ 532 NONAME
	_ZN18eap_session_core_c18create_eap_sessionEPK19eap_am_network_id_c @ 533 NONAME
	_ZN18eap_session_core_c18create_new_sessionEPK19eap_am_network_id_c @ 534 NONAME
	_ZN18eap_session_core_c18remove_eap_sessionEbPK19eap_am_network_id_c @ 535 NONAME
	_ZN18eap_session_core_c18shutdown_operationEP10eap_core_cP18abs_eap_am_tools_c @ 536 NONAME
	_ZN18eap_session_core_c18state_notificationEPK28abs_eap_state_notification_c @ 537 NONAME
	_ZN18eap_session_core_c19set_session_timeoutEm @ 538 NONAME
	_ZN18eap_session_core_c22restart_authenticationEPK19eap_am_network_id_cb @ 539 NONAME
	_ZN18eap_session_core_c22restart_authenticationEPK19eap_am_network_id_cbbb @ 540 NONAME
	_ZN18eap_session_core_c23cancel_all_eap_sessionsEv @ 541 NONAME
	_ZN18eap_session_core_c23check_is_valid_eap_typeE19eap_expanded_type_c @ 542 NONAME
	_ZN18eap_session_core_c23packet_data_crypto_keysEPK19eap_am_network_id_cPK24eap_master_session_key_c @ 543 NONAME
	_ZN18eap_session_core_c23reset_or_remove_sessionEPP10eap_core_cPK25eap_network_id_selector_cb @ 544 NONAME
	_ZN18eap_session_core_c25send_eap_identity_requestEPK19eap_am_network_id_c @ 545 NONAME
	_ZN18eap_session_core_c30get_802_11_authentication_modeEPK19eap_am_network_id_c31eapol_key_authentication_type_ePK19eap_variable_data_cS6_ @ 546 NONAME
	_ZN18eap_session_core_c33set_eap_database_reference_valuesEPK19eap_variable_data_c @ 547 NONAME
	_ZN18eap_session_core_c5resetEv @ 548 NONAME
	_ZN18eap_session_core_c8shutdownEv @ 549 NONAME
	_ZN18eap_session_core_c9configureEv @ 550 NONAME
	_ZN18eap_session_core_c9set_timerEP20abs_eap_base_timer_cmPvm @ 551 NONAME
	_ZN18eap_session_core_cC1EP18abs_eap_am_tools_cP22abs_eap_session_core_cb @ 552 NONAME
	_ZN18eap_session_core_cC2EP18abs_eap_am_tools_cP22abs_eap_session_core_cb @ 553 NONAME
	_ZN18eap_session_core_cD0Ev @ 554 NONAME
	_ZN18eap_session_core_cD1Ev @ 555 NONAME
	_ZN18eap_session_core_cD2Ev @ 556 NONAME
	_ZN19EapCertificateEntry10SetIsValidEi @ 557 NONAME
	_ZN19EapCertificateEntry11SetCertTypeERKNS_9TCertTypeE @ 558 NONAME
	_ZN19EapCertificateEntry12SetIsEnabledEi @ 559 NONAME
	_ZN19EapCertificateEntry13SetIssuerNameERK4TBufILi255EE @ 560 NONAME
	_ZN19EapCertificateEntry13SetThumbprintERK4TBufILi64EE @ 561 NONAME
	_ZN19EapCertificateEntry14SetPrimaryNameERK4TBufILi64EE @ 562 NONAME
	_ZN19EapCertificateEntry14SetSubjectNameERK4TBufILi255EE @ 563 NONAME
	_ZN19EapCertificateEntry15SetLabelPresentEv @ 564 NONAME
	_ZN19EapCertificateEntry15SetSerialNumberERK4TBufILi255EE @ 565 NONAME
	_ZN19EapCertificateEntry15SetSubjectKeyIdERK5TBuf8ILi20EE @ 566 NONAME
	_ZN19EapCertificateEntry16GetLabelWritableEv @ 567 NONAME
	_ZN19EapCertificateEntry16SetSecondaryNameERK4TBufILi64EE @ 568 NONAME
	_ZN19EapCertificateEntry19SetIsEnabledPresentEv @ 569 NONAME
	_ZN19EapCertificateEntry20SetIssuerNamePresentEv @ 570 NONAME
	_ZN19EapCertificateEntry20SetThumbprintPresentEv @ 571 NONAME
	_ZN19EapCertificateEntry21GetIssuerNameWritableEv @ 572 NONAME
	_ZN19EapCertificateEntry21GetThumbprintWritableEv @ 573 NONAME
	_ZN19EapCertificateEntry21SetPrimaryNamePresentEv @ 574 NONAME
	_ZN19EapCertificateEntry21SetSubjectNamePresentEv @ 575 NONAME
	_ZN19EapCertificateEntry22GetPrimaryNameWritableEv @ 576 NONAME
	_ZN19EapCertificateEntry22GetSubjectNameWritableEv @ 577 NONAME
	_ZN19EapCertificateEntry22SetSerialNumberPresentEv @ 578 NONAME
	_ZN19EapCertificateEntry22SetSubjectKeyIdPresentEv @ 579 NONAME
	_ZN19EapCertificateEntry23GetSerialNumberWritableEv @ 580 NONAME
	_ZN19EapCertificateEntry23GetSubjectKeyIdWritableEv @ 581 NONAME
	_ZN19EapCertificateEntry23SetSecondaryNamePresentEv @ 582 NONAME
	_ZN19EapCertificateEntry24GetSecondaryNameWritableEv @ 583 NONAME
	_ZN19EapCertificateEntry4CopyEv @ 584 NONAME
	_ZN19EapCertificateEntry8SetLabelERK4TBufILi64EE @ 585 NONAME
	_ZN19EapCertificateEntryC1Ev @ 586 NONAME
	_ZN19EapCertificateEntryC2Ev @ 587 NONAME
	_ZN19EapCertificateEntryD0Ev @ 588 NONAME
	_ZN19EapCertificateEntryD1Ev @ 589 NONAME
	_ZN19EapCertificateEntryD2Ev @ 590 NONAME
	_ZN19EapCertificateEntryaSERKS_ @ 591 NONAME
	_ZN19eap_am_crypto_md4_c10hash_finalEPvPm @ 592 NONAME
	_ZN19eap_am_crypto_md4_c11hash_updateEPKvm @ 593 NONAME
	_ZN19eap_am_crypto_md4_c12copy_contextEPK19eap_variable_data_cyPKmS4_ @ 594 NONAME
	_ZN19eap_am_crypto_md4_c12get_is_validEv @ 595 NONAME
	_ZN19eap_am_crypto_md4_c12hash_cleanupEv @ 596 NONAME
	_ZN19eap_am_crypto_md4_c12set_is_validEv @ 597 NONAME
	_ZN19eap_am_crypto_md4_c14get_block_sizeEv @ 598 NONAME
	_ZN19eap_am_crypto_md4_c14set_is_invalidEv @ 599 NONAME
	_ZN19eap_am_crypto_md4_c17get_digest_lengthEv @ 600 NONAME
	_ZN19eap_am_crypto_md4_c19copy_message_digestEPvPm @ 601 NONAME
	_ZN19eap_am_crypto_md4_c20eap_md4_process_dataEPKmm @ 602 NONAME
	_ZN19eap_am_crypto_md4_c28eap_md4_transform_host_orderEPKmm @ 603 NONAME
	_ZN19eap_am_crypto_md4_c4copyEv @ 604 NONAME
	_ZN19eap_am_crypto_md4_c9hash_initEv @ 605 NONAME
	_ZN19eap_am_crypto_md4_cC1EP18abs_eap_am_tools_c @ 606 NONAME
	_ZN19eap_am_crypto_md4_cC2EP18abs_eap_am_tools_c @ 607 NONAME
	_ZN19eap_am_crypto_md4_cD0Ev @ 608 NONAME
	_ZN19eap_am_crypto_md4_cD1Ev @ 609 NONAME
	_ZN19eap_am_crypto_md4_cD2Ev @ 610 NONAME
	_ZN19eap_am_crypto_rc4_c12decrypt_dataEPKvPvm @ 611 NONAME
	_ZN19eap_am_crypto_rc4_c12encrypt_dataEPKvPvm @ 612 NONAME
	_ZN19eap_am_crypto_rc4_c12get_is_validEv @ 613 NONAME
	_ZN19eap_am_crypto_rc4_c12set_is_validEv @ 614 NONAME
	_ZN19eap_am_crypto_rc4_c14set_is_invalidEv @ 615 NONAME
	_ZN19eap_am_crypto_rc4_c4swapEPhS0_ @ 616 NONAME
	_ZN19eap_am_crypto_rc4_c7cleanupEv @ 617 NONAME
	_ZN19eap_am_crypto_rc4_c7set_keyEPK19eap_variable_data_c @ 618 NONAME
	_ZN19eap_am_crypto_rc4_cC1EP18abs_eap_am_tools_c @ 619 NONAME
	_ZN19eap_am_crypto_rc4_cC2EP18abs_eap_am_tools_c @ 620 NONAME
	_ZN19eap_am_crypto_rc4_cD0Ev @ 621 NONAME
	_ZN19eap_am_crypto_rc4_cD1Ev @ 622 NONAME
	_ZN19eap_am_crypto_rc4_cD2Ev @ 623 NONAME
	_ZN19eap_am_mutex_base_cC1EPKS_ @ 624 NONAME
	_ZN19eap_am_mutex_base_cC1Ev @ 625 NONAME
	_ZN19eap_am_mutex_base_cC2EPKS_ @ 626 NONAME
	_ZN19eap_am_mutex_base_cC2Ev @ 627 NONAME
	_ZN19eap_am_mutex_base_cD0Ev @ 628 NONAME
	_ZN19eap_am_mutex_base_cD1Ev @ 629 NONAME
	_ZN19eap_am_mutex_base_cD2Ev @ 630 NONAME
	_ZN19eap_am_network_id_c12set_is_validEv @ 631 NONAME
	_ZN19eap_am_network_id_c22set_copy_of_network_idEPKS_ @ 632 NONAME
	_ZN19eap_am_network_id_c25set_copy_of_am_network_idEPKvmS1_mt @ 633 NONAME
	_ZN19eap_am_network_id_c5resetEv @ 634 NONAME
	_ZN19eap_am_network_id_c8set_typeEt @ 635 NONAME
	_ZN19eap_am_network_id_cC1EP18abs_eap_am_tools_c @ 636 NONAME
	_ZN19eap_am_network_id_cC1EP18abs_eap_am_tools_cPK19eap_variable_data_cS4_t @ 637 NONAME
	_ZN19eap_am_network_id_cC1EP18abs_eap_am_tools_cPKS_ @ 638 NONAME
	_ZN19eap_am_network_id_cC1EP18abs_eap_am_tools_cPKvmS3_mtbb @ 639 NONAME
	_ZN19eap_am_network_id_cC2EP18abs_eap_am_tools_c @ 640 NONAME
	_ZN19eap_am_network_id_cC2EP18abs_eap_am_tools_cPK19eap_variable_data_cS4_t @ 641 NONAME
	_ZN19eap_am_network_id_cC2EP18abs_eap_am_tools_cPKS_ @ 642 NONAME
	_ZN19eap_am_network_id_cC2EP18abs_eap_am_tools_cPKvmS3_mtbb @ 643 NONAME
	_ZN19eap_am_network_id_cD0Ev @ 644 NONAME
	_ZN19eap_am_network_id_cD1Ev @ 645 NONAME
	_ZN19eap_am_network_id_cD2Ev @ 646 NONAME
	_ZN19eap_core_nak_info_cC1EP18abs_eap_am_tools_cPK19eap_am_network_id_c19eap_expanded_type_ch @ 647 NONAME
	_ZN19eap_core_nak_info_cC2EP18abs_eap_am_tools_cPK19eap_am_network_id_c19eap_expanded_type_ch @ 648 NONAME
	_ZN19eap_core_nak_info_cD0Ev @ 649 NONAME
	_ZN19eap_core_nak_info_cD1Ev @ 650 NONAME
	_ZN19eap_core_nak_info_cD2Ev @ 651 NONAME
	_ZN19eap_expanded_type_c10write_typeEP18abs_eap_am_tools_cmPvmbS_ @ 652 NONAME
	_ZN19eap_expanded_type_c12is_ietf_typeES_ @ 653 NONAME
	_ZN19eap_expanded_type_c16is_expanded_typeE22eap_type_ietf_values_e @ 654 NONAME
	_ZN19eap_expanded_type_c19set_eap_type_valuesE20eap_type_vendor_id_em @ 655 NONAME
	_ZN19eap_expanded_type_c22set_expanded_type_dataEP18abs_eap_am_tools_cPK19eap_variable_data_c @ 656 NONAME
	_ZN19eap_expanded_type_c22set_expanded_type_dataEP18abs_eap_am_tools_cPKvm @ 657 NONAME
	_ZN19eap_expanded_type_c26get_eap_expanded_type_sizeEv @ 658 NONAME
	_ZN19eap_expanded_type_c9read_typeEP18abs_eap_am_tools_cmPKvmPS_ @ 659 NONAME
	_ZN19eap_expanded_type_cC1E20eap_type_vendor_id_em @ 660 NONAME
	_ZN19eap_expanded_type_cC1E22eap_type_ietf_values_e @ 661 NONAME
	_ZN19eap_expanded_type_cC1Ev @ 662 NONAME
	_ZN19eap_expanded_type_cC2E20eap_type_vendor_id_em @ 663 NONAME
	_ZN19eap_expanded_type_cC2E22eap_type_ietf_values_e @ 664 NONAME
	_ZN19eap_expanded_type_cC2Ev @ 665 NONAME
	_ZN19eap_expanded_type_cD1Ev @ 666 NONAME
	_ZN19eap_expanded_type_cD2Ev @ 667 NONAME
	_ZN19eap_expanded_type_caSE22eap_type_ietf_values_e @ 668 NONAME
	_ZN19eap_expanded_type_caSERKS_ @ 669 NONAME
	_ZN19eap_expanded_type_cadEv @ 670 NONAME
	_ZN19eap_header_string_c19get_eap_code_stringE16eap_code_value_e @ 671 NONAME
	_ZN19eap_header_string_c19get_eap_type_stringE19eap_expanded_type_c @ 672 NONAME
	_ZN19eap_header_string_cC1Ev @ 673 NONAME
	_ZN19eap_header_string_cC2Ev @ 674 NONAME
	_ZN19eap_header_string_cD0Ev @ 675 NONAME
	_ZN19eap_header_string_cD1Ev @ 676 NONAME
	_ZN19eap_header_string_cD2Ev @ 677 NONAME
	_ZN19eap_status_string_c17get_status_stringE12eap_status_e @ 678 NONAME
	_ZN19eap_status_string_cC1Ev @ 679 NONAME
	_ZN19eap_status_string_cC2Ev @ 680 NONAME
	_ZN19eap_status_string_cD0Ev @ 681 NONAME
	_ZN19eap_status_string_cD1Ev @ 682 NONAME
	_ZN19eap_status_string_cD2Ev @ 683 NONAME
	_ZN19eap_variable_data_c10set_bufferEPKS_ @ 684 NONAME
	_ZN19eap_variable_data_c10set_bufferEPKvmbb @ 685 NONAME
	_ZN19eap_variable_data_c10set_bufferEPvmbb @ 686 NONAME
	_ZN19eap_variable_data_c12add_end_nullEv @ 687 NONAME
	_ZN19eap_variable_data_c12set_is_validEv @ 688 NONAME
	_ZN19eap_variable_data_c14set_is_invalidEv @ 689 NONAME
	_ZN19eap_variable_data_c15allocate_bufferEm @ 690 NONAME
	_ZN19eap_variable_data_c15set_data_lengthEm @ 691 NONAME
	_ZN19eap_variable_data_c16set_start_offsetEm @ 692 NONAME
	_ZN19eap_variable_data_c17set_buffer_lengthEm @ 693 NONAME
	_ZN19eap_variable_data_c18add_data_to_offsetEmPKS_ @ 694 NONAME
	_ZN19eap_variable_data_c18add_data_to_offsetEmPKvm @ 695 NONAME
	_ZN19eap_variable_data_c18initialize_membersEv @ 696 NONAME
	_ZN19eap_variable_data_c18set_copy_of_bufferEPKS_ @ 697 NONAME
	_ZN19eap_variable_data_c18set_copy_of_bufferEPKvm @ 698 NONAME
	_ZN19eap_variable_data_c34reset_start_offset_and_data_lengthEv @ 699 NONAME
	_ZN19eap_variable_data_c4initEm @ 700 NONAME
	_ZN19eap_variable_data_c5resetEv @ 701 NONAME
	_ZN19eap_variable_data_c8add_dataEPKS_ @ 702 NONAME
	_ZN19eap_variable_data_c8add_dataEPKvm @ 703 NONAME
	_ZN19eap_variable_data_cC1EP18abs_eap_am_tools_c @ 704 NONAME
	_ZN19eap_variable_data_cC1EP18abs_eap_am_tools_cPKvmbb @ 705 NONAME
	_ZN19eap_variable_data_cC2EP18abs_eap_am_tools_c @ 706 NONAME
	_ZN19eap_variable_data_cC2EP18abs_eap_am_tools_cPKvmbb @ 707 NONAME
	_ZN19eap_variable_data_cD0Ev @ 708 NONAME
	_ZN19eap_variable_data_cD1Ev @ 709 NONAME
	_ZN19eap_variable_data_cD2Ev @ 710 NONAME
	_ZN19eapol_header_base_c11set_versionE24eapol_protocol_version_e @ 711 NONAME
	_ZN19eapol_header_base_c15set_data_lengthEt @ 712 NONAME
	_ZN19eapol_header_base_c15set_packet_typeE19eapol_packet_type_e @ 713 NONAME
	_ZN19eapol_header_base_c17get_header_lengthEv @ 714 NONAME
	_ZN19eapol_header_base_cC1EP18abs_eap_am_tools_cPvm @ 715 NONAME
	_ZN19eapol_header_base_cC2EP18abs_eap_am_tools_cPvm @ 716 NONAME
	_ZN19eapol_header_base_cD0Ev @ 717 NONAME
	_ZN19eapol_header_base_cD1Ev @ 718 NONAME
	_ZN19eapol_header_base_cD2Ev @ 719 NONAME
	_ZN19eapol_session_key_c12set_key_typeE16eapol_key_type_e @ 720 NONAME
	_ZN19eapol_session_key_c13set_key_indexEm @ 721 NONAME
	_ZN19eapol_session_key_c14set_key_tx_bitEb @ 722 NONAME
	_ZN19eapol_session_key_c19set_sequence_numberEP19eap_variable_data_c @ 723 NONAME
	_ZN19eapol_session_key_c25get_eapol_key_type_stringE16eapol_key_type_e @ 724 NONAME
	_ZN19eapol_session_key_c7set_keyEPK19eap_variable_data_c @ 725 NONAME
	_ZN19eapol_session_key_cC1EP18abs_eap_am_tools_c @ 726 NONAME
	_ZN19eapol_session_key_cC1EP18abs_eap_am_tools_cP19eap_variable_data_c16eapol_key_type_embPKhm @ 727 NONAME
	_ZN19eapol_session_key_cC2EP18abs_eap_am_tools_c @ 728 NONAME
	_ZN19eapol_session_key_cC2EP18abs_eap_am_tools_cP19eap_variable_data_c16eapol_key_type_embPKhm @ 729 NONAME
	_ZN19eapol_session_key_cD0Ev @ 730 NONAME
	_ZN19eapol_session_key_cD1Ev @ 731 NONAME
	_ZN19eapol_session_key_cD2Ev @ 732 NONAME
	_ZN20crypto_tls_md5_prf_c12get_is_validEv @ 733 NONAME
	_ZN20crypto_tls_md5_prf_c12set_is_validEv @ 734 NONAME
	_ZN20crypto_tls_md5_prf_c12tls_prf_initEPK19eap_variable_data_cS2_S2_ @ 735 NONAME
	_ZN20crypto_tls_md5_prf_c14set_is_invalidEv @ 736 NONAME
	_ZN20crypto_tls_md5_prf_c14tls_prf_outputEPvm @ 737 NONAME
	_ZN20crypto_tls_md5_prf_c15tls_prf_cleanupEv @ 738 NONAME
	_ZN20crypto_tls_md5_prf_cC1EP18abs_eap_am_tools_c @ 739 NONAME
	_ZN20crypto_tls_md5_prf_cC2EP18abs_eap_am_tools_c @ 740 NONAME
	_ZN20crypto_tls_md5_prf_cD0Ev @ 741 NONAME
	_ZN20crypto_tls_md5_prf_cD1Ev @ 742 NONAME
	_ZN20crypto_tls_md5_prf_cD2Ev @ 743 NONAME
	_ZN20eap_am_crypto_sha1_c10hash_finalEPvPm @ 744 NONAME
	_ZN20eap_am_crypto_sha1_c11hash_updateEPKvm @ 745 NONAME
	_ZN20eap_am_crypto_sha1_c12copy_contextEPK19eap_variable_data_cyPKmS4_S4_ @ 746 NONAME
	_ZN20eap_am_crypto_sha1_c12get_is_validEv @ 747 NONAME
	_ZN20eap_am_crypto_sha1_c12hash_cleanupEv @ 748 NONAME
	_ZN20eap_am_crypto_sha1_c12set_is_validEv @ 749 NONAME
	_ZN20eap_am_crypto_sha1_c14get_block_sizeEv @ 750 NONAME
	_ZN20eap_am_crypto_sha1_c14set_is_invalidEv @ 751 NONAME
	_ZN20eap_am_crypto_sha1_c17get_digest_lengthEv @ 752 NONAME
	_ZN20eap_am_crypto_sha1_c19copy_message_digestEPvPm @ 753 NONAME
	_ZN20eap_am_crypto_sha1_c23eap_sha1_dss_G_functionEPKvmPvPm @ 754 NONAME
	_ZN20eap_am_crypto_sha1_c32eap_sha1_process_data_host_orderEPKmm @ 755 NONAME
	_ZN20eap_am_crypto_sha1_c35eap_sha1_process_data_network_orderEPKmm @ 756 NONAME
	_ZN20eap_am_crypto_sha1_c4copyEv @ 757 NONAME
	_ZN20eap_am_crypto_sha1_c9hash_initEv @ 758 NONAME
	_ZN20eap_am_crypto_sha1_cC1EP18abs_eap_am_tools_c @ 759 NONAME
	_ZN20eap_am_crypto_sha1_cC2EP18abs_eap_am_tools_c @ 760 NONAME
	_ZN20eap_am_crypto_sha1_cD0Ev @ 761 NONAME
	_ZN20eap_am_crypto_sha1_cD1Ev @ 762 NONAME
	_ZN20eap_am_crypto_sha1_cD2Ev @ 763 NONAME
	_ZN20eap_buf_chain_base_c10initializeEm @ 764 NONAME
	_ZN20eap_buf_chain_base_c11set_encryptEb @ 765 NONAME
	_ZN20eap_buf_chain_base_c12get_am_toolsEv @ 766 NONAME
	_ZN20eap_buf_chain_base_c13set_is_clientEb @ 767 NONAME
	_ZN20eap_buf_chain_base_c15set_data_lengthEm @ 768 NONAME
	_ZN20eap_buf_chain_base_c17reset_data_bufferEv @ 769 NONAME
	_ZN20eap_buf_chain_base_c17set_buffer_lengthEm @ 770 NONAME
	_ZN20eap_buf_chain_base_c17set_stack_addressEPKv @ 771 NONAME
	_ZN20eap_buf_chain_base_c18add_data_to_offsetEmPK19eap_variable_data_c @ 772 NONAME
	_ZN20eap_buf_chain_base_c18add_data_to_offsetEmPKvm @ 773 NONAME
	_ZN20eap_buf_chain_base_c18get_is_manipulatedEv @ 774 NONAME
	_ZN20eap_buf_chain_base_c18set_is_manipulatedEv @ 775 NONAME
	_ZN20eap_buf_chain_base_c19set_mem_guard_bytesEv @ 776 NONAME
	_ZN20eap_buf_chain_base_c20get_mem_guard_lengthEv @ 777 NONAME
	_ZN20eap_buf_chain_base_c20set_do_length_checksEb @ 778 NONAME
	_ZN20eap_buf_chain_base_c21get_random_error_typeEv @ 779 NONAME
	_ZN20eap_buf_chain_base_c21get_send_packet_indexEv @ 780 NONAME
	_ZN20eap_buf_chain_base_c21set_random_error_typeE21eap_random_error_type @ 781 NONAME
	_ZN20eap_buf_chain_base_c21set_send_packet_indexEm @ 782 NONAME
	_ZN20eap_buf_chain_base_c28get_do_packet_retransmissionEv @ 783 NONAME
	_ZN20eap_buf_chain_base_c28set_do_packet_retransmissionEb @ 784 NONAME
	_ZN20eap_buf_chain_base_c8add_dataEPK19eap_variable_data_c @ 785 NONAME
	_ZN20eap_buf_chain_base_c8add_dataEPKvm @ 786 NONAME
	_ZN20eap_buf_chain_base_cC2E17eap_read_buffer_eP18abs_eap_am_tools_cPKhmb @ 787 NONAME
	_ZN20eap_buf_chain_base_cC2E17eap_read_buffer_eP18abs_eap_am_tools_cm @ 788 NONAME
	_ZN20eap_buf_chain_base_cC2E18eap_write_buffer_eP18abs_eap_am_tools_cPhmbbm @ 789 NONAME
	_ZN20eap_buf_chain_base_cC2E18eap_write_buffer_eP18abs_eap_am_tools_cm @ 790 NONAME
	_ZN20eap_buf_chain_base_cD0Ev @ 791 NONAME
	_ZN20eap_buf_chain_base_cD1Ev @ 792 NONAME
	_ZN20eap_buf_chain_base_cD2Ev @ 793 NONAME
	_ZN20eap_rogue_ap_entry_c15set_mac_addressEPKh @ 794 NONAME
	_ZN20eap_rogue_ap_entry_c16set_rogue_reasonE21eap_rogue_ap_reason_e @ 795 NONAME
	_ZN20eap_rogue_ap_entry_cC1EP18abs_eap_am_tools_c @ 796 NONAME
	_ZN20eap_rogue_ap_entry_cC2EP18abs_eap_am_tools_c @ 797 NONAME
	_ZN20eap_rogue_ap_entry_cD0Ev @ 798 NONAME
	_ZN20eap_rogue_ap_entry_cD1Ev @ 799 NONAME
	_ZN20eap_rogue_ap_entry_cD2Ev @ 800 NONAME
	_ZN20eap_type_selection_cC1EP18abs_eap_am_tools_c19eap_expanded_type_cb @ 801 NONAME
	_ZN20eap_type_selection_cC2EP18abs_eap_am_tools_c19eap_expanded_type_cb @ 802 NONAME
	_ZN20eap_type_selection_cD0Ev @ 803 NONAME
	_ZN20eap_type_selection_cD1Ev @ 804 NONAME
	_ZN20eap_type_selection_cD2Ev @ 805 NONAME
	_ZN21crypto_tls_base_prf_c12get_is_validEv @ 806 NONAME
	_ZN21crypto_tls_base_prf_c12set_is_validEv @ 807 NONAME
	_ZN21crypto_tls_base_prf_c14set_is_invalidEv @ 808 NONAME
	_ZN21crypto_tls_base_prf_c15tls_prf_A_valueEP27abs_crypto_hmac_algorithm_cP19eap_variable_data_cS3_S3_ @ 809 NONAME
	_ZN21crypto_tls_base_prf_c15tls_prf_cleanupEv @ 810 NONAME
	_ZN21crypto_tls_base_prf_c17tls_prf_one_roundEP27abs_crypto_hmac_algorithm_cPK19eap_variable_data_cPS2_S5_Pvm @ 811 NONAME
	_ZN21crypto_tls_base_prf_cC1EP18abs_eap_am_tools_c @ 812 NONAME
	_ZN21crypto_tls_base_prf_cC2EP18abs_eap_am_tools_c @ 813 NONAME
	_ZN21crypto_tls_base_prf_cD0Ev @ 814 NONAME
	_ZN21crypto_tls_base_prf_cD1Ev @ 815 NONAME
	_ZN21crypto_tls_base_prf_cD2Ev @ 816 NONAME
	_ZN21crypto_tls_sha1_prf_c12get_is_validEv @ 817 NONAME
	_ZN21crypto_tls_sha1_prf_c12set_is_validEv @ 818 NONAME
	_ZN21crypto_tls_sha1_prf_c12tls_prf_initEPK19eap_variable_data_cS2_S2_ @ 819 NONAME
	_ZN21crypto_tls_sha1_prf_c14set_is_invalidEv @ 820 NONAME
	_ZN21crypto_tls_sha1_prf_c14tls_prf_outputEPvm @ 821 NONAME
	_ZN21crypto_tls_sha1_prf_c15tls_prf_cleanupEv @ 822 NONAME
	_ZN21crypto_tls_sha1_prf_cC1EP18abs_eap_am_tools_c @ 823 NONAME
	_ZN21crypto_tls_sha1_prf_cC2EP18abs_eap_am_tools_c @ 824 NONAME
	_ZN21crypto_tls_sha1_prf_cD0Ev @ 825 NONAME
	_ZN21crypto_tls_sha1_prf_cD1Ev @ 826 NONAME
	_ZN21crypto_tls_sha1_prf_cD2Ev @ 827 NONAME
	_ZN21eap_am_memory_store_c11remove_dataEPK19eap_variable_data_c @ 828 NONAME
	_ZN21eap_am_memory_store_c12get_is_validEv @ 829 NONAME
	_ZN21eap_am_memory_store_c12set_is_validEv @ 830 NONAME
	_ZN21eap_am_memory_store_c13timer_expiredEmPv @ 831 NONAME
	_ZN21eap_am_memory_store_c17timer_delete_dataEmPv @ 832 NONAME
	_ZN21eap_am_memory_store_c8add_dataEPK19eap_variable_data_cPK22eap_tlv_message_data_cm @ 833 NONAME
	_ZN21eap_am_memory_store_c8get_dataEPK19eap_variable_data_cP22eap_tlv_message_data_c @ 834 NONAME
	_ZN21eap_am_memory_store_c8shutdownEv @ 835 NONAME
	_ZN21eap_am_memory_store_cC1EP18abs_eap_am_tools_c @ 836 NONAME
	_ZN21eap_am_memory_store_cC2EP18abs_eap_am_tools_c @ 837 NONAME
	_ZN21eap_am_memory_store_cD0Ev @ 838 NONAME
	_ZN21eap_am_memory_store_cD1Ev @ 839 NONAME
	_ZN21eap_am_memory_store_cD2Ev @ 840 NONAME
	_ZN22eap_am_mutex_symbian_c11mutex_enterEv @ 841 NONAME
	_ZN22eap_am_mutex_symbian_c11mutex_leaveEP18abs_eap_am_tools_c @ 842 NONAME
	_ZN22eap_am_mutex_symbian_c15dublicate_mutexEv @ 843 NONAME
	_ZN22eap_am_mutex_symbian_cC1EPKS_ @ 844 NONAME
	_ZN22eap_am_mutex_symbian_cC1Ev @ 845 NONAME
	_ZN22eap_am_mutex_symbian_cC2EPKS_ @ 846 NONAME
	_ZN22eap_am_mutex_symbian_cC2Ev @ 847 NONAME
	_ZN22eap_am_mutex_symbian_cD0Ev @ 848 NONAME
	_ZN22eap_am_mutex_symbian_cD1Ev @ 849 NONAME
	_ZN22eap_am_mutex_symbian_cD2Ev @ 850 NONAME
	_ZN22eap_am_tools_symbian_c10get_cryptoEv @ 851 NONAME
	_ZN22eap_am_tools_symbian_c11pulse_timerEm @ 852 NONAME
	_ZN22eap_am_tools_symbian_c11timer_sleepEm @ 853 NONAME
	_ZN22eap_am_tools_symbian_c12am_set_timerEP20abs_eap_base_timer_cmPvm @ 854 NONAME
	_ZN22eap_am_tools_symbian_c13config_strlenEPKc @ 855 NONAME
	_ZN22eap_am_tools_symbian_c15am_cancel_timerEP20abs_eap_base_timer_cm @ 856 NONAME
	_ZN22eap_am_tools_symbian_c15begin_db_deleteER7RDbView @ 857 NONAME
	_ZN22eap_am_tools_symbian_c15begin_db_updateER7RDbView @ 858 NONAME
	_ZN22eap_am_tools_symbian_c15enter_crypto_csEv @ 859 NONAME
	_ZN22eap_am_tools_symbian_c15formatted_printEPKcz @ 860 NONAME
	_ZN22eap_am_tools_symbian_c15get_clock_ticksEv @ 861 NONAME
	_ZN22eap_am_tools_symbian_c15get_trace_mutexEv @ 862 NONAME
	_ZN22eap_am_tools_symbian_c15leave_crypto_csEv @ 863 NONAME
	_ZN22eap_am_tools_symbian_c16get_global_mutexEv @ 864 NONAME
	_ZN22eap_am_tools_symbian_c16set_trace_prefixEPK19eap_variable_data_c @ 865 NONAME
	_ZN22eap_am_tools_symbian_c17enter_trace_mutexEv @ 866 NONAME
	_ZN22eap_am_tools_symbian_c17get_gmt_unix_timeEv @ 867 NONAME
	_ZN22eap_am_tools_symbian_c17leave_trace_mutexEv @ 868 NONAME
	_ZN22eap_am_tools_symbian_c18enter_global_mutexEv @ 869 NONAME
	_ZN22eap_am_tools_symbian_c18get_hardware_ticksEv @ 870 NONAME
	_ZN22eap_am_tools_symbian_c18leave_global_mutexEv @ 871 NONAME
	_ZN22eap_am_tools_symbian_c19set_trace_file_nameEPK19eap_variable_data_c @ 872 NONAME
	_ZN22eap_am_tools_symbian_c19u64_struct_to_u64_tE10u64_struct @ 873 NONAME
	_ZN22eap_am_tools_symbian_c19u64_t_to_u64_structEy @ 874 NONAME
	_ZN22eap_am_tools_symbian_c20am_cancel_all_timersEv @ 875 NONAME
	_ZN22eap_am_tools_symbian_c20begin_db_transactionER16RDbNamedDatabase @ 876 NONAME
	_ZN22eap_am_tools_symbian_c23convert_unicode_to_utf8ER19eap_variable_data_cRKS0_ @ 877 NONAME
	_ZN22eap_am_tools_symbian_c23convert_utf8_to_unicodeER19eap_variable_data_cRKS0_ @ 878 NONAME
	_ZN22eap_am_tools_symbian_c23get_timer_resolution_msEv @ 879 NONAME
	_ZN22eap_am_tools_symbian_c23re_activate_timer_queueEv @ 880 NONAME
	_ZN22eap_am_tools_symbian_c23set_max_trace_file_sizeEm @ 881 NONAME
	_ZN22eap_am_tools_symbian_c23set_timer_resolution_msEm @ 882 NONAME
	_ZN22eap_am_tools_symbian_c24get_timer_queue_is_emptyEv @ 883 NONAME
	_ZN22eap_am_tools_symbian_c25get_clock_ticks_of_secondEv @ 884 NONAME
	_ZN22eap_am_tools_symbian_c26get_is_timer_thread_activeEv @ 885 NONAME
	_ZN22eap_am_tools_symbian_c28get_hardware_ticks_of_secondEv @ 886 NONAME
	_ZN22eap_am_tools_symbian_c30get_use_eap_milli_second_timerEv @ 887 NONAME
	_ZN22eap_am_tools_symbian_c30set_use_eap_milli_second_timerEb @ 888 NONAME
	_ZN22eap_am_tools_symbian_c31convert_am_error_to_eapol_errorEl @ 889 NONAME
	_ZN22eap_am_tools_symbian_c31convert_eapol_error_to_am_errorE12eap_status_e @ 890 NONAME
	_ZN22eap_am_tools_symbian_c5sleepEm @ 891 NONAME
	_ZN22eap_am_tools_symbian_c6getenvEPK19eap_variable_data_cPS0_ @ 892 NONAME
	_ZN22eap_am_tools_symbian_c6memchrEPKvhm @ 893 NONAME
	_ZN22eap_am_tools_symbian_c6memcmpEPKvS1_m @ 894 NONAME
	_ZN22eap_am_tools_symbian_c6memsetEPvlm @ 895 NONAME
	_ZN22eap_am_tools_symbian_c6sprintER6TDes16PKcz @ 896 NONAME
	_ZN22eap_am_tools_symbian_c6strlenEPKc @ 897 NONAME
	_ZN22eap_am_tools_symbian_c7isspaceEh @ 898 NONAME
	_ZN22eap_am_tools_symbian_c7memmoveEPvPKvm @ 899 NONAME
	_ZN22eap_am_tools_symbian_c7memrchrEPKvhm @ 900 NONAME
	_ZN22eap_am_tools_symbian_c8shutdownEv @ 901 NONAME
	_ZN22eap_am_tools_symbian_c8snprintfEPhmPKcz @ 902 NONAME
	_ZN22eap_am_tools_symbian_c9configureEv @ 903 NONAME
	_ZN22eap_am_tools_symbian_cC1EPKc @ 904 NONAME
	_ZN22eap_am_tools_symbian_cC2EPKc @ 905 NONAME
	_ZN22eap_am_tools_symbian_cD0Ev @ 906 NONAME
	_ZN22eap_am_tools_symbian_cD1Ev @ 907 NONAME
	_ZN22eap_am_tools_symbian_cD2Ev @ 908 NONAME
	_ZN22eap_tlv_message_data_c12get_is_validEv @ 909 NONAME
	_ZN22eap_tlv_message_data_c16add_message_dataEmmPKv @ 910 NONAME
	_ZN22eap_tlv_message_data_c16set_message_dataEmPKv @ 911 NONAME
	_ZN22eap_tlv_message_data_c17copy_message_dataEmPKv @ 912 NONAME
	_ZN22eap_tlv_message_data_c18add_message_headerEmm @ 913 NONAME
	_ZN22eap_tlv_message_data_c18parse_message_dataEP11eap_array_cI16eap_tlv_header_cE @ 914 NONAME
	_ZN22eap_tlv_message_data_c22add_message_data_arrayEmmP11eap_array_cI19eap_variable_data_cE @ 915 NONAME
	_ZN22eap_tlv_message_data_c23allocate_message_bufferEmmPPv @ 916 NONAME
	_ZN22eap_tlv_message_data_c28allocate_message_data_bufferEm @ 917 NONAME
	_ZN22eap_tlv_message_data_c31object_decrease_reference_countEv @ 918 NONAME
	_ZN22eap_tlv_message_data_c31object_increase_reference_countEv @ 919 NONAME
	_ZN22eap_tlv_message_data_cC1EP18abs_eap_am_tools_c @ 920 NONAME
	_ZN22eap_tlv_message_data_cC2EP18abs_eap_am_tools_c @ 921 NONAME
	_ZN22eap_tlv_message_data_cD0Ev @ 922 NONAME
	_ZN22eap_tlv_message_data_cD1Ev @ 923 NONAME
	_ZN22eap_tlv_message_data_cD2Ev @ 924 NONAME
	_ZN23crypto_kd_hmac_sha256_c10expand_keyEP19eap_variable_data_cmPKS0_S3_ @ 925 NONAME
	_ZN23crypto_kd_hmac_sha256_c12get_is_validEv @ 926 NONAME
	_ZN23crypto_kd_hmac_sha256_cC1EP18abs_eap_am_tools_c @ 927 NONAME
	_ZN23crypto_kd_hmac_sha256_cC2EP18abs_eap_am_tools_c @ 928 NONAME
	_ZN23crypto_kd_hmac_sha256_cD0Ev @ 929 NONAME
	_ZN23crypto_kd_hmac_sha256_cD1Ev @ 930 NONAME
	_ZN23crypto_kd_hmac_sha256_cD2Ev @ 931 NONAME
	_ZN23eap_am_crypto_sha_256_c10hash_finalEPvPm @ 932 NONAME
	_ZN23eap_am_crypto_sha_256_c11hash_updateEPKvm @ 933 NONAME
	_ZN23eap_am_crypto_sha_256_c12copy_contextEPK19eap_variable_data_cyPKmS4_S4_ @ 934 NONAME
	_ZN23eap_am_crypto_sha_256_c12get_is_validEv @ 935 NONAME
	_ZN23eap_am_crypto_sha_256_c12hash_cleanupEv @ 936 NONAME
	_ZN23eap_am_crypto_sha_256_c12set_is_validEv @ 937 NONAME
	_ZN23eap_am_crypto_sha_256_c14get_block_sizeEv @ 938 NONAME
	_ZN23eap_am_crypto_sha_256_c14set_is_invalidEv @ 939 NONAME
	_ZN23eap_am_crypto_sha_256_c17get_digest_lengthEv @ 940 NONAME
	_ZN23eap_am_crypto_sha_256_c19copy_message_digestEPvPm @ 941 NONAME
	_ZN23eap_am_crypto_sha_256_c35eap_sha_256_process_data_host_orderEPKmm @ 942 NONAME
	_ZN23eap_am_crypto_sha_256_c38eap_sha_256_process_data_network_orderEPKmm @ 943 NONAME
	_ZN23eap_am_crypto_sha_256_c4copyEv @ 944 NONAME
	_ZN23eap_am_crypto_sha_256_c9hash_initEv @ 945 NONAME
	_ZN23eap_am_crypto_sha_256_cC1EP18abs_eap_am_tools_c @ 946 NONAME
	_ZN23eap_am_crypto_sha_256_cC2EP18abs_eap_am_tools_c @ 947 NONAME
	_ZN23eap_am_crypto_sha_256_cD0Ev @ 948 NONAME
	_ZN23eap_am_crypto_sha_256_cD1Ev @ 949 NONAME
	_ZN23eap_am_crypto_sha_256_cD2Ev @ 950 NONAME
	_ZN23eap_am_crypto_symbian_c10dh_cleanupEPK19eap_variable_data_c @ 951 NONAME
	_ZN23eap_am_crypto_symbian_c10dsa_verifyEP19eap_variable_data_cPKS0_S3_S3_S3_S3_S3_ @ 952 NONAME
	_ZN23eap_am_crypto_symbian_c10md4_updateEP19eap_variable_data_cPKhm @ 953 NONAME
	_ZN23eap_am_crypto_symbian_c10md5_updateEP19eap_variable_data_cPKhm @ 954 NONAME
	_ZN23eap_am_crypto_symbian_c10rsa_verifyEP19eap_variable_data_cPKS0_S3_S3_ @ 955 NONAME
	_ZN23eap_am_crypto_symbian_c10sha1_finalEP19eap_variable_data_cPhPm @ 956 NONAME
	_ZN23eap_am_crypto_symbian_c11aes_cleanupEP19eap_variable_data_c @ 957 NONAME
	_ZN23eap_am_crypto_symbian_c11dsa_cleanupEP19eap_variable_data_c @ 958 NONAME
	_ZN23eap_am_crypto_symbian_c11md4_cleanupEP19eap_variable_data_c @ 959 NONAME
	_ZN23eap_am_crypto_symbian_c11md5_cleanupEP19eap_variable_data_c @ 960 NONAME
	_ZN23eap_am_crypto_symbian_c11rc4_cleanupEP19eap_variable_data_c @ 961 NONAME
	_ZN23eap_am_crypto_symbian_c11rc4_decryptEPK19eap_variable_data_cPKvPvm @ 962 NONAME
	_ZN23eap_am_crypto_symbian_c11rc4_decryptEPK19eap_variable_data_cPvm @ 963 NONAME
	_ZN23eap_am_crypto_symbian_c11rc4_encryptEPK19eap_variable_data_cPKvPvm @ 964 NONAME
	_ZN23eap_am_crypto_symbian_c11rc4_encryptEPK19eap_variable_data_cPvm @ 965 NONAME
	_ZN23eap_am_crypto_symbian_c11rc4_set_keyEP19eap_variable_data_cPKS0_ @ 966 NONAME
	_ZN23eap_am_crypto_symbian_c11rsa_cleanupEP19eap_variable_data_c @ 967 NONAME
	_ZN23eap_am_crypto_symbian_c11sha1_updateEP19eap_variable_data_cPKhm @ 968 NONAME
	_ZN23eap_am_crypto_symbian_c12set_is_validEv @ 969 NONAME
	_ZN23eap_am_crypto_symbian_c12sha1_cleanupEP19eap_variable_data_c @ 970 NONAME
	_ZN23eap_am_crypto_symbian_c12sha_256_initEP19eap_variable_data_c @ 971 NONAME
	_ZN23eap_am_crypto_symbian_c13add_rand_seedEPKhm @ 972 NONAME
	_ZN23eap_am_crypto_symbian_c13sha_256_finalEP19eap_variable_data_cPhPm @ 973 NONAME
	_ZN23eap_am_crypto_symbian_c14aes_block_sizeEv @ 974 NONAME
	_ZN23eap_am_crypto_symbian_c14aes_key_lengthEv @ 975 NONAME
	_ZN23eap_am_crypto_symbian_c14get_rand_bytesEPhm @ 976 NONAME
	_ZN23eap_am_crypto_symbian_c14sha_256_updateEP19eap_variable_data_cPKhm @ 977 NONAME
	_ZN23eap_am_crypto_symbian_c15sha_256_cleanupEP19eap_variable_data_c @ 978 NONAME
	_ZN23eap_am_crypto_symbian_c15use_test_randomEPKhmb @ 979 NONAME
	_ZN23eap_am_crypto_symbian_c16cleanup_3des_edeEP19eap_variable_data_c @ 980 NONAME
	_ZN23eap_am_crypto_symbian_c16md4_copy_contextEP19eap_variable_data_cPKS0_ @ 981 NONAME
	_ZN23eap_am_crypto_symbian_c16md5_copy_contextEP19eap_variable_data_cPKS0_ @ 982 NONAME
	_ZN23eap_am_crypto_symbian_c17aes_decrypt_blockEP19eap_variable_data_cPKhPhm @ 983 NONAME
	_ZN23eap_am_crypto_symbian_c17aes_encrypt_blockEP19eap_variable_data_cPKhPhm @ 984 NONAME
	_ZN23eap_am_crypto_symbian_c17dss_pseudo_randomEPhmS0_m @ 985 NONAME
	_ZN23eap_am_crypto_symbian_c17sha1_copy_contextEP19eap_variable_data_cPKS0_ @ 986 NONAME
	_ZN23eap_am_crypto_symbian_c18get_md4_block_sizeEP19eap_variable_data_c @ 987 NONAME
	_ZN23eap_am_crypto_symbian_c18get_md5_block_sizeEP19eap_variable_data_c @ 988 NONAME
	_ZN23eap_am_crypto_symbian_c19block_size_3des_edeEv @ 989 NONAME
	_ZN23eap_am_crypto_symbian_c19get_sha1_block_sizeEP19eap_variable_data_c @ 990 NONAME
	_ZN23eap_am_crypto_symbian_c19key_length_3des_edeEv @ 991 NONAME
	_ZN23eap_am_crypto_symbian_c20sha_256_copy_contextEP19eap_variable_data_cPKS0_ @ 992 NONAME
	_ZN23eap_am_crypto_symbian_c21get_md4_digest_lengthEP19eap_variable_data_c @ 993 NONAME
	_ZN23eap_am_crypto_symbian_c21get_md5_digest_lengthEP19eap_variable_data_c @ 994 NONAME
	_ZN23eap_am_crypto_symbian_c22add_rand_seed_hw_ticksEv @ 995 NONAME
	_ZN23eap_am_crypto_symbian_c22aes_set_decryption_keyEP19eap_variable_data_cPKhm @ 996 NONAME
	_ZN23eap_am_crypto_symbian_c22aes_set_encryption_keyEP19eap_variable_data_cPKhm @ 997 NONAME
	_ZN23eap_am_crypto_symbian_c22decrypt_block_3des_edeEP19eap_variable_data_cPKhPhm @ 998 NONAME
	_ZN23eap_am_crypto_symbian_c22encrypt_block_3des_edeEP19eap_variable_data_cPKhPhm @ 999 NONAME
	_ZN23eap_am_crypto_symbian_c22generate_g_power_to_xyEPK19eap_variable_data_cS2_PS0_PKhmS5_m @ 1000 NONAME
	_ZN23eap_am_crypto_symbian_c22get_sha1_digest_lengthEP19eap_variable_data_c @ 1001 NONAME
	_ZN23eap_am_crypto_symbian_c22get_sha_256_block_sizeEP19eap_variable_data_c @ 1002 NONAME
	_ZN23eap_am_crypto_symbian_c24open_crypto_memory_leaksEv @ 1003 NONAME
	_ZN23eap_am_crypto_symbian_c25close_crypto_memory_leaksEv @ 1004 NONAME
	_ZN23eap_am_crypto_symbian_c25get_sha_256_digest_lengthEP19eap_variable_data_c @ 1005 NONAME
	_ZN23eap_am_crypto_symbian_c27rsa_decrypt_with_public_keyEP19eap_variable_data_cPKS0_S3_S1_ @ 1006 NONAME
	_ZN23eap_am_crypto_symbian_c27rsa_encrypt_with_public_keyEP19eap_variable_data_cPKS0_S3_S1_ @ 1007 NONAME
	_ZN23eap_am_crypto_symbian_c27set_decryption_key_3des_edeEP19eap_variable_data_cPKhm @ 1008 NONAME
	_ZN23eap_am_crypto_symbian_c27set_encryption_key_3des_edeEP19eap_variable_data_cPKhm @ 1009 NONAME
	_ZN23eap_am_crypto_symbian_c28generate_diffie_hellman_keysEP19eap_variable_data_cS1_PKhmS3_m @ 1010 NONAME
	_ZN23eap_am_crypto_symbian_c28rsa_decrypt_with_private_keyEP19eap_variable_data_cPKS0_S3_S1_ @ 1011 NONAME
	_ZN23eap_am_crypto_symbian_c28rsa_encrypt_with_private_keyEP19eap_variable_data_cPKS0_S3_S1_ @ 1012 NONAME
	_ZN23eap_am_crypto_symbian_c8dsa_initEP19eap_variable_data_c @ 1013 NONAME
	_ZN23eap_am_crypto_symbian_c8dsa_signEP19eap_variable_data_cPKS0_S3_S1_ @ 1014 NONAME
	_ZN23eap_am_crypto_symbian_c8md4_initEP19eap_variable_data_c @ 1015 NONAME
	_ZN23eap_am_crypto_symbian_c8md5_initEP19eap_variable_data_c @ 1016 NONAME
	_ZN23eap_am_crypto_symbian_c8rsa_initEP19eap_variable_data_c @ 1017 NONAME
	_ZN23eap_am_crypto_symbian_c8rsa_signEP19eap_variable_data_cPKS0_S3_S1_ @ 1018 NONAME
	_ZN23eap_am_crypto_symbian_c9configureEv @ 1019 NONAME
	_ZN23eap_am_crypto_symbian_c9md4_finalEP19eap_variable_data_cPhPm @ 1020 NONAME
	_ZN23eap_am_crypto_symbian_c9md5_finalEP19eap_variable_data_cPhPm @ 1021 NONAME
	_ZN23eap_am_crypto_symbian_c9sha1_initEP19eap_variable_data_c @ 1022 NONAME
	_ZN23eap_am_crypto_symbian_cC1EP18abs_eap_am_tools_c @ 1023 NONAME
	_ZN23eap_am_crypto_symbian_cC2EP18abs_eap_am_tools_c @ 1024 NONAME
	_ZN23eap_am_crypto_symbian_cD0Ev @ 1025 NONAME
	_ZN23eap_am_crypto_symbian_cD1Ev @ 1026 NONAME
	_ZN23eap_am_crypto_symbian_cD2Ev @ 1027 NONAME
	_ZN23eap_session_core_base_c22new_eap_session_core_cEP18abs_eap_am_tools_cP22abs_eap_session_core_cbm @ 1028 NONAME
	_ZN23eap_session_core_base_cC2Ev @ 1029 NONAME
	_ZN23eap_session_core_base_cD0Ev @ 1030 NONAME
	_ZN23eap_session_core_base_cD1Ev @ 1031 NONAME
	_ZN23eap_session_core_base_cD2Ev @ 1032 NONAME
	_ZN23network_key_and_index_c12get_is_validEv @ 1033 NONAME
	_ZN23network_key_and_index_c15get_network_keyEv @ 1034 NONAME
	_ZN23network_key_and_index_c17get_is_valid_dataEv @ 1035 NONAME
	_ZN23network_key_and_index_c21set_network_key_indexEh @ 1036 NONAME
	_ZN23network_key_and_index_c4copyEv @ 1037 NONAME
	_ZN23network_key_and_index_cC1EP18abs_eap_am_tools_c @ 1038 NONAME
	_ZN23network_key_and_index_cC2EP18abs_eap_am_tools_c @ 1039 NONAME
	_ZN23network_key_and_index_cD0Ev @ 1040 NONAME
	_ZN23network_key_and_index_cD1Ev @ 1041 NONAME
	_ZN23network_key_and_index_cD2Ev @ 1042 NONAME
	_ZN24eap_am_mutex_reference_c13add_referenceEv @ 1043 NONAME
	_ZN24eap_am_mutex_reference_c15get_is_reservedEv @ 1044 NONAME
	_ZN24eap_am_mutex_reference_c15set_is_reservedEb @ 1045 NONAME
	_ZN24eap_am_mutex_reference_c16remove_referenceEv @ 1046 NONAME
	_ZN24eap_am_mutex_reference_c19get_reference_countEv @ 1047 NONAME
	_ZN24eap_am_mutex_reference_cC1Ev @ 1048 NONAME
	_ZN24eap_am_mutex_reference_cC2Ev @ 1049 NONAME
	_ZN24eap_am_mutex_reference_cD0Ev @ 1050 NONAME
	_ZN24eap_am_mutex_reference_cD1Ev @ 1051 NONAME
	_ZN24eap_am_mutex_reference_cD2Ev @ 1052 NONAME
	_ZN24eap_master_session_key_c12set_eap_typeE19eap_expanded_type_c @ 1053 NONAME
	_ZN24eap_master_session_key_c18copy_leap_passwordEPK19eap_variable_data_c @ 1054 NONAME
	_ZN24eap_master_session_key_c8set_copyEPKS_ @ 1055 NONAME
	_ZN24eap_master_session_key_cC1EP18abs_eap_am_tools_c19eap_expanded_type_c @ 1056 NONAME
	_ZN24eap_master_session_key_cC2EP18abs_eap_am_tools_c19eap_expanded_type_c @ 1057 NONAME
	_ZN24eap_master_session_key_cD0Ev @ 1058 NONAME
	_ZN24eap_master_session_key_cD1Ev @ 1059 NONAME
	_ZN24eap_master_session_key_cD2Ev @ 1060 NONAME
	_ZN24eap_state_notification_c16get_state_stringEmm @ 1061 NONAME
	_ZN24eap_state_notification_c19get_protocol_stringEmm @ 1062 NONAME
	_ZN24eap_state_notification_c23set_notification_stringEPK19eap_variable_data_cb @ 1063 NONAME
	_ZN24eap_state_notification_c24set_authentication_errorE12eap_status_e @ 1064 NONAME
	_ZN24eap_state_notification_c25get_protocol_layer_stringEm @ 1065 NONAME
	_ZN24eap_state_notification_cC1EP18abs_eap_am_tools_cPK19eap_am_network_id_cb28eap_state_notification_eap_e20eap_protocol_layer_e19eap_expanded_type_cmmhb @ 1066 NONAME
	_ZN24eap_state_notification_cC1EP18abs_eap_am_tools_cPK19eap_am_network_id_cb28eap_state_notification_eap_e20eap_protocol_layer_e22eap_type_ietf_values_emmhb @ 1067 NONAME
	_ZN24eap_state_notification_cC1EP18abs_eap_am_tools_cPK19eap_am_network_id_cb32eap_state_notification_generic_e20eap_protocol_layer_emmmhb @ 1068 NONAME
	_ZN24eap_state_notification_cC2EP18abs_eap_am_tools_cPK19eap_am_network_id_cb28eap_state_notification_eap_e20eap_protocol_layer_e19eap_expanded_type_cmmhb @ 1069 NONAME
	_ZN24eap_state_notification_cC2EP18abs_eap_am_tools_cPK19eap_am_network_id_cb28eap_state_notification_eap_e20eap_protocol_layer_e22eap_type_ietf_values_emmhb @ 1070 NONAME
	_ZN24eap_state_notification_cC2EP18abs_eap_am_tools_cPK19eap_am_network_id_cb32eap_state_notification_generic_e20eap_protocol_layer_emmmhb @ 1071 NONAME
	_ZN24eap_state_notification_cD0Ev @ 1072 NONAME
	_ZN24eap_state_notification_cD1Ev @ 1073 NONAME
	_ZN24eap_state_notification_cD2Ev @ 1074 NONAME
	_ZN25eap_core_retransmission_c19get_send_network_idEv @ 1075 NONAME
	_ZN25eap_core_retransmission_c28get_next_retransmission_timeEv @ 1076 NONAME
	_ZN25eap_core_retransmission_c31get_next_retransmission_counterEv @ 1077 NONAME
	_ZN25eap_core_retransmission_cC1EP18abs_eap_am_tools_cPK19eap_am_network_id_cP18eap_buf_chain_wr_cmmmm16eap_code_value_eh19eap_expanded_type_c @ 1078 NONAME
	_ZN25eap_core_retransmission_cC2EP18abs_eap_am_tools_cPK19eap_am_network_id_cP18eap_buf_chain_wr_cmmmm16eap_code_value_eh19eap_expanded_type_c @ 1079 NONAME
	_ZN25eap_core_retransmission_cD0Ev @ 1080 NONAME
	_ZN25eap_core_retransmission_cD1Ev @ 1081 NONAME
	_ZN25eap_core_retransmission_cD2Ev @ 1082 NONAME
	_ZN25eap_general_header_base_c17set_header_bufferEPhm @ 1083 NONAME
	_ZN25eap_general_header_base_cC2EP18abs_eap_am_tools_cPvm @ 1084 NONAME
	_ZN25eap_general_header_base_cD0Ev @ 1085 NONAME
	_ZN25eap_general_header_base_cD1Ev @ 1086 NONAME
	_ZN25eap_general_header_base_cD2Ev @ 1087 NONAME
	_ZN25eap_network_id_selector_c12set_selectorEPK19eap_am_network_id_c @ 1088 NONAME
	_ZN25eap_network_id_selector_cC1EP18abs_eap_am_tools_c @ 1089 NONAME
	_ZN25eap_network_id_selector_cC1EP18abs_eap_am_tools_cPK19eap_am_network_id_c @ 1090 NONAME
	_ZN25eap_network_id_selector_cC1EP18abs_eap_am_tools_cPKS_ @ 1091 NONAME
	_ZN25eap_network_id_selector_cC2EP18abs_eap_am_tools_c @ 1092 NONAME
	_ZN25eap_network_id_selector_cC2EP18abs_eap_am_tools_cPK19eap_am_network_id_c @ 1093 NONAME
	_ZN25eap_network_id_selector_cC2EP18abs_eap_am_tools_cPKS_ @ 1094 NONAME
	_ZN25eap_network_id_selector_cD0Ev @ 1095 NONAME
	_ZN25eap_network_id_selector_cD1Ev @ 1096 NONAME
	_ZN25eap_network_id_selector_cD2Ev @ 1097 NONAME
	_ZN26eapol_ethernet_header_rd_cC1EP18abs_eap_am_tools_cPKhm @ 1098 NONAME
	_ZN26eapol_ethernet_header_rd_cC2EP18abs_eap_am_tools_cPKhm @ 1099 NONAME
	_ZN26eapol_ethernet_header_rd_cD0Ev @ 1100 NONAME
	_ZN26eapol_ethernet_header_rd_cD1Ev @ 1101 NONAME
	_ZN26eapol_ethernet_header_rd_cD2Ev @ 1102 NONAME
	_ZN26eapol_ethernet_header_wr_c10get_sourceEv @ 1103 NONAME
	_ZN26eapol_ethernet_header_wr_c12reset_headerE21eapol_ethernet_type_et @ 1104 NONAME
	_ZN26eapol_ethernet_header_wr_c15get_destinationEv @ 1105 NONAME
	_ZN26eapol_ethernet_header_wr_cC1EP18abs_eap_am_tools_cPKhm @ 1106 NONAME
	_ZN26eapol_ethernet_header_wr_cC2EP18abs_eap_am_tools_cPKhm @ 1107 NONAME
	_ZN26eapol_ethernet_header_wr_cD0Ev @ 1108 NONAME
	_ZN26eapol_ethernet_header_wr_cD1Ev @ 1109 NONAME
	_ZN26eapol_ethernet_header_wr_cD2Ev @ 1110 NONAME
	_ZN26simple_config_credential_c12get_is_validEv @ 1111 NONAME
	_ZN26simple_config_credential_c15get_MAC_addressEv @ 1112 NONAME
	_ZN26simple_config_credential_c16get_network_keysEv @ 1113 NONAME
	_ZN26simple_config_credential_c17set_network_indexEh @ 1114 NONAME
	_ZN26simple_config_credential_c19get_Encryption_TypeEv @ 1115 NONAME
	_ZN26simple_config_credential_c19set_Encryption_TypeE31simple_config_Encryption_Type_e @ 1116 NONAME
	_ZN26simple_config_credential_c23get_Authentication_TypeEv @ 1117 NONAME
	_ZN26simple_config_credential_c23set_Authentication_TypeE35simple_config_Authentication_Type_e @ 1118 NONAME
	_ZN26simple_config_credential_c8get_SSIDEv @ 1119 NONAME
	_ZN26simple_config_credential_cC1EP18abs_eap_am_tools_c @ 1120 NONAME
	_ZN26simple_config_credential_cC2EP18abs_eap_am_tools_c @ 1121 NONAME
	_ZN26simple_config_credential_cD0Ev @ 1122 NONAME
	_ZN26simple_config_credential_cD1Ev @ 1123 NONAME
	_ZN26simple_config_credential_cD2Ev @ 1124 NONAME
	_ZN27abs_crypto_hash_algorithm_cD0Ev @ 1125 NONAME
	_ZN27abs_crypto_hash_algorithm_cD1Ev @ 1126 NONAME
	_ZN27abs_crypto_hash_algorithm_cD2Ev @ 1127 NONAME
	_ZN27abs_crypto_hmac_algorithm_cD0Ev @ 1128 NONAME
	_ZN27abs_crypto_hmac_algorithm_cD1Ev @ 1129 NONAME
	_ZN27abs_crypto_hmac_algorithm_cD2Ev @ 1130 NONAME
	_ZN27eap_am_file_input_symbian_c10file_closeEv @ 1131 NONAME
	_ZN27eap_am_file_input_symbian_c10file_writeEPK19eap_variable_data_c @ 1132 NONAME
	_ZN27eap_am_file_input_symbian_c11file_deleteEPK19eap_variable_data_c @ 1133 NONAME
	_ZN27eap_am_file_input_symbian_c11file_existsEPK19eap_variable_data_c @ 1134 NONAME
	_ZN27eap_am_file_input_symbian_c14file_read_lineEP19eap_variable_data_c @ 1135 NONAME
	_ZN27eap_am_file_input_symbian_c9file_copyEPK19eap_variable_data_cS2_ @ 1136 NONAME
	_ZN27eap_am_file_input_symbian_c9file_openEPK19eap_variable_data_c23eap_file_io_direction_e @ 1137 NONAME
	_ZN27eap_am_file_input_symbian_c9file_readEP19eap_variable_data_c @ 1138 NONAME
	_ZN27eap_am_file_input_symbian_c9file_sizeEv @ 1139 NONAME
	_ZN27eap_am_file_input_symbian_cC1EP18abs_eap_am_tools_c @ 1140 NONAME
	_ZN27eap_am_file_input_symbian_cC2EP18abs_eap_am_tools_c @ 1141 NONAME
	_ZN27eap_am_file_input_symbian_cD0Ev @ 1142 NONAME
	_ZN27eap_am_file_input_symbian_cD1Ev @ 1143 NONAME
	_ZN27eap_am_file_input_symbian_cD2Ev @ 1144 NONAME
	_ZN28abs_crypto_block_algorithm_cD0Ev @ 1145 NONAME
	_ZN28abs_crypto_block_algorithm_cD1Ev @ 1146 NONAME
	_ZN28abs_crypto_block_algorithm_cD2Ev @ 1147 NONAME
	_ZN28eapol_ethernet_header_base_c17get_header_lengthEv @ 1148 NONAME
	_ZN28eapol_ethernet_header_base_c8set_typeE21eapol_ethernet_type_e @ 1149 NONAME
	_ZN28eapol_ethernet_header_base_cC1EP18abs_eap_am_tools_cPvm @ 1150 NONAME
	_ZN28eapol_ethernet_header_base_cC2EP18abs_eap_am_tools_cPvm @ 1151 NONAME
	_ZN28eapol_ethernet_header_base_cD0Ev @ 1152 NONAME
	_ZN28eapol_ethernet_header_base_cD1Ev @ 1153 NONAME
	_ZN28eapol_ethernet_header_base_cD2Ev @ 1154 NONAME
	_ZN29abs_crypto_stream_algorithm_cD0Ev @ 1155 NONAME
	_ZN29abs_crypto_stream_algorithm_cD1Ev @ 1156 NONAME
	_ZN29abs_crypto_stream_algorithm_cD2Ev @ 1157 NONAME
	_ZN30abs_eap_am_memory_store_data_cC1Ev @ 1158 NONAME
	_ZN30abs_eap_am_memory_store_data_cC2Ev @ 1159 NONAME
	_ZN30abs_eap_am_memory_store_data_cD0Ev @ 1160 NONAME
	_ZN30abs_eap_am_memory_store_data_cD1Ev @ 1161 NONAME
	_ZN30abs_eap_am_memory_store_data_cD2Ev @ 1162 NONAME
	_ZN30crypto_wpa_psk_password_hash_c12get_is_validEv @ 1163 NONAME
	_ZN30crypto_wpa_psk_password_hash_c13password_hashEPK19eap_variable_data_cS2_PS0_PvPF12eap_status_eS4_mE @ 1164 NONAME
	_ZN30crypto_wpa_psk_password_hash_cC1EP18abs_eap_am_tools_c @ 1165 NONAME
	_ZN30crypto_wpa_psk_password_hash_cC2EP18abs_eap_am_tools_c @ 1166 NONAME
	_ZN30crypto_wpa_psk_password_hash_cD0Ev @ 1167 NONAME
	_ZN30crypto_wpa_psk_password_hash_cD1Ev @ 1168 NONAME
	_ZN30crypto_wpa_psk_password_hash_cD2Ev @ 1169 NONAME
	_ZN30eap_am_memory_store_tlv_data_c17copy_message_dataEPK22eap_tlv_message_data_cm @ 1170 NONAME
	_ZN30eap_am_memory_store_tlv_data_c31object_decrease_reference_countEv @ 1171 NONAME
	_ZN30eap_am_memory_store_tlv_data_c31object_increase_reference_countEv @ 1172 NONAME
	_ZN30eap_am_memory_store_tlv_data_cC1EP18abs_eap_am_tools_c @ 1173 NONAME
	_ZN30eap_am_memory_store_tlv_data_cC2EP18abs_eap_am_tools_c @ 1174 NONAME
	_ZN30eap_am_memory_store_tlv_data_cD0Ev @ 1175 NONAME
	_ZN30eap_am_memory_store_tlv_data_cD1Ev @ 1176 NONAME
	_ZN30eap_am_memory_store_tlv_data_cD2Ev @ 1177 NONAME
	_ZN30eap_process_tlv_message_data_c12get_is_validEv @ 1178 NONAME
	_ZN30eap_process_tlv_message_data_c15get_type_stringE22eap_tlv_message_type_e @ 1179 NONAME
	_ZN30eap_process_tlv_message_data_c18add_parameter_dataE12eap_status_e @ 1180 NONAME
	_ZN30eap_process_tlv_message_data_c18add_parameter_dataE19eap_expanded_type_c @ 1181 NONAME
	_ZN30eap_process_tlv_message_data_c18add_parameter_dataE22eap_tlv_message_type_em @ 1182 NONAME
	_ZN30eap_process_tlv_message_data_c18add_parameter_dataE31eap_tlv_message_type_function_e @ 1183 NONAME
	_ZN30eap_process_tlv_message_data_c18add_parameter_dataE31eapol_key_authentication_type_e @ 1184 NONAME
	_ZN30eap_process_tlv_message_data_c18add_parameter_dataE38eapol_key_802_11_authentication_mode_e @ 1185 NONAME
	_ZN30eap_process_tlv_message_data_c18add_parameter_dataEPK11eap_array_cI19eap_expanded_type_cE @ 1186 NONAME
	_ZN30eap_process_tlv_message_data_c18add_parameter_dataEPK11eap_array_cI23eap_certificate_entry_cE @ 1187 NONAME
	_ZN30eap_process_tlv_message_data_c18add_parameter_dataEPK11eap_array_cI26simple_config_credential_cE @ 1188 NONAME
	_ZN30eap_process_tlv_message_data_c18add_parameter_dataEPK11eap_array_cItE @ 1189 NONAME
	_ZN30eap_process_tlv_message_data_c18add_parameter_dataEPK18eap_buf_chain_wr_c @ 1190 NONAME
	_ZN30eap_process_tlv_message_data_c18add_parameter_dataEPK19eap_am_network_id_c @ 1191 NONAME
	_ZN30eap_process_tlv_message_data_c18add_parameter_dataEPK19eap_variable_data_c @ 1192 NONAME
	_ZN30eap_process_tlv_message_data_c18add_parameter_dataEPK19eap_variable_data_cPK18eap_config_value_c @ 1193 NONAME
	_ZN30eap_process_tlv_message_data_c18add_parameter_dataEPK19eapol_session_key_c @ 1194 NONAME
	_ZN30eap_process_tlv_message_data_c18add_parameter_dataEPK21eap_method_settings_c @ 1195 NONAME
	_ZN30eap_process_tlv_message_data_c18add_parameter_dataEPK23eap_certificate_entry_c @ 1196 NONAME
	_ZN30eap_process_tlv_message_data_c18add_parameter_dataEPK25eap_general_header_base_c @ 1197 NONAME
	_ZN30eap_process_tlv_message_data_c18add_parameter_dataEPK28abs_eap_state_notification_c @ 1198 NONAME
	_ZN30eap_process_tlv_message_data_c18add_parameter_dataEb @ 1199 NONAME
	_ZN30eap_process_tlv_message_data_c18add_parameter_dataEc @ 1200 NONAME
	_ZN30eap_process_tlv_message_data_c18add_parameter_dataEh @ 1201 NONAME
	_ZN30eap_process_tlv_message_data_c18add_parameter_dataEl @ 1202 NONAME
	_ZN30eap_process_tlv_message_data_c18add_parameter_dataEm @ 1203 NONAME
	_ZN30eap_process_tlv_message_data_c18add_parameter_dataEs @ 1204 NONAME
	_ZN30eap_process_tlv_message_data_c18add_parameter_dataEt @ 1205 NONAME
	_ZN30eap_process_tlv_message_data_c18add_parameter_dataEy @ 1206 NONAME
	_ZN30eap_process_tlv_message_data_c18get_parameter_dataEPK16eap_tlv_header_cP11eap_array_cI19eap_expanded_type_cE @ 1207 NONAME
	_ZN30eap_process_tlv_message_data_c18get_parameter_dataEPK16eap_tlv_header_cP11eap_array_cI23eap_certificate_entry_cE @ 1208 NONAME
	_ZN30eap_process_tlv_message_data_c18get_parameter_dataEPK16eap_tlv_header_cP11eap_array_cI23network_key_and_index_cE @ 1209 NONAME
	_ZN30eap_process_tlv_message_data_c18get_parameter_dataEPK16eap_tlv_header_cP11eap_array_cI26simple_config_credential_cE @ 1210 NONAME
	_ZN30eap_process_tlv_message_data_c18get_parameter_dataEPK16eap_tlv_header_cP11eap_array_cItE @ 1211 NONAME
	_ZN30eap_process_tlv_message_data_c18get_parameter_dataEPK16eap_tlv_header_cP19eap_am_network_id_c @ 1212 NONAME
	_ZN30eap_process_tlv_message_data_c18get_parameter_dataEPK16eap_tlv_header_cP19eap_expanded_type_c @ 1213 NONAME
	_ZN30eap_process_tlv_message_data_c18get_parameter_dataEPK16eap_tlv_header_cP19eap_variable_data_c @ 1214 NONAME
	_ZN30eap_process_tlv_message_data_c18get_parameter_dataEPK16eap_tlv_header_cP19eapol_session_key_c @ 1215 NONAME
	_ZN30eap_process_tlv_message_data_c18get_parameter_dataEPK16eap_tlv_header_cP21eap_method_settings_c @ 1216 NONAME
	_ZN30eap_process_tlv_message_data_c18get_parameter_dataEPK16eap_tlv_header_cP23eap_certificate_entry_c @ 1217 NONAME
	_ZN30eap_process_tlv_message_data_c18get_parameter_dataEPK16eap_tlv_header_cP23network_key_and_index_c @ 1218 NONAME
	_ZN30eap_process_tlv_message_data_c18get_parameter_dataEPK16eap_tlv_header_cP26simple_config_credential_c @ 1219 NONAME
	_ZN30eap_process_tlv_message_data_c18get_parameter_dataEPK16eap_tlv_header_cP31eap_tlv_message_type_function_e @ 1220 NONAME
	_ZN30eap_process_tlv_message_data_c18get_parameter_dataEPK16eap_tlv_header_cPP24eap_state_notification_c @ 1221 NONAME
	_ZN30eap_process_tlv_message_data_c18get_parameter_dataEPK16eap_tlv_header_cPc @ 1222 NONAME
	_ZN30eap_process_tlv_message_data_c18get_parameter_dataEPK16eap_tlv_header_cPh @ 1223 NONAME
	_ZN30eap_process_tlv_message_data_c18get_parameter_dataEPK16eap_tlv_header_cPl @ 1224 NONAME
	_ZN30eap_process_tlv_message_data_c18get_parameter_dataEPK16eap_tlv_header_cPm @ 1225 NONAME
	_ZN30eap_process_tlv_message_data_c18get_parameter_dataEPK16eap_tlv_header_cPs @ 1226 NONAME
	_ZN30eap_process_tlv_message_data_c18get_parameter_dataEPK16eap_tlv_header_cPt @ 1227 NONAME
	_ZN30eap_process_tlv_message_data_c18get_parameter_dataEPK16eap_tlv_header_cPy @ 1228 NONAME
	_ZN30eap_process_tlv_message_data_c19get_function_stringE31eap_tlv_message_type_function_e @ 1229 NONAME
	_ZN30eap_process_tlv_message_data_c19read_parameter_dataEPK11eap_array_cI16eap_tlv_header_cEm22eap_tlv_message_type_eP12eap_status_e @ 1230 NONAME
	_ZN30eap_process_tlv_message_data_c19read_parameter_dataEPK11eap_array_cI16eap_tlv_header_cEmP19eap_am_network_id_c @ 1231 NONAME
	_ZN30eap_process_tlv_message_data_c19read_parameter_dataEPK11eap_array_cI16eap_tlv_header_cEmP19eap_expanded_type_c @ 1232 NONAME
	_ZN30eap_process_tlv_message_data_c19read_parameter_dataEPK11eap_array_cI16eap_tlv_header_cEmP19eap_variable_data_c @ 1233 NONAME
	_ZN30eap_process_tlv_message_data_c19read_parameter_dataEPK11eap_array_cI16eap_tlv_header_cEmP19eapol_session_key_c @ 1234 NONAME
	_ZN30eap_process_tlv_message_data_c19read_parameter_dataEPK11eap_array_cI16eap_tlv_header_cEmP21eap_method_settings_c @ 1235 NONAME
	_ZN30eap_process_tlv_message_data_c19read_parameter_dataEPK11eap_array_cI16eap_tlv_header_cEmP31eap_tlv_message_type_function_e @ 1236 NONAME
	_ZN30eap_process_tlv_message_data_c19read_parameter_dataEPK11eap_array_cI16eap_tlv_header_cEmP31eapol_key_authentication_type_e @ 1237 NONAME
	_ZN30eap_process_tlv_message_data_c19read_parameter_dataEPK11eap_array_cI16eap_tlv_header_cEmP31simple_config_Encryption_Type_e @ 1238 NONAME
	_ZN30eap_process_tlv_message_data_c19read_parameter_dataEPK11eap_array_cI16eap_tlv_header_cEmP33eapol_wlan_authentication_state_e @ 1239 NONAME
	_ZN30eap_process_tlv_message_data_c19read_parameter_dataEPK11eap_array_cI16eap_tlv_header_cEmP35simple_config_Authentication_Type_e @ 1240 NONAME
	_ZN30eap_process_tlv_message_data_c19read_parameter_dataEPK11eap_array_cI16eap_tlv_header_cEmP38eapol_key_802_11_authentication_mode_e @ 1241 NONAME
	_ZN30eap_process_tlv_message_data_c19read_parameter_dataEPK11eap_array_cI16eap_tlv_header_cEmPN23eap_certificate_entry_c22eap_certificate_type_eE @ 1242 NONAME
	_ZN30eap_process_tlv_message_data_c19read_parameter_dataEPK11eap_array_cI16eap_tlv_header_cEmPN23eapol_RSNA_key_header_c19eapol_RSNA_cipher_eE @ 1243 NONAME
	_ZN30eap_process_tlv_message_data_c19read_parameter_dataEPK11eap_array_cI16eap_tlv_header_cEmPN23eapol_RSNA_key_header_c29eapol_tkip_mic_failure_type_eE @ 1244 NONAME
	_ZN30eap_process_tlv_message_data_c19read_parameter_dataEPK11eap_array_cI16eap_tlv_header_cEmPP24eap_state_notification_c @ 1245 NONAME
	_ZN30eap_process_tlv_message_data_c19read_parameter_dataEPK11eap_array_cI16eap_tlv_header_cEmPS0_I19eap_am_network_id_cE @ 1246 NONAME
	_ZN30eap_process_tlv_message_data_c19read_parameter_dataEPK11eap_array_cI16eap_tlv_header_cEmPS0_I19eap_expanded_type_cE @ 1247 NONAME
	_ZN30eap_process_tlv_message_data_c19read_parameter_dataEPK11eap_array_cI16eap_tlv_header_cEmPS0_I23eap_certificate_entry_cE @ 1248 NONAME
	_ZN30eap_process_tlv_message_data_c19read_parameter_dataEPK11eap_array_cI16eap_tlv_header_cEmPS0_I23network_key_and_index_cE @ 1249 NONAME
	_ZN30eap_process_tlv_message_data_c19read_parameter_dataEPK11eap_array_cI16eap_tlv_header_cEmPS0_I26simple_config_credential_cE @ 1250 NONAME
	_ZN30eap_process_tlv_message_data_c19read_parameter_dataEPK11eap_array_cI16eap_tlv_header_cEmPS0_ItE @ 1251 NONAME
	_ZN30eap_process_tlv_message_data_c19read_parameter_dataEPK11eap_array_cI16eap_tlv_header_cEmPb @ 1252 NONAME
	_ZN30eap_process_tlv_message_data_c19read_parameter_dataEPK11eap_array_cI16eap_tlv_header_cEmPc @ 1253 NONAME
	_ZN30eap_process_tlv_message_data_c19read_parameter_dataEPK11eap_array_cI16eap_tlv_header_cEmPh @ 1254 NONAME
	_ZN30eap_process_tlv_message_data_c19read_parameter_dataEPK11eap_array_cI16eap_tlv_header_cEmPl @ 1255 NONAME
	_ZN30eap_process_tlv_message_data_c19read_parameter_dataEPK11eap_array_cI16eap_tlv_header_cEmPm @ 1256 NONAME
	_ZN30eap_process_tlv_message_data_c19read_parameter_dataEPK11eap_array_cI16eap_tlv_header_cEmPs @ 1257 NONAME
	_ZN30eap_process_tlv_message_data_c19read_parameter_dataEPK11eap_array_cI16eap_tlv_header_cEmPt @ 1258 NONAME
	_ZN30eap_process_tlv_message_data_c19read_parameter_dataEPK11eap_array_cI16eap_tlv_header_cEmPy @ 1259 NONAME
	_ZN30eap_process_tlv_message_data_c31add_structured_parameter_headerE22eap_tlv_message_type_em @ 1260 NONAME
	_ZN30eap_process_tlv_message_data_c31object_decrease_reference_countEv @ 1261 NONAME
	_ZN30eap_process_tlv_message_data_c31object_increase_reference_countEv @ 1262 NONAME
	_ZN30eap_process_tlv_message_data_cC1EP18abs_eap_am_tools_c @ 1263 NONAME
	_ZN30eap_process_tlv_message_data_cC2EP18abs_eap_am_tools_c @ 1264 NONAME
	_ZN30eap_process_tlv_message_data_cD0Ev @ 1265 NONAME
	_ZN30eap_process_tlv_message_data_cD1Ev @ 1266 NONAME
	_ZN30eap_process_tlv_message_data_cD2Ev @ 1267 NONAME
	_ZN31crypto_eap_fast_hmac_sha1_prf_c10t_prf_initEPK19eap_variable_data_cS2_S2_ @ 1268 NONAME
	_ZN31crypto_eap_fast_hmac_sha1_prf_c12get_is_validEv @ 1269 NONAME
	_ZN31crypto_eap_fast_hmac_sha1_prf_c12set_is_validEv @ 1270 NONAME
	_ZN31crypto_eap_fast_hmac_sha1_prf_c12t_prf_outputEPvt @ 1271 NONAME
	_ZN31crypto_eap_fast_hmac_sha1_prf_c13t_prf_cleanupEv @ 1272 NONAME
	_ZN31crypto_eap_fast_hmac_sha1_prf_c14set_is_invalidEv @ 1273 NONAME
	_ZN31crypto_eap_fast_hmac_sha1_prf_cC1EP18abs_eap_am_tools_c @ 1274 NONAME
	_ZN31crypto_eap_fast_hmac_sha1_prf_cC2EP18abs_eap_am_tools_c @ 1275 NONAME
	_ZN31crypto_eap_fast_hmac_sha1_prf_cD0Ev @ 1276 NONAME
	_ZN31crypto_eap_fast_hmac_sha1_prf_cD1Ev @ 1277 NONAME
	_ZN31crypto_eap_fast_hmac_sha1_prf_cD2Ev @ 1278 NONAME
	_ZN32abs_crypto_cbc_block_algorithm_cD0Ev @ 1279 NONAME
	_ZN32abs_crypto_cbc_block_algorithm_cD1Ev @ 1280 NONAME
	_ZN32abs_crypto_cbc_block_algorithm_cD2Ev @ 1281 NONAME
	_ZN32eap_simple_config_trace_string_cC1Ev @ 1282 NONAME
	_ZN32eap_simple_config_trace_string_cC2Ev @ 1283 NONAME
	_ZN32eap_simple_config_trace_string_cD0Ev @ 1284 NONAME
	_ZN32eap_simple_config_trace_string_cD1Ev @ 1285 NONAME
	_ZN32eap_simple_config_trace_string_cD2Ev @ 1286 NONAME
	_ZN33crypto_ephemeral_diffie_hellman_c10dh_cleanupEPK19eap_variable_data_c @ 1287 NONAME
	_ZN33crypto_ephemeral_diffie_hellman_c12get_is_validEv @ 1288 NONAME
	_ZN33crypto_ephemeral_diffie_hellman_c12set_is_validEv @ 1289 NONAME
	_ZN33crypto_ephemeral_diffie_hellman_c22generate_g_power_to_xyEPK19eap_variable_data_cS2_PS0_PKvmS5_m @ 1290 NONAME
	_ZN33crypto_ephemeral_diffie_hellman_c28generate_diffie_hellman_keysEP19eap_variable_data_cS1_PKvmS3_m @ 1291 NONAME
	_ZN33crypto_ephemeral_diffie_hellman_cC1EP18abs_eap_am_tools_c @ 1292 NONAME
	_ZN33crypto_ephemeral_diffie_hellman_cC2EP18abs_eap_am_tools_c @ 1293 NONAME
	_ZN33crypto_ephemeral_diffie_hellman_cD0Ev @ 1294 NONAME
	_ZN33crypto_ephemeral_diffie_hellman_cD1Ev @ 1295 NONAME
	_ZN33crypto_ephemeral_diffie_hellman_cD2Ev @ 1296 NONAME
	_ZNK10eap_core_c19get_is_tunneled_eapEv @ 1297 NONAME
	_ZNK11EAPSettings5traceEv @ 1298 NONAME
	_ZNK14eap_am_tools_c14get_trace_maskEv @ 1299 NONAME
	_ZNK15eap_header_wr_c13get_type_dataEm @ 1300 NONAME
	_ZNK15eap_header_wr_c20get_type_data_offsetEmm @ 1301 NONAME
	_ZNK16EapMessageBuffer14GetRequestTypeEv @ 1302 NONAME
	_ZNK16EapMessageBuffer7GetDataEv @ 1303 NONAME
	_ZNK16TEapExpandedType11GetVendorIdEv @ 1304 NONAME
	_ZNK16TEapExpandedType13GetVendorTypeEv @ 1305 NONAME
	_ZNK16TEapExpandedType7CompareERKS_ @ 1306 NONAME
	_ZNK16TEapExpandedType8GetValueEv @ 1307 NONAME
	_ZNK16TEapExpandedTypeeqERKS_ @ 1308 NONAME
	_ZNK16TEapExpandedTypeneERKS_ @ 1309 NONAME
	_ZNK16eap_tlv_header_c12check_headerEv @ 1310 NONAME
	_ZNK16eap_tlv_header_c16get_value_lengthEv @ 1311 NONAME
	_ZNK16eap_tlv_header_c16get_value_offsetEmm @ 1312 NONAME
	_ZNK16eap_tlv_header_c8get_typeEv @ 1313 NONAME
	_ZNK16eap_tlv_header_c9get_valueEm @ 1314 NONAME
	_ZNK17eap_header_base_c10get_lengthEv @ 1315 NONAME
	_ZNK17eap_header_base_c12check_headerEv @ 1316 NONAME
	_ZNK17eap_header_base_c13get_ietf_typeEv @ 1317 NONAME
	_ZNK17eap_header_base_c13get_type_dataEm @ 1318 NONAME
	_ZNK17eap_header_base_c14get_identifierEv @ 1319 NONAME
	_ZNK17eap_header_base_c15get_code_stringEv @ 1320 NONAME
	_ZNK17eap_header_base_c15get_data_lengthEv @ 1321 NONAME
	_ZNK17eap_header_base_c15get_data_offsetEmm @ 1322 NONAME
	_ZNK17eap_header_base_c15get_type_stringEv @ 1323 NONAME
	_ZNK17eap_header_base_c20get_type_data_lengthEv @ 1324 NONAME
	_ZNK17eap_header_base_c20get_type_data_offsetEmm @ 1325 NONAME
	_ZNK17eap_header_base_c21get_type_field_lengthEv @ 1326 NONAME
	_ZNK17eap_header_base_c8get_codeEv @ 1327 NONAME
	_ZNK17eap_header_base_c8get_dataEm @ 1328 NONAME
	_ZNK17eap_header_base_c8get_typeEv @ 1329 NONAME
	_ZNK17eapol_header_rd_c14get_eap_headerEv @ 1330 NONAME
	_ZNK18eap_buf_chain_rd_c15get_data_offsetEmm @ 1331 NONAME
	_ZNK18eap_buf_chain_rd_c19get_ethernet_headerEv @ 1332 NONAME
	_ZNK18eap_buf_chain_rd_c8get_dataEm @ 1333 NONAME
	_ZNK18eap_config_value_c12get_is_validEv @ 1334 NONAME
	_ZNK18eap_config_value_c14get_const_dataEv @ 1335 NONAME
	_ZNK18eap_config_value_c14get_const_typeEv @ 1336 NONAME
	_ZNK19EapCertificateEntry10GetIsValidEv @ 1337 NONAME
	_ZNK19EapCertificateEntry11GetCertTypeEv @ 1338 NONAME
	_ZNK19EapCertificateEntry12GetIsEnabledEv @ 1339 NONAME
	_ZNK19EapCertificateEntry13GetIssuerNameEv @ 1340 NONAME
	_ZNK19EapCertificateEntry13GetThumbprintEv @ 1341 NONAME
	_ZNK19EapCertificateEntry14GetPrimaryNameEv @ 1342 NONAME
	_ZNK19EapCertificateEntry14GetSubjectNameEv @ 1343 NONAME
	_ZNK19EapCertificateEntry15GetLabelPresentEv @ 1344 NONAME
	_ZNK19EapCertificateEntry15GetSerialNumberEv @ 1345 NONAME
	_ZNK19EapCertificateEntry15GetSubjectKeyIdEv @ 1346 NONAME
	_ZNK19EapCertificateEntry16GetSecondaryNameEv @ 1347 NONAME
	_ZNK19EapCertificateEntry19GetIsEnabledPresentEv @ 1348 NONAME
	_ZNK19EapCertificateEntry20GetIssuerNamePresentEv @ 1349 NONAME
	_ZNK19EapCertificateEntry20GetThumbprintPresentEv @ 1350 NONAME
	_ZNK19EapCertificateEntry21GetPrimaryNamePresentEv @ 1351 NONAME
	_ZNK19EapCertificateEntry21GetSubjectNamePresentEv @ 1352 NONAME
	_ZNK19EapCertificateEntry22GetSerialNumberPresentEv @ 1353 NONAME
	_ZNK19EapCertificateEntry22GetSubjectKeyIdPresentEv @ 1354 NONAME
	_ZNK19EapCertificateEntry23GetSecondaryNamePresentEv @ 1355 NONAME
	_ZNK19EapCertificateEntry5traceEv @ 1356 NONAME
	_ZNK19EapCertificateEntry8GetLabelEv @ 1357 NONAME
	_ZNK19eap_am_mutex_base_c12get_is_validEv @ 1358 NONAME
	_ZNK19eap_am_mutex_base_c13get_referenceEv @ 1359 NONAME
	_ZNK19eap_am_mutex_base_c15get_is_reservedEv @ 1360 NONAME
	_ZNK19eap_am_network_id_c10get_sourceEv @ 1361 NONAME
	_ZNK19eap_am_network_id_c12get_is_validEv @ 1362 NONAME
	_ZNK19eap_am_network_id_c13get_source_idEv @ 1363 NONAME
	_ZNK19eap_am_network_id_c14get_network_idEv @ 1364 NONAME
	_ZNK19eap_am_network_id_c15get_destinationEv @ 1365 NONAME
	_ZNK19eap_am_network_id_c17get_is_valid_dataEv @ 1366 NONAME
	_ZNK19eap_am_network_id_c17get_source_lengthEv @ 1367 NONAME
	_ZNK19eap_am_network_id_c18compare_network_idEPKS_ @ 1368 NONAME
	_ZNK19eap_am_network_id_c18get_destination_idEv @ 1369 NONAME
	_ZNK19eap_am_network_id_c22get_destination_lengthEv @ 1370 NONAME
	_ZNK19eap_am_network_id_c4copyEv @ 1371 NONAME
	_ZNK19eap_am_network_id_c8get_typeEv @ 1372 NONAME
	_ZNK19eap_core_nak_info_c18get_eap_identifierEv @ 1373 NONAME
	_ZNK19eap_core_nak_info_c21get_proposed_eap_typeEv @ 1374 NONAME
	_ZNK19eap_expanded_type_c12get_is_validEv @ 1375 NONAME
	_ZNK19eap_expanded_type_c13get_type_dataEP18abs_eap_am_tools_cP22eap_type_ietf_values_e @ 1376 NONAME
	_ZNK19eap_expanded_type_c13get_type_dataEP18abs_eap_am_tools_cPS_ @ 1377 NONAME
	_ZNK19eap_expanded_type_c13get_vendor_idEv @ 1378 NONAME
	_ZNK19eap_expanded_type_c15get_vendor_typeEv @ 1379 NONAME
	_ZNK19eap_expanded_type_c17get_is_valid_dataEv @ 1380 NONAME
	_ZNK19eap_expanded_type_c22get_expanded_type_dataEP18abs_eap_am_tools_cP19eap_variable_data_c @ 1381 NONAME
	_ZNK19eap_expanded_type_c4copyEv @ 1382 NONAME
	_ZNK19eap_expanded_type_c7compareEPKS_ @ 1383 NONAME
	_ZNK19eap_expanded_type_cadEv @ 1384 NONAME
	_ZNK19eap_expanded_type_ceqE22eap_type_ietf_values_e @ 1385 NONAME
	_ZNK19eap_expanded_type_ceqERKS_ @ 1386 NONAME
	_ZNK19eap_expanded_type_cneE22eap_type_ietf_values_e @ 1387 NONAME
	_ZNK19eap_expanded_type_cneERKS_ @ 1388 NONAME
	_ZNK19eap_variable_data_c10get_bufferEm @ 1389 NONAME
	_ZNK19eap_variable_data_c12get_is_validEv @ 1390 NONAME
	_ZNK19eap_variable_data_c14compare_lengthEPKS_m @ 1391 NONAME
	_ZNK19eap_variable_data_c14compare_lengthEPKvmm @ 1392 NONAME
	_ZNK19eap_variable_data_c15get_data_lengthEv @ 1393 NONAME
	_ZNK19eap_variable_data_c15get_data_offsetEmm @ 1394 NONAME
	_ZNK19eap_variable_data_c15get_is_writableEv @ 1395 NONAME
	_ZNK19eap_variable_data_c17get_buffer_lengthEv @ 1396 NONAME
	_ZNK19eap_variable_data_c17get_buffer_offsetEmm @ 1397 NONAME
	_ZNK19eap_variable_data_c17get_is_valid_dataEv @ 1398 NONAME
	_ZNK19eap_variable_data_c4copyEv @ 1399 NONAME
	_ZNK19eap_variable_data_c4hashEm @ 1400 NONAME
	_ZNK19eap_variable_data_c7compareEPKS_ @ 1401 NONAME
	_ZNK19eap_variable_data_c7compareEPKvm @ 1402 NONAME
	_ZNK19eap_variable_data_c8get_dataEm @ 1403 NONAME
	_ZNK19eap_variable_data_c8get_dataEv @ 1404 NONAME
	_ZNK19eapol_header_base_c11get_versionEv @ 1405 NONAME
	_ZNK19eapol_header_base_c12check_headerEv @ 1406 NONAME
	_ZNK19eapol_header_base_c15get_data_lengthEv @ 1407 NONAME
	_ZNK19eapol_header_base_c15get_packet_typeEv @ 1408 NONAME
	_ZNK19eapol_header_base_c15get_type_stringEv @ 1409 NONAME
	_ZNK19eapol_header_base_c8get_dataEm @ 1410 NONAME
	_ZNK19eapol_session_key_c12get_is_validEv @ 1411 NONAME
	_ZNK19eapol_session_key_c12get_key_typeEv @ 1412 NONAME
	_ZNK19eapol_session_key_c13get_key_indexEv @ 1413 NONAME
	_ZNK19eapol_session_key_c14get_key_tx_bitEv @ 1414 NONAME
	_ZNK19eapol_session_key_c19get_sequence_numberEv @ 1415 NONAME
	_ZNK19eapol_session_key_c7get_keyEv @ 1416 NONAME
	_ZNK20eap_buf_chain_base_c11get_encryptEv @ 1417 NONAME
	_ZNK20eap_buf_chain_base_c12check_guardsEv @ 1418 NONAME
	_ZNK20eap_buf_chain_base_c12get_is_validEv @ 1419 NONAME
	_ZNK20eap_buf_chain_base_c13get_is_clientEv @ 1420 NONAME
	_ZNK20eap_buf_chain_base_c15get_data_lengthEv @ 1421 NONAME
	_ZNK20eap_buf_chain_base_c15get_data_offsetEmm @ 1422 NONAME
	_ZNK20eap_buf_chain_base_c17check_guard_bytesEPKh @ 1423 NONAME
	_ZNK20eap_buf_chain_base_c17get_buffer_lengthEv @ 1424 NONAME
	_ZNK20eap_buf_chain_base_c17get_is_valid_dataEv @ 1425 NONAME
	_ZNK20eap_buf_chain_base_c17get_stack_addressEv @ 1426 NONAME
	_ZNK20eap_buf_chain_base_c20get_do_length_checksEv @ 1427 NONAME
	_ZNK20eap_buf_chain_base_c8get_dataEm @ 1428 NONAME
	_ZNK20eap_rogue_ap_entry_c15get_mac_addressEPh @ 1429 NONAME
	_ZNK20eap_rogue_ap_entry_c15get_mac_addressEv @ 1430 NONAME
	_ZNK20eap_rogue_ap_entry_c16get_rogue_reasonEv @ 1431 NONAME
	_ZNK20eap_rogue_ap_entry_c4copyEv @ 1432 NONAME
	_ZNK20eap_type_selection_c12get_is_validEv @ 1433 NONAME
	_ZNK20eap_type_selection_c14get_is_enabledEv @ 1434 NONAME
	_ZNK20eap_type_selection_c17get_is_valid_dataEv @ 1435 NONAME
	_ZNK20eap_type_selection_c4copyEv @ 1436 NONAME
	_ZNK20eap_type_selection_c8get_typeEv @ 1437 NONAME
	_ZNK22eap_am_mutex_symbian_c12get_is_validEv @ 1438 NONAME
	_ZNK22eap_am_mutex_symbian_c15get_is_reservedEv @ 1439 NONAME
	_ZNK22eap_am_mutex_symbian_c16get_owner_threadEv @ 1440 NONAME
	_ZNK22eap_am_mutex_symbian_c9get_mutexEv @ 1441 NONAME
	_ZNK22eap_am_tools_symbian_c12get_is_validEv @ 1442 NONAME
	_ZNK22eap_tlv_message_data_c16get_message_dataEv @ 1443 NONAME
	_ZNK22eap_tlv_message_data_c23get_message_data_lengthEv @ 1444 NONAME
	_ZNK23eap_am_crypto_symbian_c12get_is_validEv @ 1445 NONAME
	_ZNK23network_key_and_index_c21get_network_key_constEv @ 1446 NONAME
	_ZNK23network_key_and_index_c21get_network_key_indexEv @ 1447 NONAME
	_ZNK24eap_master_session_key_c12get_eap_typeEv @ 1448 NONAME
	_ZNK24eap_master_session_key_c17get_leap_passwordEv @ 1449 NONAME
	_ZNK24eap_state_notification_c12get_eap_typeEv @ 1450 NONAME
	_ZNK24eap_state_notification_c12get_protocolEv @ 1451 NONAME
	_ZNK24eap_state_notification_c13get_is_clientEv @ 1452 NONAME
	_ZNK24eap_state_notification_c17get_current_stateEv @ 1453 NONAME
	_ZNK24eap_state_notification_c18get_eap_identifierEv @ 1454 NONAME
	_ZNK24eap_state_notification_c18get_previous_stateEv @ 1455 NONAME
	_ZNK24eap_state_notification_c18get_protocol_layerEv @ 1456 NONAME
	_ZNK24eap_state_notification_c19get_protocol_stringEv @ 1457 NONAME
	_ZNK24eap_state_notification_c19get_send_network_idEv @ 1458 NONAME
	_ZNK24eap_state_notification_c23get_notification_stringEv @ 1459 NONAME
	_ZNK24eap_state_notification_c24get_authentication_errorEv @ 1460 NONAME
	_ZNK24eap_state_notification_c24get_current_state_stringEv @ 1461 NONAME
	_ZNK24eap_state_notification_c25get_previous_state_stringEv @ 1462 NONAME
	_ZNK24eap_state_notification_c25get_protocol_layer_stringEv @ 1463 NONAME
	_ZNK24eap_state_notification_c26get_allow_send_eap_successEv @ 1464 NONAME
	_ZNK24eap_state_notification_c32get_needs_confirmation_from_userEv @ 1465 NONAME
	_ZNK25eap_core_retransmission_c12get_eap_codeEv @ 1466 NONAME
	_ZNK25eap_core_retransmission_c12get_eap_typeEv @ 1467 NONAME
	_ZNK25eap_core_retransmission_c12get_is_validEv @ 1468 NONAME
	_ZNK25eap_core_retransmission_c15get_buffer_sizeEv @ 1469 NONAME
	_ZNK25eap_core_retransmission_c15get_data_lengthEv @ 1470 NONAME
	_ZNK25eap_core_retransmission_c15get_sent_packetEv @ 1471 NONAME
	_ZNK25eap_core_retransmission_c17get_header_offsetEv @ 1472 NONAME
	_ZNK25eap_core_retransmission_c18get_eap_identifierEv @ 1473 NONAME
	_ZNK25eap_core_retransmission_c26get_retransmission_counterEv @ 1474 NONAME
	_ZNK25eap_general_header_base_c12get_am_toolsEv @ 1475 NONAME
	_ZNK25eap_general_header_base_c12get_is_validEv @ 1476 NONAME
	_ZNK25eap_general_header_base_c17get_header_bufferEm @ 1477 NONAME
	_ZNK25eap_general_header_base_c17get_header_offsetEmm @ 1478 NONAME
	_ZNK25eap_general_header_base_c24get_header_buffer_lengthEv @ 1479 NONAME
	_ZNK25eap_network_id_selector_c4copyEv @ 1480 NONAME
	_ZNK26eap_static_expanded_type_c8get_typeEv @ 1481 NONAME
	_ZNK26eapol_ethernet_header_rd_c16get_eapol_headerEv @ 1482 NONAME
	_ZNK26eapol_ethernet_header_wr_c16get_eapol_headerEv @ 1483 NONAME
	_ZNK26simple_config_credential_c14get_SSID_constEv @ 1484 NONAME
	_ZNK26simple_config_credential_c17get_network_indexEv @ 1485 NONAME
	_ZNK26simple_config_credential_c21get_MAC_address_constEv @ 1486 NONAME
	_ZNK26simple_config_credential_c22get_network_keys_constEv @ 1487 NONAME
	_ZNK28eapol_ethernet_header_base_c10get_sourceEv @ 1488 NONAME
	_ZNK28eapol_ethernet_header_base_c12check_headerEv @ 1489 NONAME
	_ZNK28eapol_ethernet_header_base_c15get_data_lengthEv @ 1490 NONAME
	_ZNK28eapol_ethernet_header_base_c15get_destinationEv @ 1491 NONAME
	_ZNK28eapol_ethernet_header_base_c17get_source_lengthEv @ 1492 NONAME
	_ZNK28eapol_ethernet_header_base_c22get_destination_lengthEv @ 1493 NONAME
	_ZNK28eapol_ethernet_header_base_c8get_dataEm @ 1494 NONAME
	_ZNK28eapol_ethernet_header_base_c8get_typeEv @ 1495 NONAME
	_ZNK30eap_am_memory_store_tlv_data_c12get_timer_idEv @ 1496 NONAME
	_ZNK30eap_am_memory_store_tlv_data_c16get_message_dataEv @ 1497 NONAME
	_ZNK30eap_am_memory_store_tlv_data_c23get_message_data_lengthEv @ 1498 NONAME
	_ZNK30eap_process_tlv_message_data_c16get_payload_sizeEPK11eap_array_cI19eap_expanded_type_cE @ 1499 NONAME
	_ZNK30eap_process_tlv_message_data_c16get_payload_sizeEPK11eap_array_cI23eap_certificate_entry_cE @ 1500 NONAME
	_ZNK30eap_process_tlv_message_data_c16get_payload_sizeEPK11eap_array_cI23network_key_and_index_cE @ 1501 NONAME
	_ZNK30eap_process_tlv_message_data_c16get_payload_sizeEPK11eap_array_cI26simple_config_credential_cE @ 1502 NONAME
	_ZNK30eap_process_tlv_message_data_c16get_payload_sizeEPK11eap_array_cItE @ 1503 NONAME
	_ZNK30eap_process_tlv_message_data_c16get_payload_sizeEPK19eap_am_network_id_c @ 1504 NONAME
	_ZNK30eap_process_tlv_message_data_c16get_payload_sizeEPK19eap_variable_data_c @ 1505 NONAME
	_ZNK30eap_process_tlv_message_data_c16get_payload_sizeEPK19eap_variable_data_cPK18eap_config_value_c @ 1506 NONAME
	_ZNK30eap_process_tlv_message_data_c16get_payload_sizeEPK19eapol_session_key_c @ 1507 NONAME
	_ZNK30eap_process_tlv_message_data_c16get_payload_sizeEPK21eap_method_settings_c @ 1508 NONAME
	_ZNK30eap_process_tlv_message_data_c16get_payload_sizeEPK23eap_certificate_entry_c @ 1509 NONAME
	_ZNK30eap_process_tlv_message_data_c16get_payload_sizeEPK23network_key_and_index_c @ 1510 NONAME
	_ZNK30eap_process_tlv_message_data_c16get_payload_sizeEPK26simple_config_credential_c @ 1511 NONAME
	_ZNK30eap_process_tlv_message_data_c16get_payload_sizeEPK28abs_eap_state_notification_c @ 1512 NONAME
	_ZNK32eap_simple_config_trace_string_c16get_state_stringE21simple_config_state_e @ 1513 NONAME
	_ZNK32eap_simple_config_trace_string_c23get_message_type_stringE28simple_config_Message_Type_e @ 1514 NONAME
	_ZNK32eap_simple_config_trace_string_c25get_attribute_type_stringE30simple_config_Attribute_Type_e @ 1515 NONAME
	_ZTI10eap_core_c @ 1516 NONAME
	_ZTI11EAPSettings @ 1517 NONAME
	_ZTI12crypto_aes_c @ 1518 NONAME
	_ZTI12crypto_cbc_c @ 1519 NONAME
	_ZTI12crypto_dsa_c @ 1520 NONAME
	_ZTI12crypto_md4_c @ 1521 NONAME
	_ZTI12crypto_md5_c @ 1522 NONAME
	_ZTI12crypto_rc4_c @ 1523 NONAME
	_ZTI12crypto_rsa_c @ 1524 NONAME
	_ZTI13crypto_hmac_c @ 1525 NONAME
	_ZTI13crypto_sha1_c @ 1526 NONAME
	_ZTI14eap_am_tools_c @ 1527 NONAME
	_ZTI15EapMessageQueue @ 1528 NONAME
	_ZTI15crypto_random_c @ 1529 NONAME
	_ZTI15eap_base_type_c @ 1530 NONAME
	_ZTI15eap_header_rd_c @ 1531 NONAME
	_ZTI15eap_header_wr_c @ 1532 NONAME
	_ZTI16EapMessageBuffer @ 1533 NONAME
	_ZTI16EapServerStrings @ 1534 NONAME
	_ZTI16TEapExpandedType @ 1535 NONAME
	_ZTI16crypto_nt_hash_c @ 1536 NONAME
	_ZTI16crypto_sha_256_c @ 1537 NONAME
	_ZTI16crypto_tls_prf_c @ 1538 NONAME
	_ZTI16eap_tlv_header_c @ 1539 NONAME
	_ZTI17crypto_3des_ede_c @ 1540 NONAME
	_ZTI17crypto_aes_wrap_c @ 1541 NONAME
	_ZTI17eap_file_config_c @ 1542 NONAME
	_ZTI17eap_header_base_c @ 1543 NONAME
	_ZTI17eap_timer_queue_c @ 1544 NONAME
	_ZTI17eapol_header_rd_c @ 1545 NONAME
	_ZTI17eapol_header_wr_c @ 1546 NONAME
	_ZTI18abs_eap_am_mutex_c @ 1547 NONAME
	_ZTI18eap_buf_chain_rd_c @ 1548 NONAME
	_ZTI18eap_buf_chain_wr_c @ 1549 NONAME
	_ZTI18eap_config_value_c @ 1550 NONAME
	_ZTI18eap_session_core_c @ 1551 NONAME
	_ZTI19EapCertificateEntry @ 1552 NONAME
	_ZTI19eap_am_crypto_md4_c @ 1553 NONAME
	_ZTI19eap_am_crypto_rc4_c @ 1554 NONAME
	_ZTI19eap_am_mutex_base_c @ 1555 NONAME
	_ZTI19eap_am_network_id_c @ 1556 NONAME
	_ZTI19eap_core_nak_info_c @ 1557 NONAME
	_ZTI19eap_header_string_c @ 1558 NONAME
	_ZTI19eap_method_values_c @ 1559 NONAME
	_ZTI19eap_status_string_c @ 1560 NONAME
	_ZTI19eap_variable_data_c @ 1561 NONAME
	_ZTI19eapol_header_base_c @ 1562 NONAME
	_ZTI19eapol_session_key_c @ 1563 NONAME
	_ZTI20crypto_tls_md5_prf_c @ 1564 NONAME
	_ZTI20eap_am_crypto_sha1_c @ 1565 NONAME
	_ZTI20eap_buf_chain_base_c @ 1566 NONAME
	_ZTI20eap_rogue_ap_entry_c @ 1567 NONAME
	_ZTI20eap_type_selection_c @ 1568 NONAME
	_ZTI21crypto_tls_base_prf_c @ 1569 NONAME
	_ZTI21crypto_tls_sha1_prf_c @ 1570 NONAME
	_ZTI21eap_am_memory_store_c @ 1571 NONAME
	_ZTI21eap_method_settings_c @ 1572 NONAME
	_ZTI21tls_peap_tlv_header_c @ 1573 NONAME
	_ZTI22eap_am_mutex_symbian_c @ 1574 NONAME
	_ZTI22eap_am_tools_symbian_c @ 1575 NONAME
	_ZTI22eap_timer_queue_hash_c @ 1576 NONAME
	_ZTI22eap_tlv_message_data_c @ 1577 NONAME
	_ZTI23crypto_kd_hmac_sha256_c @ 1578 NONAME
	_ZTI23eap_am_crypto_sha_256_c @ 1579 NONAME
	_ZTI23eap_am_crypto_symbian_c @ 1580 NONAME
	_ZTI23eap_certificate_entry_c @ 1581 NONAME
	_ZTI23eap_session_core_base_c @ 1582 NONAME
	_ZTI23eap_timer_queue_event_c @ 1583 NONAME
	_ZTI23network_key_and_index_c @ 1584 NONAME
	_ZTI24eap_am_mutex_reference_c @ 1585 NONAME
	_ZTI24eap_master_session_key_c @ 1586 NONAME
	_ZTI24eap_state_notification_c @ 1587 NONAME
	_ZTI25eap_core_retransmission_c @ 1588 NONAME
	_ZTI25eap_general_header_base_c @ 1589 NONAME
	_ZTI25eap_network_id_selector_c @ 1590 NONAME
	_ZTI26eapol_ethernet_header_rd_c @ 1591 NONAME
	_ZTI26eapol_ethernet_header_wr_c @ 1592 NONAME
	_ZTI26simple_config_credential_c @ 1593 NONAME
	_ZTI27abs_crypto_hash_algorithm_c @ 1594 NONAME
	_ZTI27abs_crypto_hmac_algorithm_c @ 1595 NONAME
	_ZTI27eap_am_file_input_symbian_c @ 1596 NONAME
	_ZTI28abs_crypto_block_algorithm_c @ 1597 NONAME
	_ZTI28eapol_ethernet_header_base_c @ 1598 NONAME
	_ZTI29abs_crypto_stream_algorithm_c @ 1599 NONAME
	_ZTI30abs_eap_am_memory_store_data_c @ 1600 NONAME
	_ZTI30crypto_wpa_psk_password_hash_c @ 1601 NONAME
	_ZTI30eap_am_memory_store_tlv_data_c @ 1602 NONAME
	_ZTI30eap_process_tlv_message_data_c @ 1603 NONAME
	_ZTI31crypto_eap_fast_hmac_sha1_prf_c @ 1604 NONAME
	_ZTI32abs_crypto_cbc_block_algorithm_c @ 1605 NONAME
	_ZTI32eap_simple_config_trace_string_c @ 1606 NONAME
	_ZTI33crypto_ephemeral_diffie_hellman_c @ 1607 NONAME
	_ZTV10eap_core_c @ 1608 NONAME
	_ZTV11EAPSettings @ 1609 NONAME
	_ZTV12crypto_aes_c @ 1610 NONAME
	_ZTV12crypto_cbc_c @ 1611 NONAME
	_ZTV12crypto_dsa_c @ 1612 NONAME
	_ZTV12crypto_md4_c @ 1613 NONAME
	_ZTV12crypto_md5_c @ 1614 NONAME
	_ZTV12crypto_rc4_c @ 1615 NONAME
	_ZTV12crypto_rsa_c @ 1616 NONAME
	_ZTV13crypto_hmac_c @ 1617 NONAME
	_ZTV13crypto_sha1_c @ 1618 NONAME
	_ZTV14eap_am_tools_c @ 1619 NONAME
	_ZTV15EapMessageQueue @ 1620 NONAME
	_ZTV15crypto_random_c @ 1621 NONAME
	_ZTV15eap_base_type_c @ 1622 NONAME
	_ZTV15eap_header_rd_c @ 1623 NONAME
	_ZTV15eap_header_wr_c @ 1624 NONAME
	_ZTV16EapMessageBuffer @ 1625 NONAME
	_ZTV16EapServerStrings @ 1626 NONAME
	_ZTV16TEapExpandedType @ 1627 NONAME
	_ZTV16crypto_nt_hash_c @ 1628 NONAME
	_ZTV16crypto_sha_256_c @ 1629 NONAME
	_ZTV16crypto_tls_prf_c @ 1630 NONAME
	_ZTV16eap_tlv_header_c @ 1631 NONAME
	_ZTV17crypto_3des_ede_c @ 1632 NONAME
	_ZTV17crypto_aes_wrap_c @ 1633 NONAME
	_ZTV17eap_file_config_c @ 1634 NONAME
	_ZTV17eap_header_base_c @ 1635 NONAME
	_ZTV17eap_timer_queue_c @ 1636 NONAME
	_ZTV17eapol_header_rd_c @ 1637 NONAME
	_ZTV17eapol_header_wr_c @ 1638 NONAME
	_ZTV18abs_eap_am_mutex_c @ 1639 NONAME
	_ZTV18eap_buf_chain_rd_c @ 1640 NONAME
	_ZTV18eap_buf_chain_wr_c @ 1641 NONAME
	_ZTV18eap_config_value_c @ 1642 NONAME
	_ZTV18eap_session_core_c @ 1643 NONAME
	_ZTV19EapCertificateEntry @ 1644 NONAME
	_ZTV19eap_am_crypto_md4_c @ 1645 NONAME
	_ZTV19eap_am_crypto_rc4_c @ 1646 NONAME
	_ZTV19eap_am_mutex_base_c @ 1647 NONAME
	_ZTV19eap_am_network_id_c @ 1648 NONAME
	_ZTV19eap_core_nak_info_c @ 1649 NONAME
	_ZTV19eap_header_string_c @ 1650 NONAME
	_ZTV19eap_method_values_c @ 1651 NONAME
	_ZTV19eap_status_string_c @ 1652 NONAME
	_ZTV19eap_variable_data_c @ 1653 NONAME
	_ZTV19eapol_header_base_c @ 1654 NONAME
	_ZTV19eapol_session_key_c @ 1655 NONAME
	_ZTV20crypto_tls_md5_prf_c @ 1656 NONAME
	_ZTV20eap_am_crypto_sha1_c @ 1657 NONAME
	_ZTV20eap_buf_chain_base_c @ 1658 NONAME
	_ZTV20eap_rogue_ap_entry_c @ 1659 NONAME
	_ZTV20eap_type_selection_c @ 1660 NONAME
	_ZTV21crypto_tls_base_prf_c @ 1661 NONAME
	_ZTV21crypto_tls_sha1_prf_c @ 1662 NONAME
	_ZTV21eap_am_memory_store_c @ 1663 NONAME
	_ZTV21eap_method_settings_c @ 1664 NONAME
	_ZTV21tls_peap_tlv_header_c @ 1665 NONAME
	_ZTV22eap_am_mutex_symbian_c @ 1666 NONAME
	_ZTV22eap_am_tools_symbian_c @ 1667 NONAME
	_ZTV22eap_timer_queue_hash_c @ 1668 NONAME
	_ZTV22eap_tlv_message_data_c @ 1669 NONAME
	_ZTV23crypto_kd_hmac_sha256_c @ 1670 NONAME
	_ZTV23eap_am_crypto_sha_256_c @ 1671 NONAME
	_ZTV23eap_am_crypto_symbian_c @ 1672 NONAME
	_ZTV23eap_certificate_entry_c @ 1673 NONAME
	_ZTV23eap_session_core_base_c @ 1674 NONAME
	_ZTV23eap_timer_queue_event_c @ 1675 NONAME
	_ZTV23network_key_and_index_c @ 1676 NONAME
	_ZTV24eap_am_mutex_reference_c @ 1677 NONAME
	_ZTV24eap_master_session_key_c @ 1678 NONAME
	_ZTV24eap_state_notification_c @ 1679 NONAME
	_ZTV25eap_core_retransmission_c @ 1680 NONAME
	_ZTV25eap_general_header_base_c @ 1681 NONAME
	_ZTV25eap_network_id_selector_c @ 1682 NONAME
	_ZTV26eapol_ethernet_header_rd_c @ 1683 NONAME
	_ZTV26eapol_ethernet_header_wr_c @ 1684 NONAME
	_ZTV26simple_config_credential_c @ 1685 NONAME
	_ZTV27abs_crypto_hash_algorithm_c @ 1686 NONAME
	_ZTV27abs_crypto_hmac_algorithm_c @ 1687 NONAME
	_ZTV27eap_am_file_input_symbian_c @ 1688 NONAME
	_ZTV28abs_crypto_block_algorithm_c @ 1689 NONAME
	_ZTV28eapol_ethernet_header_base_c @ 1690 NONAME
	_ZTV29abs_crypto_stream_algorithm_c @ 1691 NONAME
	_ZTV30abs_eap_am_memory_store_data_c @ 1692 NONAME
	_ZTV30crypto_wpa_psk_password_hash_c @ 1693 NONAME
	_ZTV30eap_am_memory_store_tlv_data_c @ 1694 NONAME
	_ZTV30eap_process_tlv_message_data_c @ 1695 NONAME
	_ZTV31crypto_eap_fast_hmac_sha1_prf_c @ 1696 NONAME
	_ZTV32abs_crypto_cbc_block_algorithm_c @ 1697 NONAME
	_ZTV32eap_simple_config_trace_string_c @ 1698 NONAME
	_ZTV33crypto_ephemeral_diffie_hellman_c @ 1699 NONAME
	_ZThn12_N10eap_core_c12get_is_validEv @ 1700 NONAME
	_ZThn12_N10eap_core_c12set_is_validEv @ 1701 NONAME
	_ZThn12_N10eap_core_c14packet_processEPK19eap_am_network_id_cP25eap_general_header_base_cm @ 1702 NONAME
	_ZThn12_N10eap_core_c8shutdownEv @ 1703 NONAME
	_ZThn12_N10eap_core_c9configureEv @ 1704 NONAME
	_ZThn12_N10eap_core_cD0Ev @ 1705 NONAME
	_ZThn12_N10eap_core_cD1Ev @ 1706 NONAME
	_ZThn12_N18eap_session_core_c12get_is_validEv @ 1707 NONAME
	_ZThn12_N18eap_session_core_c12set_is_validEv @ 1708 NONAME
	_ZThn12_N18eap_session_core_c14packet_processEPK19eap_am_network_id_cP25eap_general_header_base_cm @ 1709 NONAME
	_ZThn12_N18eap_session_core_c8shutdownEv @ 1710 NONAME
	_ZThn12_N18eap_session_core_c9configureEv @ 1711 NONAME
	_ZThn12_N18eap_session_core_cD0Ev @ 1712 NONAME
	_ZThn12_N18eap_session_core_cD1Ev @ 1713 NONAME
	_ZThn16_N18eap_session_core_c12get_is_validEv @ 1714 NONAME
	_ZThn16_N18eap_session_core_c14packet_processEPK19eap_am_network_id_cP25eap_general_header_base_cm @ 1715 NONAME
	_ZThn16_N18eap_session_core_c15eap_acknowledgeEPK19eap_am_network_id_c @ 1716 NONAME
	_ZThn16_N18eap_session_core_c18create_eap_sessionEPK19eap_am_network_id_c @ 1717 NONAME
	_ZThn16_N18eap_session_core_c18remove_eap_sessionEbPK19eap_am_network_id_c @ 1718 NONAME
	_ZThn16_N18eap_session_core_c23cancel_all_eap_sessionsEv @ 1719 NONAME
	_ZThn16_N18eap_session_core_c25send_eap_identity_requestEPK19eap_am_network_id_c @ 1720 NONAME
	_ZThn16_N18eap_session_core_c30get_802_11_authentication_modeEPK19eap_am_network_id_c31eapol_key_authentication_type_ePK19eap_variable_data_cS6_ @ 1721 NONAME
	_ZThn16_N18eap_session_core_c33set_eap_database_reference_valuesEPK19eap_variable_data_c @ 1722 NONAME
	_ZThn16_N18eap_session_core_c5resetEv @ 1723 NONAME
	_ZThn16_N18eap_session_core_c8shutdownEv @ 1724 NONAME
	_ZThn16_N18eap_session_core_c9configureEv @ 1725 NONAME
	_ZThn16_N18eap_session_core_cD0Ev @ 1726 NONAME
	_ZThn16_N18eap_session_core_cD1Ev @ 1727 NONAME
	_ZThn4_N10eap_core_c11load_moduleE19eap_expanded_type_cS0_P19abs_eap_base_type_cPP15eap_base_type_cbPK19eap_am_network_id_c @ 1728 NONAME
	_ZThn4_N10eap_core_c11packet_sendEPK19eap_am_network_id_cP18eap_buf_chain_wr_cmmm @ 1729 NONAME
	_ZThn4_N10eap_core_c12add_rogue_apER11eap_array_cI20eap_rogue_ap_entry_cE @ 1730 NONAME
	_ZThn4_N10eap_core_c12cancel_timerEP20abs_eap_base_timer_cm @ 1731 NONAME
	_ZThn4_N10eap_core_c13unload_moduleE19eap_expanded_type_c @ 1732 NONAME
	_ZThn4_N10eap_core_c14read_configureEPK25eap_configuration_field_cP19eap_variable_data_c @ 1733 NONAME
	_ZThn4_N10eap_core_c15write_configureEPK25eap_configuration_field_cP19eap_variable_data_c @ 1734 NONAME
	_ZThn4_N10eap_core_c17get_eap_type_listEP11eap_array_cI19eap_expanded_type_cE @ 1735 NONAME
	_ZThn4_N10eap_core_c17get_header_offsetEPmS0_ @ 1736 NONAME
	_ZThn4_N10eap_core_c18state_notificationEPK28abs_eap_state_notification_c @ 1737 NONAME
	_ZThn4_N10eap_core_c19set_session_timeoutEm @ 1738 NONAME
	_ZThn4_N10eap_core_c22get_saved_eap_identityEP19eap_variable_data_c @ 1739 NONAME
	_ZThn4_N10eap_core_c22restart_authenticationEPK19eap_am_network_id_cb @ 1740 NONAME
	_ZThn4_N10eap_core_c23check_is_valid_eap_typeE19eap_expanded_type_c @ 1741 NONAME
	_ZThn4_N10eap_core_c23packet_data_crypto_keysEPK19eap_am_network_id_cPK24eap_master_session_key_c @ 1742 NONAME
	_ZThn4_N10eap_core_c23set_authentication_roleEb @ 1743 NONAME
	_ZThn4_N10eap_core_c27complete_eap_identity_queryEPK19eap_am_network_id_cPK19eap_variable_data_ch @ 1744 NONAME
	_ZThn4_N10eap_core_c9set_timerEP20abs_eap_base_timer_cmPvm @ 1745 NONAME
	_ZThn4_N10eap_core_cD0Ev @ 1746 NONAME
	_ZThn4_N10eap_core_cD1Ev @ 1747 NONAME
	_ZThn4_N14eap_am_tools_cD0Ev @ 1748 NONAME
	_ZThn4_N14eap_am_tools_cD1Ev @ 1749 NONAME
	_ZThn4_N18eap_session_core_cD0Ev @ 1750 NONAME
	_ZThn4_N18eap_session_core_cD1Ev @ 1751 NONAME
	_ZThn4_N21eap_am_memory_store_c13timer_expiredEmPv @ 1752 NONAME
	_ZThn4_N21eap_am_memory_store_c17timer_delete_dataEmPv @ 1753 NONAME
	_ZThn4_N21eap_am_memory_store_cD0Ev @ 1754 NONAME
	_ZThn4_N21eap_am_memory_store_cD1Ev @ 1755 NONAME
	_ZThn4_N22eap_am_mutex_symbian_cD0Ev @ 1756 NONAME
	_ZThn4_N22eap_am_mutex_symbian_cD1Ev @ 1757 NONAME
	_ZThn4_N22eap_am_tools_symbian_cD0Ev @ 1758 NONAME
	_ZThn4_N22eap_am_tools_symbian_cD1Ev @ 1759 NONAME
	_ZThn4_NK10eap_core_c19get_is_tunneled_eapEv @ 1760 NONAME
	_ZThn536_N22eap_am_tools_symbian_cD0Ev @ 1761 NONAME
	_ZThn536_N22eap_am_tools_symbian_cD1Ev @ 1762 NONAME
	_ZThn8_N10eap_core_c13timer_expiredEmPv @ 1763 NONAME
	_ZThn8_N10eap_core_c17timer_delete_dataEmPv @ 1764 NONAME
	_ZThn8_N10eap_core_cD0Ev @ 1765 NONAME
	_ZThn8_N10eap_core_cD1Ev @ 1766 NONAME
	_ZThn8_N18eap_session_core_c13timer_expiredEmPv @ 1767 NONAME
	_ZThn8_N18eap_session_core_c17timer_delete_dataEmPv @ 1768 NONAME
	_ZThn8_N18eap_session_core_cD0Ev @ 1769 NONAME
	_ZThn8_N18eap_session_core_cD1Ev @ 1770 NONAME
	_ZN10eap_core_c36asynchronous_init_remove_eap_sessionEv @ 1771 NONAME
	_ZN10eap_core_c43cancel_asynchronous_init_remove_eap_sessionEv @ 1772 NONAME
	_ZN10eap_core_c47initialize_asynchronous_init_remove_eap_sessionEm @ 1773 NONAME
	_ZN18eap_session_core_c36asynchronous_init_remove_eap_sessionEPK25eap_network_id_selector_c @ 1774 NONAME
	_ZN22eap_am_tools_symbian_c17stop_timer_threadEv @ 1775 NONAME
	_ZN22eap_am_tools_symbian_c18start_timer_threadEv @ 1776 NONAME
	_ZN27eap_am_file_input_symbian_c12get_is_validEv @ 1777 NONAME
	_ZN27eap_am_file_input_symbian_c14directory_openEPK19eap_variable_data_c @ 1778 NONAME
	_ZN27eap_am_file_input_symbian_c14directory_readEP11eap_array_cI19abs_eap_file_stat_cE @ 1779 NONAME
	_ZN27eap_am_file_input_symbian_c14file_read_wordEP19eap_variable_data_c @ 1780 NONAME
	_ZN27eap_am_file_input_symbian_c15directory_closeEv @ 1781 NONAME
	dss_pseudo_random @ 1782 NONAME

