EXPORTS
	_ZN11CPacStoreIf12get_is_validEv @ 1 NONAME
	_ZN11CPacStoreIf12process_dataEPKvi @ 2 NONAME
	_ZN11CPacStoreIf15new_CPacStoreIfEP18abs_eap_am_tools_cbmP19AbsEapSendInterface @ 3 NONAME
	_ZN11CPacStoreIf8shutdownEv @ 4 NONAME
	_ZN11CPacStoreIf9configureEPK19eap_variable_data_c @ 5 NONAME
	_ZN11CPacStoreIf9send_dataEPKvm @ 6 NONAME
	_ZN11CPacStoreIfC1EP18abs_eap_am_tools_cP19eap_am_message_if_cP19AbsEapSendInterface @ 7 NONAME
	_ZN11CPacStoreIfC2EP18abs_eap_am_tools_cP19eap_am_message_if_cP19AbsEapSendInterface @ 8 NONAME
	_ZN11CPacStoreIfD0Ev @ 9 NONAME
	_ZN11CPacStoreIfD1Ev @ 10 NONAME
	_ZN11CPacStoreIfD2Ev @ 11 NONAME
	_ZN18eap_fast_pac_tlv_c10create_MACEP19eap_variable_data_cPKS0_S3_ @ 12 NONAME
	_ZN18eap_fast_pac_tlv_c10create_tlvEP24eap_fast_variable_data_cPK19eap_variable_data_c @ 13 NONAME
	_ZN18eap_fast_pac_tlv_c12get_is_validEv @ 14 NONAME
	_ZN18eap_fast_pac_tlv_c13parse_pac_tlvEPK24eap_fast_variable_data_c @ 15 NONAME
	_ZN18eap_fast_pac_tlv_c14create_pac_tlvEP24eap_fast_variable_data_cPKS0_S3_S3_19eap_fast_pac_type_e @ 16 NONAME
	_ZN18eap_fast_pac_tlv_c14parse_PAC_dataEPK19eap_variable_data_cS2_ @ 17 NONAME
	_ZN18eap_fast_pac_tlv_c14read_u16_t_tlvEPK24eap_fast_variable_data_c19eap_fast_tlv_type_ePt @ 18 NONAME
	_ZN18eap_fast_pac_tlv_c14read_u32_t_tlvEPK24eap_fast_variable_data_c19eap_fast_tlv_type_ePm @ 19 NONAME
	_ZN18eap_fast_pac_tlv_c15create_PAC_dataEP19eap_variable_data_cPKS0_PK24eap_fast_variable_data_cS6_S6_ @ 20 NONAME
	_ZN18eap_fast_pac_tlv_c15create_type_tlvEP24eap_fast_variable_data_c19eap_fast_pac_type_e @ 21 NONAME
	_ZN18eap_fast_pac_tlv_c15parse_A_ID_dataEPK19eap_variable_data_cS2_ @ 22 NONAME
	_ZN18eap_fast_pac_tlv_c16create_A_ID_dataEP19eap_variable_data_cPKS0_PK24eap_fast_variable_data_cS6_S6_S6_ @ 23 NONAME
	_ZN18eap_fast_pac_tlv_c16create_u16_t_tlvEP24eap_fast_variable_data_c19eap_fast_tlv_type_et @ 24 NONAME
	_ZN18eap_fast_pac_tlv_c16create_u32_t_tlvEP24eap_fast_variable_data_c19eap_fast_tlv_type_em @ 25 NONAME
	_ZN18eap_fast_pac_tlv_c16parse_group_dataEPK19eap_variable_data_cS2_ @ 26 NONAME
	_ZN18eap_fast_pac_tlv_c16read_generic_tlvEPK24eap_fast_variable_data_c19eap_fast_tlv_type_eP19eap_variable_data_c @ 27 NONAME
	_ZN18eap_fast_pac_tlv_c17create_group_dataEP19eap_variable_data_cPKS0_PK24eap_fast_variable_data_cS6_S6_ @ 28 NONAME
	_ZN18eap_fast_pac_tlv_c17generate_data_keyEb25eap_pac_store_data_type_eP19eap_variable_data_cPKS1_S4_S4_ @ 29 NONAME
	_ZN18eap_fast_pac_tlv_c18create_generic_tlvEP24eap_fast_variable_data_c19eap_fast_tlv_type_ePK19eap_variable_data_c @ 30 NONAME
	_ZN18eap_fast_pac_tlv_c19create_pac_info_tlvEP24eap_fast_variable_data_cPKS0_S3_S3_S3_S3_ @ 31 NONAME
	_ZN18eap_fast_pac_tlv_c19create_test_pac_tlvEP24eap_fast_variable_data_cPK19eap_variable_data_cS4_S4_S4_S4_S4_19eap_fast_pac_type_emt @ 32 NONAME
	_ZN18eap_fast_pac_tlv_c19parse_data_with_MACEPK19eap_variable_data_cS2_ @ 33 NONAME
	_ZN18eap_fast_pac_tlv_c19parse_encrypted_tlvEP24eap_fast_variable_data_cPK19eap_variable_data_cPKS0_ @ 34 NONAME
	_ZN18eap_fast_pac_tlv_c20create_data_with_MACEP19eap_variable_data_cPKS0_PK24eap_fast_variable_data_c @ 35 NONAME
	_ZN18eap_fast_pac_tlv_c20create_encrypted_tlvEP24eap_fast_variable_data_c19eap_fast_tlv_type_ePK19eap_variable_data_cS1_ @ 36 NONAME
	_ZN18eap_fast_pac_tlv_c21create_type_tlv_queryEP24eap_fast_variable_data_c19eap_fast_pac_type_e @ 37 NONAME
	_ZN18eap_fast_pac_tlv_c22create_master_key_dataEPK19eap_variable_data_cS2_S2_S2_PS0_ @ 38 NONAME
	_ZN18eap_fast_pac_tlv_c25parse_test_pac_opaque_tlvEPK24eap_fast_variable_data_cPK19eap_variable_data_cS5_ @ 39 NONAME
	_ZN18eap_fast_pac_tlv_c26read_PAC_Type_from_PAC_TLVEPK24eap_fast_variable_data_cP19eap_fast_pac_type_e @ 40 NONAME
	_ZN18eap_fast_pac_tlv_c5resetEv @ 41 NONAME
	_ZN20eap_fast_pac_store_c10query_PACsEPK24eap_fast_variable_data_c @ 42 NONAME
	_ZN20eap_fast_pac_store_c10remove_PACEPK24eap_fast_variable_data_c @ 43 NONAME
	_ZN20eap_fast_pac_store_c10remove_PACEPK25eap_fast_pac_store_data_cS2_PK19eap_variable_data_c @ 44 NONAME
	_ZN20eap_fast_pac_store_c11add_PAC_TLVE31eap_fast_completion_operation_ePK24eap_fast_variable_data_c @ 45 NONAME
	_ZN20eap_fast_pac_store_c11remove_A_IDEPK24eap_fast_variable_data_c @ 46 NONAME
	_ZN20eap_fast_pac_store_c11remove_pacsEPK24eap_fast_variable_data_c @ 47 NONAME
	_ZN20eap_fast_pac_store_c12get_is_validEv @ 48 NONAME
	_ZN20eap_fast_pac_store_c13timer_expiredEmPv @ 49 NONAME
	_ZN20eap_fast_pac_store_c14encypt_PAC_TLVEPK24eap_fast_variable_data_cS2_19eap_fast_pac_type_eP25eap_fast_pac_store_data_c @ 50 NONAME
	_ZN20eap_fast_pac_store_c14save_pac_storeEv @ 51 NONAME
	_ZN20eap_fast_pac_store_c15add_PAC_to_A_IDEPK25eap_fast_pac_store_data_cPK24eap_fast_variable_data_cS5_P19eap_fast_pac_type_e @ 52 NONAME
	_ZN20eap_fast_pac_store_c15decrypt_PAC_TLVEP24eap_fast_variable_data_cPK25eap_fast_pac_store_data_cPK19eap_variable_data_c @ 53 NONAME
	_ZN20eap_fast_pac_store_c17cancel_operationsEv @ 54 NONAME
	_ZN20eap_fast_pac_store_c17timer_delete_dataEmPv @ 55 NONAME
	_ZN20eap_fast_pac_store_c19save_PAC_store_dataEPK11eap_array_cI25eap_fast_pac_store_data_cE @ 56 NONAME
	_ZN20eap_fast_pac_store_c20find_group_with_A_IDEPK24eap_fast_variable_data_cP25eap_fast_pac_store_data_cS4_ @ 57 NONAME
	_ZN20eap_fast_pac_store_c20read_PACs_from_groupEPK24eap_fast_variable_data_cPK25eap_fast_pac_store_data_cP11eap_array_cIS0_E @ 58 NONAME
	_ZN20eap_fast_pac_store_c20remove_IAP_referenceEPK19eap_variable_data_cPK25eap_fast_pac_store_data_c @ 59 NONAME
	_ZN20eap_fast_pac_store_c21add_imported_PAC_fileEPK19eap_variable_data_cPK25eap_fast_pac_store_data_cS2_S2_ @ 60 NONAME
	_ZN20eap_fast_pac_store_c21completion_action_addE31eap_fast_pac_store_completion_e @ 61 NONAME
	_ZN20eap_fast_pac_store_c21completion_action_popEv @ 62 NONAME
	_ZN20eap_fast_pac_store_c21mark_pac_data_deletedEP11eap_array_cI25eap_fast_pac_store_data_cES3_PKS1_ @ 63 NONAME
	_ZN20eap_fast_pac_store_c21remove_IAP_from_groupEPK19eap_variable_data_cP25eap_fast_pac_store_data_cS4_ @ 64 NONAME
	_ZN20eap_fast_pac_store_c21set_pending_operationE38eap_fast_pac_store_pending_operation_e @ 65 NONAME
	_ZN20eap_fast_pac_store_c22completion_action_pushE31eap_fast_pac_store_completion_e @ 66 NONAME
	_ZN20eap_fast_pac_store_c23completion_action_checkEv @ 67 NONAME
	_ZN20eap_fast_pac_store_c23completion_action_traceEv @ 68 NONAME
	_ZN20eap_fast_pac_store_c23create_unique_referenceEP25eap_fast_pac_store_data_c @ 69 NONAME
	_ZN20eap_fast_pac_store_c23read_all_PAC_store_infoE38eap_fast_pac_store_pending_operation_ebbb @ 70 NONAME
	_ZN20eap_fast_pac_store_c24completion_action_clenupEv @ 71 NONAME
	_ZN20eap_fast_pac_store_c24query_PAC_store_passwordE38eap_fast_pac_store_pending_operation_e @ 72 NONAME
	_ZN20eap_fast_pac_store_c25update_PAC_reference_listEPK25eap_fast_pac_store_data_cPK11eap_array_cI24eap_fast_variable_data_cE @ 73 NONAME
	_ZN20eap_fast_pac_store_c27check_all_info_is_availableE38eap_fast_pac_store_pending_operation_e @ 74 NONAME
	_ZN20eap_fast_pac_store_c27query_password_for_PAC_fileE38eap_fast_pac_store_pending_operation_ePK19eap_variable_data_c @ 75 NONAME
	_ZN20eap_fast_pac_store_c28complete_read_PAC_store_dataE12eap_status_e38eap_fast_pac_store_pending_operation_ePK11eap_array_cI25eap_fast_pac_store_data_cE @ 76 NONAME
	_ZN20eap_fast_pac_store_c28internal_complete_query_PACsEPK24eap_fast_variable_data_cPK19eap_variable_data_cPK25eap_fast_pac_store_data_c @ 77 NONAME
	_ZN20eap_fast_pac_store_c28internal_complete_remove_PACEPK25eap_fast_pac_store_data_cS2_PK19eap_variable_data_c @ 78 NONAME
	_ZN20eap_fast_pac_store_c28remove_cached_pac_store_dataEv @ 79 NONAME
	_ZN20eap_fast_pac_store_c29add_new_PAC_reference_to_listEP24eap_fast_variable_data_cPKS0_PK25eap_fast_pac_store_data_c @ 80 NONAME
	_ZN20eap_fast_pac_store_c29add_to_pac_data_if_not_existsEP11eap_array_cI25eap_fast_pac_store_data_cEPKS1_ @ 81 NONAME
	_ZN20eap_fast_pac_store_c29are_pending_queries_completedEv @ 82 NONAME
	_ZN20eap_fast_pac_store_c29complete_write_PAC_store_dataE12eap_status_e38eap_fast_pac_store_pending_operation_e @ 83 NONAME
	_ZN20eap_fast_pac_store_c29create_new_PAC_reference_listEP24eap_fast_variable_data_cPK11eap_array_cIS0_E @ 84 NONAME
	_ZN20eap_fast_pac_store_c29get_A_ID_reference_from_groupE38eap_fast_pac_store_pending_operation_ePK25eap_fast_pac_store_data_cPK24eap_fast_variable_data_cPS1_ @ 85 NONAME
	_ZN20eap_fast_pac_store_c29internal_complete_add_PAC_TLVE38eap_fast_pac_store_pending_operation_ePK19eap_variable_data_cPK25eap_fast_pac_store_data_cPK24eap_fast_variable_data_c @ 86 NONAME
	_ZN20eap_fast_pac_store_c29query_PAC_store_IAP_referenceE38eap_fast_pac_store_pending_operation_e @ 87 NONAME
	_ZN20eap_fast_pac_store_c30query_user_permission_for_A_IDEPK24eap_fast_variable_data_cS2_ @ 88 NONAME
	_ZN20eap_fast_pac_store_c34remove_old_PAC_reference_from_listEP24eap_fast_variable_data_cPKS0_PK11eap_array_cI25eap_fast_pac_store_data_cE @ 89 NONAME
	_ZN20eap_fast_pac_store_c35internal_complete_pending_operationE38eap_fast_pac_store_pending_operation_e @ 90 NONAME
	_ZN20eap_fast_pac_store_c38internal_complete_find_group_with_A_IDEPK24eap_fast_variable_data_cP25eap_fast_pac_store_data_cS4_ @ 91 NONAME
	_ZN20eap_fast_pac_store_c38internal_complete_remove_IAP_referenceEPK19eap_variable_data_cPK25eap_fast_pac_store_data_c @ 92 NONAME
	_ZN20eap_fast_pac_store_c39complete_query_user_permission_for_A_IDE12eap_status_e38eap_fast_pac_store_pending_operation_e @ 93 NONAME
	_ZN20eap_fast_pac_store_c39internal_complete_add_imported_PAC_dataEPK19eap_variable_data_cPK25eap_fast_pac_store_data_cS2_S2_ @ 94 NONAME
	_ZN20eap_fast_pac_store_c43internal_complete_process_imported_PAC_dataEPK19eap_variable_data_cPK25eap_fast_pac_store_data_cS2_S2_S2_ @ 95 NONAME
	_ZN20eap_fast_pac_store_c46create_group_with_A_ID_if_group_does_not_existEPK24eap_fast_variable_data_cP25eap_fast_pac_store_data_cS4_ @ 96 NONAME
	_ZN20eap_fast_pac_store_c48internal_complete_query_user_permission_for_A_IDEv @ 97 NONAME
	_ZN20eap_fast_pac_store_c50internal_complete_remove_IAP_reference_from_groupsEPK19eap_variable_data_cPK25eap_fast_pac_store_data_c @ 98 NONAME
	_ZN20eap_fast_pac_store_c8shutdownEv @ 99 NONAME
	_ZN20eap_fast_pac_store_c9configureEv @ 100 NONAME
	_ZN20eap_fast_pac_store_c9save_listEPK19eap_variable_data_c19eap_fast_tlv_type_eP11eap_array_cIS0_E @ 101 NONAME
	_ZN20eap_fast_pac_store_c9save_listEPK24eap_fast_variable_data_c19eap_fast_tlv_type_eP11eap_array_cIS0_E @ 102 NONAME
	_ZN22eap_fast_tlv_message_c11add_paddingEm @ 103 NONAME
	_ZN22eap_fast_tlv_message_c12get_is_validEv @ 104 NONAME
	_ZN22eap_fast_tlv_message_c25get_eap_fast_message_dataEv @ 105 NONAME
	_ZN22eap_fast_tlv_message_c25set_eap_fast_message_dataEP19eap_variable_data_ch @ 106 NONAME
	_ZN22eap_fast_tlv_message_c5resetEv @ 107 NONAME
	_ZN22eap_fast_tlv_message_cC1EP18abs_eap_am_tools_cb @ 108 NONAME
	_ZN22eap_fast_tlv_message_cC2EP18abs_eap_am_tools_cb @ 109 NONAME
	_ZN22eap_fast_tlv_message_cD0Ev @ 110 NONAME
	_ZN22eap_fast_tlv_message_cD1Ev @ 111 NONAME
	_ZN22eap_fast_tlv_message_cD2Ev @ 112 NONAME
	_ZN23eap_fast_tlv_payloads_c13copy_tlv_dataE19eap_fast_tlv_type_ebPKvm @ 113 NONAME
	_ZN23eap_fast_tlv_payloads_c14verify_paddingEPKhm @ 114 NONAME
	_ZN23eap_fast_tlv_payloads_c21parse_generic_payloadE19eap_fast_tlv_type_ePK21eap_fast_tlv_header_cb @ 115 NONAME
	_ZN23eap_fast_tlv_payloads_c23parse_eap_fast_payloadsEPvPmS1_b @ 116 NONAME
	_ZN23eap_fast_tlv_payloads_c5resetEv @ 117 NONAME
	_ZN23eap_fast_tlv_payloads_c7add_tlvEP24eap_fast_variable_data_c @ 118 NONAME
	_ZN23eap_fast_tlv_payloads_c8copy_tlvEPKS_19eap_fast_tlv_type_e @ 119 NONAME
	_ZN23eap_fast_tlv_payloads_cC1EP18abs_eap_am_tools_cb @ 120 NONAME
	_ZN23eap_fast_tlv_payloads_cC2EP18abs_eap_am_tools_cb @ 121 NONAME
	_ZN23eap_fast_tlv_payloads_cD0Ev @ 122 NONAME
	_ZN23eap_fast_tlv_payloads_cD1Ev @ 123 NONAME
	_ZN23eap_fast_tlv_payloads_cD2Ev @ 124 NONAME
	_ZN24eap_fast_variable_data_c11init_headerE19eap_fast_tlv_type_ebm @ 125 NONAME
	_ZN24eap_fast_variable_data_c12set_tlv_typeE19eap_fast_tlv_type_e @ 126 NONAME
	_ZN24eap_fast_variable_data_c16set_is_mandatoryEb @ 127 NONAME
	_ZN24eap_fast_variable_data_c18set_copy_of_bufferE19eap_fast_tlv_type_ebPKvm @ 128 NONAME
	_ZN24eap_fast_variable_data_c18set_copy_of_bufferEPKS_ @ 129 NONAME
	_ZN24eap_fast_variable_data_c18set_copy_of_bufferEPKvm @ 130 NONAME
	_ZN24eap_fast_variable_data_c28get_writable_full_tlv_bufferEv @ 131 NONAME
	_ZN24eap_fast_variable_data_c31object_increase_reference_countEv @ 132 NONAME
	_ZN24eap_fast_variable_data_c35add_next_payload_with_same_tlv_typeEPS_ @ 133 NONAME
	_ZN24eap_fast_variable_data_c35set_next_payload_with_same_tlv_typeEPS_ @ 134 NONAME
	_ZN24eap_fast_variable_data_c5resetEv @ 135 NONAME
	_ZN24eap_fast_variable_data_c8add_dataEPKS_ @ 136 NONAME
	_ZN24eap_fast_variable_data_c8add_dataEPKvm @ 137 NONAME
	_ZN24eap_fast_variable_data_cC1EP18abs_eap_am_tools_c @ 138 NONAME
	_ZN24eap_fast_variable_data_cC2EP18abs_eap_am_tools_c @ 139 NONAME
	_ZN24eap_fast_variable_data_cD0Ev @ 140 NONAME
	_ZN24eap_fast_variable_data_cD1Ev @ 141 NONAME
	_ZN24eap_fast_variable_data_cD2Ev @ 142 NONAME
	_ZN25eap_fast_pac_store_data_c12set_PAC_typeE19eap_fast_pac_type_e @ 143 NONAME
	_ZN25eap_fast_pac_store_data_c17get_writable_dataEv @ 144 NONAME
	_ZN25eap_fast_pac_store_data_c17set_change_statusE34eap_pac_store_data_change_status_e @ 145 NONAME
	_ZN25eap_fast_pac_store_data_c18set_copy_of_bufferEPKS_ @ 146 NONAME
	_ZN25eap_fast_pac_store_data_c22get_writable_referenceEv @ 147 NONAME
	_ZN25eap_fast_pac_store_data_c24get_data_references_readEv @ 148 NONAME
	_ZN25eap_fast_pac_store_data_c24set_data_references_readEv @ 149 NONAME
	_ZN25eap_fast_pac_store_data_c5resetEv @ 150 NONAME
	_ZN25eap_fast_pac_store_data_c8set_typeE25eap_pac_store_data_type_e @ 151 NONAME
	_ZN25eap_fast_pac_store_data_cC1EP18abs_eap_am_tools_c @ 152 NONAME
	_ZN25eap_fast_pac_store_data_cC2EP18abs_eap_am_tools_c @ 153 NONAME
	_ZN25eap_fast_pac_store_data_cD0Ev @ 154 NONAME
	_ZN25eap_fast_pac_store_data_cD1Ev @ 155 NONAME
	_ZN25eap_fast_pac_store_data_cD2Ev @ 156 NONAME
	_ZN26eap_am_pac_store_symbian_c14open_pac_storeEv @ 157 NONAME
	_ZN26eap_am_pac_store_symbian_c17destroy_pac_storeEv @ 158 NONAME
	_ZN26eap_am_pac_store_symbian_c18create_device_seedEv @ 159 NONAME
	_ZN26eap_am_pac_store_symbian_c21is_master_key_presentEv @ 160 NONAME
	_ZN26eap_am_pac_store_symbian_c22set_pac_store_passwordEPK19eap_variable_data_c @ 161 NONAME
	_ZN26eap_am_pac_store_symbian_c26compare_pac_store_passwordEP19eap_variable_data_c @ 162 NONAME
	_ZN26eap_am_pac_store_symbian_c26create_and_save_master_keyEPK19eap_variable_data_c @ 163 NONAME
	_ZN26eap_am_pac_store_symbian_c28is_pacstore_password_presentEv @ 164 NONAME
	_ZN26eap_am_pac_store_symbian_c35is_master_key_and_password_matchingEPK19eap_variable_data_c @ 165 NONAME
	_ZN26eap_am_pac_store_symbian_c8shutdownEv @ 166 NONAME
	_ZN26eap_am_pac_store_symbian_c9configureEv @ 167 NONAME
	_ZN28eap_fast_tlv_header_string_c24get_fast_pac_type_stringE19eap_fast_pac_type_e @ 168 NONAME
	_ZN28eap_fast_tlv_header_string_c30get_fast_pac_store_data_stringE25eap_pac_store_data_type_e @ 169 NONAME
	_ZN28eap_fast_tlv_header_string_c30get_fast_pac_store_data_stringE38eap_fast_pac_store_pending_operation_e @ 170 NONAME
	_ZN28eap_fast_tlv_header_string_c33get_fast_tlv_header_string_stringE18eap_fast_subtype_e @ 171 NONAME
	_ZN28eap_fast_tlv_header_string_c33get_fast_tlv_header_string_stringE18eap_fast_version_e @ 172 NONAME
	_ZN28eap_fast_tlv_header_string_c33get_fast_tlv_header_string_stringE19eap_fast_tlv_type_eb @ 173 NONAME
	_ZN28eap_fast_tlv_header_string_c33get_fast_tlv_header_string_stringE21eap_fast_tlv_status_e @ 174 NONAME
	_ZN28eap_fast_tlv_header_string_c33get_fast_tlv_header_string_stringE25eap_fast_request_action_e @ 175 NONAME
	_ZN28eap_fast_tlv_header_string_c33get_fast_tlv_header_string_stringE25eap_fast_tlv_error_code_e @ 176 NONAME
	_ZN28eap_fast_tlv_header_string_c33get_fast_tlv_header_string_stringE39eap_fast_tlv_type_crypto_binding_type_e @ 177 NONAME
	_ZN28eap_fast_tlv_header_string_c44get_fast_pac_store_data_change_status_stringE34eap_pac_store_data_change_status_e @ 178 NONAME
	_ZN28eap_fast_tlv_header_string_cC1Ev @ 179 NONAME
	_ZN28eap_fast_tlv_header_string_cC2Ev @ 180 NONAME
	_ZN28eap_fast_tlv_header_string_cD0Ev @ 181 NONAME
	_ZN28eap_fast_tlv_header_string_cD1Ev @ 182 NONAME
	_ZN28eap_fast_tlv_header_string_cD2Ev @ 183 NONAME
	_ZN31eap_fast_pac_store_completion_c12get_is_validEv @ 184 NONAME
	_ZN31eap_fast_pac_store_completion_c12set_is_validEv @ 185 NONAME
	_ZN31eap_fast_pac_store_completion_c21set_completion_actionE31eap_fast_pac_store_completion_e @ 186 NONAME
	_ZN31eap_fast_pac_store_completion_c28get_completion_action_stringE31eap_fast_pac_store_completion_e @ 187 NONAME
	_ZN31eap_fast_pac_store_completion_cC1EP18abs_eap_am_tools_c31eap_fast_pac_store_completion_e @ 188 NONAME
	_ZN31eap_fast_pac_store_completion_cC2EP18abs_eap_am_tools_c31eap_fast_pac_store_completion_e @ 189 NONAME
	_ZN31eap_fast_pac_store_completion_cD0Ev @ 190 NONAME
	_ZN31eap_fast_pac_store_completion_cD1Ev @ 191 NONAME
	_ZN31eap_fast_pac_store_completion_cD2Ev @ 192 NONAME
	_ZN33eap_pac_store_server_message_if_c11set_partnerEP23abs_eap_am_message_if_c @ 193 NONAME
	_ZN33eap_pac_store_server_message_if_c12get_is_validEv @ 194 NONAME
	_ZN33eap_pac_store_server_message_if_c12process_dataEPKvm @ 195 NONAME
	_ZN33eap_pac_store_server_message_if_c12send_messageEP30eap_process_tlv_message_data_c @ 196 NONAME
	_ZN33eap_pac_store_server_message_if_c12set_is_validEv @ 197 NONAME
	_ZN33eap_pac_store_server_message_if_c13timer_expiredEmPv @ 198 NONAME
	_ZN33eap_pac_store_server_message_if_c15process_messageEP30eap_process_tlv_message_data_c @ 199 NONAME
	_ZN33eap_pac_store_server_message_if_c17timer_delete_dataEmPv @ 200 NONAME
	_ZN33eap_pac_store_server_message_if_c18send_error_messageE12eap_status_e31eap_tlv_message_type_function_e @ 201 NONAME
	_ZN33eap_pac_store_server_message_if_c23complete_open_pac_storeE12eap_status_e @ 202 NONAME
	_ZN33eap_pac_store_server_message_if_c26complete_destroy_pac_storeE12eap_status_e @ 203 NONAME
	_ZN33eap_pac_store_server_message_if_c26process_message_type_errorEPK11eap_array_cI16eap_tlv_header_cE @ 204 NONAME
	_ZN33eap_pac_store_server_message_if_c27complete_create_device_seedE12eap_status_e @ 205 NONAME
	_ZN33eap_pac_store_server_message_if_c30complete_is_master_key_presentEb @ 206 NONAME
	_ZN33eap_pac_store_server_message_if_c31complete_set_pac_store_passwordE12eap_status_e @ 207 NONAME
	_ZN33eap_pac_store_server_message_if_c35complete_compare_pac_store_passwordEb @ 208 NONAME
	_ZN33eap_pac_store_server_message_if_c35complete_create_and_save_master_keyE12eap_status_e @ 209 NONAME
	_ZN33eap_pac_store_server_message_if_c37complete_is_pacstore_password_presentEb @ 210 NONAME
	_ZN33eap_pac_store_server_message_if_c37new_eap_pac_store_server_message_if_cEP18abs_eap_am_tools_c @ 211 NONAME
	_ZN33eap_pac_store_server_message_if_c44complete_is_master_key_and_password_matchingEb @ 212 NONAME
	_ZN33eap_pac_store_server_message_if_c8shutdownEv @ 213 NONAME
	_ZN33eap_pac_store_server_message_if_c9configureEPK19eap_variable_data_c @ 214 NONAME
	_ZN33eap_pac_store_server_message_if_cC1EP18abs_eap_am_tools_c @ 215 NONAME
	_ZN33eap_pac_store_server_message_if_cC2EP18abs_eap_am_tools_c @ 216 NONAME
	_ZN33eap_pac_store_server_message_if_cD0Ev @ 217 NONAME
	_ZN33eap_pac_store_server_message_if_cD1Ev @ 218 NONAME
	_ZN33eap_pac_store_server_message_if_cD2Ev @ 219 NONAME
	_ZN48eap_fast_pac_store_data_compare_A_ID_reference_cC1EP18abs_eap_am_tools_c @ 220 NONAME
	_ZN48eap_fast_pac_store_data_compare_A_ID_reference_cC2EP18abs_eap_am_tools_c @ 221 NONAME
	_ZN48eap_fast_pac_store_data_compare_A_ID_reference_cD0Ev @ 222 NONAME
	_ZN48eap_fast_pac_store_data_compare_A_ID_reference_cD1Ev @ 223 NONAME
	_ZN48eap_fast_pac_store_data_compare_A_ID_reference_cD2Ev @ 224 NONAME
	_ZNK18eap_fast_pac_tlv_c12get_payloadsEv @ 225 NONAME
	_ZNK23eap_fast_tlv_payloads_c12get_is_validEv @ 226 NONAME
	_ZNK23eap_fast_tlv_payloads_c13get_tlv_countEv @ 227 NONAME
	_ZNK23eap_fast_tlv_payloads_c15get_tlv_pointerE19eap_fast_tlv_type_e @ 228 NONAME
	_ZNK23eap_fast_tlv_payloads_c15get_tlv_pointerE19eap_fast_tlv_type_em @ 229 NONAME
	_ZNK23eap_fast_tlv_payloads_c24check_mandatory_payloadsEPK11eap_array_cI19eap_fast_tlv_type_eE @ 230 NONAME
	_ZNK23eap_fast_tlv_payloads_c24check_payloads_existenseEPK11eap_array_cI19eap_fast_tlv_type_eE @ 231 NONAME
	_ZNK23eap_fast_tlv_payloads_c24check_payloads_existenseEPK19eap_fast_tlv_type_em @ 232 NONAME
	_ZNK23eap_fast_tlv_payloads_c27create_eap_fast_tlv_messageEP22eap_fast_tlv_message_cb @ 233 NONAME
	_ZNK23eap_fast_tlv_payloads_c4copyEv @ 234 NONAME
	_ZNK23eap_fast_tlv_payloads_c7get_tlvEm @ 235 NONAME
	_ZNK24eap_fast_variable_data_c10get_headerEv @ 236 NONAME
	_ZNK24eap_fast_variable_data_c12get_is_validEv @ 237 NONAME
	_ZNK24eap_fast_variable_data_c12get_tlv_typeEv @ 238 NONAME
	_ZNK24eap_fast_variable_data_c15get_data_lengthEv @ 239 NONAME
	_ZNK24eap_fast_variable_data_c15get_data_offsetEmm @ 240 NONAME
	_ZNK24eap_fast_variable_data_c16get_is_mandatoryEv @ 241 NONAME
	_ZNK24eap_fast_variable_data_c17get_is_valid_dataEv @ 242 NONAME
	_ZNK24eap_fast_variable_data_c19get_full_tlv_bufferEv @ 243 NONAME
	_ZNK24eap_fast_variable_data_c35get_next_payload_with_same_tlv_typeEv @ 244 NONAME
	_ZNK24eap_fast_variable_data_c4copyEv @ 245 NONAME
	_ZNK24eap_fast_variable_data_c7compareEPKS_ @ 246 NONAME
	_ZNK24eap_fast_variable_data_c8get_dataEm @ 247 NONAME
	_ZNK25eap_fast_pac_store_data_c12get_PAC_typeEv @ 248 NONAME
	_ZNK25eap_fast_pac_store_data_c12get_is_validEv @ 249 NONAME
	_ZNK25eap_fast_pac_store_data_c13get_referenceEv @ 250 NONAME
	_ZNK25eap_fast_pac_store_data_c17get_change_statusEv @ 251 NONAME
	_ZNK25eap_fast_pac_store_data_c17get_is_valid_dataEv @ 252 NONAME
	_ZNK25eap_fast_pac_store_data_c7compareEPKS_ @ 253 NONAME
	_ZNK25eap_fast_pac_store_data_c8get_dataEv @ 254 NONAME
	_ZNK25eap_fast_pac_store_data_c8get_typeEv @ 255 NONAME
	_ZNK31eap_fast_pac_store_completion_c21get_completion_actionEv @ 256 NONAME
	_ZNK48eap_fast_pac_store_data_compare_A_ID_reference_c7compareEPK25eap_fast_pac_store_data_cS2_ @ 257 NONAME
	_ZTI11CPacStoreIf @ 258 NONAME
	_ZTI18eap_fast_pac_tlv_c @ 259 NONAME
	_ZTI20eap_fast_pac_store_c @ 260 NONAME
	_ZTI21eap_fast_tlv_header_c @ 261 NONAME
	_ZTI22eap_fast_tlv_message_c @ 262 NONAME
	_ZTI23eap_fast_tlv_payloads_c @ 263 NONAME
	_ZTI24eap_fast_variable_data_c @ 264 NONAME
	_ZTI25eap_fast_pac_store_data_c @ 265 NONAME
	_ZTI26eap_am_pac_store_symbian_c @ 266 NONAME
	_ZTI27eap_am_async_wait_symbian_c @ 267 NONAME
	_ZTI28eap_fast_tlv_header_string_c @ 268 NONAME
	_ZTI31eap_fast_pac_file_data_header_c @ 269 NONAME
	_ZTI31eap_fast_pac_store_completion_c @ 270 NONAME
	_ZTI33eap_pac_store_server_message_if_c @ 271 NONAME
	_ZTI48eap_fast_pac_store_data_compare_A_ID_reference_c @ 272 NONAME
	_ZTV11CPacStoreIf @ 273 NONAME
	_ZTV18eap_fast_pac_tlv_c @ 274 NONAME
	_ZTV20eap_fast_pac_store_c @ 275 NONAME
	_ZTV21eap_fast_tlv_header_c @ 276 NONAME
	_ZTV22eap_fast_tlv_message_c @ 277 NONAME
	_ZTV23eap_fast_tlv_payloads_c @ 278 NONAME
	_ZTV24eap_fast_variable_data_c @ 279 NONAME
	_ZTV25eap_fast_pac_store_data_c @ 280 NONAME
	_ZTV26eap_am_pac_store_symbian_c @ 281 NONAME
	_ZTV27eap_am_async_wait_symbian_c @ 282 NONAME
	_ZTV28eap_fast_tlv_header_string_c @ 283 NONAME
	_ZTV31eap_fast_pac_file_data_header_c @ 284 NONAME
	_ZTV31eap_fast_pac_store_completion_c @ 285 NONAME
	_ZTV33eap_pac_store_server_message_if_c @ 286 NONAME
	_ZTV48eap_fast_pac_store_data_compare_A_ID_reference_c @ 287 NONAME
	_ZThn4_N33eap_pac_store_server_message_if_c11set_partnerEP23abs_eap_am_message_if_c @ 288 NONAME
	_ZThn4_N33eap_pac_store_server_message_if_c12get_is_validEv @ 289 NONAME
	_ZThn4_N33eap_pac_store_server_message_if_c12process_dataEPKvm @ 290 NONAME
	_ZThn4_N33eap_pac_store_server_message_if_c8shutdownEv @ 291 NONAME
	_ZThn4_N33eap_pac_store_server_message_if_c9configureEPK19eap_variable_data_c @ 292 NONAME
	_ZThn4_N33eap_pac_store_server_message_if_cD0Ev @ 293 NONAME
	_ZThn4_N33eap_pac_store_server_message_if_cD1Ev @ 294 NONAME
	_ZThn8_N33eap_pac_store_server_message_if_c13timer_expiredEmPv @ 295 NONAME
	_ZThn8_N33eap_pac_store_server_message_if_c17timer_delete_dataEmPv @ 296 NONAME
	_ZThn8_N33eap_pac_store_server_message_if_cD0Ev @ 297 NONAME
	_ZThn8_N33eap_pac_store_server_message_if_cD1Ev @ 298 NONAME

